

Microchip MPLAB XC8 Assembler V2.10 build 88905656 
                                                                                               Tue Sep 17 16:14:12 2019

Microchip MPLAB XC8 C Compiler v2.10 (Free license) build 20190730164152 Og1 
     1                           	processor	18F8722
     2                           	fnconf	rparam,??,?,0
     3                           	opt	pw 120
     4                           	opt	flic
     5                           	psect	idataCOMRAM,global,class=CODE,delta=1,noexec
     6                           	psect	idataBANK0,global,class=CODE,delta=1,noexec
     7                           	psect	smallconst,global,reloc=2,class=SMALLCONST,delta=1,noexec
     8                           	psect	cinit,global,reloc=2,class=CODE,delta=1
     9                           	psect	bssCOMRAM,global,class=COMRAM,space=1,delta=1,noexec
    10                           	psect	dataCOMRAM,global,class=COMRAM,space=1,delta=1,noexec
    11                           	psect	bssBANK0,global,class=BANK0,space=1,delta=1,lowdata,noexec
    12                           	psect	dataBANK0,global,class=BANK0,space=1,delta=1,lowdata,noexec
    13                           	psect	cstackBANK1,global,class=BANK1,space=1,delta=1,noexec
    14                           	psect	cstackBANK0,global,class=BANK0,space=1,delta=1,noexec
    15                           	psect	cstackCOMRAM,global,class=COMRAM,space=1,delta=1,noexec
    16                           	psect	text0,global,reloc=2,class=CODE,delta=1
    17                           	psect	text1,global,reloc=2,class=CODE,delta=1
    18                           	psect	text2,global,reloc=2,class=CODE,delta=1
    19                           	psect	text3,global,reloc=2,class=CODE,delta=1,group=2
    20                           	psect	text4,global,reloc=2,class=CODE,delta=1,group=2
    21                           	psect	text5,global,reloc=2,class=CODE,delta=1,group=2
    22                           	psect	text6,global,reloc=2,class=CODE,delta=1,group=1
    23                           	psect	text7,global,reloc=2,class=CODE,delta=1,group=2
    24                           	psect	text8,global,reloc=2,class=CODE,delta=1,group=1
    25                           	psect	text9,global,reloc=2,class=CODE,delta=1,group=2
    26                           	psect	text10,global,reloc=2,class=CODE,delta=1,group=1
    27                           	psect	text11,global,reloc=2,class=CODE,delta=1,group=1
    28                           	psect	text12,global,reloc=2,class=CODE,delta=1,group=1
    29                           	psect	text13,global,reloc=2,class=CODE,delta=1,group=1
    30                           	psect	text14,global,reloc=2,class=CODE,delta=1,group=1
    31                           	psect	text15,global,reloc=2,class=CODE,delta=1,group=1
    32                           	psect	text16,global,reloc=2,class=CODE,delta=1,group=1
    33                           	psect	text17,global,reloc=2,class=CODE,delta=1
    34                           	psect	text18,global,reloc=2,class=CODE,delta=1
    35                           	psect	text19,global,reloc=2,class=CODE,delta=1
    36                           	psect	text20,global,reloc=2,class=CODE,delta=1
    37                           	psect	intcode,global,reloc=2,class=CODE,delta=1
    38                           	psect	intcode_body,global,reloc=2,class=CODE,delta=1
    39                           	psect	text22,global,reloc=2,class=CODE,delta=1
    40                           	psect	text23,global,reloc=2,class=CODE,delta=1
    41                           	psect	text24,global,reloc=2,class=CODE,delta=1
    42                           	psect	text25,global,reloc=2,class=CODE,delta=1,group=1
    43                           	psect	intsave_regs,global,class=BIGRAM,space=1,delta=1,noexec
    44                           	psect	rparam,global,class=COMRAM,space=1,delta=1,noexec
    45                           	psect	temp,global,ovrld,common,class=COMRAM,space=1,delta=1
    46  0000                     
    47                           ; Version 2.10
    48                           ; Generated 31/07/2019 GMT
    49                           ; 
    50                           ; Copyright © 2019, Microchip Technology Inc. and its subsidiaries ("Microchip")
    51                           ; All rights reserved.
    52                           ; 
    53                           ; This software is developed by Microchip Technology Inc. and its subsidiaries ("Microch
      +                          ip").
    54                           ; 
    55                           ; Redistribution and use in source and binary forms, with or without modification, are
    56                           ; permitted provided that the following conditions are met:
    57                           ; 
    58                           ;     1. Redistributions of source code must retain the above copyright notice, this lis
      +                          t of
    59                           ;        conditions and the following disclaimer.
    60                           ; 
    61                           ;     2. Redistributions in binary form must reproduce the above copyright notice, this 
      +                          list
    62                           ;        of conditions and the following disclaimer in the documentation and/or other
    63                           ;        materials provided with the distribution.
    64                           ; 
    65                           ;     3. Microchip's name may not be used to endorse or promote products derived from th
      +                          is
    66                           ;        software without specific prior written permission.
    67                           ; 
    68                           ; THIS SOFTWARE IS PROVIDED BY MICROCHIP "AS IS" AND ANY EXPRESS OR IMPLIED WARRANTIES,
    69                           ; INCLUDING, BUT NOT LIMITED TO, THE IMPLIED WARRANTIES OF MERCHANTABILITY AND FITNESS F
      +                          OR
    70                           ; PURPOSE ARE DISCLAIMED.  IN NO EVENT SHALL MICROCHIP BE LIABLE FOR ANY DIRECT, INDIREC
      +                          T,
    71                           ; INCIDENTAL, SPECIAL, EXEMPLARY, OR CONSEQUENTIAL DAMAGES (INCLUDING BUT NOT LIMITED TO
    72                           ; PROCUREMENT OF SUBSTITUTE GOODS OR SERVICES; LOSS OF USE, DATA OR PROFITS; OR BUSINESS
    73                           ; INTERRUPTION) HOWSOEVER CAUSED AND ON ANY THEORY OF LIABILITY, WHETHER IN CONTRACT, ST
      +                          RICT
    74                           ; LIABILITY, OR TORT (INCLUDING NEGLIGENCE OR OTHERWISE) ARISING IN ANY WAY OUT OF THE U
      +                          SE OF
    75                           ; THIS SOFTWARE, EVEN IF ADVISED OF THE POSSIBILITY OF SUCH DAMAGE.
    76                           ; 
    77                           ; 
    78                           ; Code-generator required, PIC18F8722 Definitions
    79                           ; 
    80                           ; SFR Addresses
    81  0000                     
    82                           	psect	idataCOMRAM
    83  005A08                     __pidataCOMRAM:
    84                           	opt callstack 0
    85                           
    86                           ;initializer for _secondReadRB0
    87  005A08  01                 	db	1
    88                           
    89                           ;initializer for _secondReadRA5
    90  005A09  01                 	db	1
    91                           
    92                           ;initializer for _firstReadRA5
    93  005A0A  01                 	db	1
    94                           
    95                           	psect	idataBANK0
    96  0059F8                     __pidataBANK0:
    97                           	opt callstack 0
    98                           
    99                           ;initializer for _time_interval2
   100  0059F8  000A               	dw	10
   101                           
   102                           ;initializer for _time_interval1
   103  0059FA  0032               	dw	50
   104                           
   105                           ;initializer for _time_pressed2
   106  0059FC  01F4               	dw	500
   107                           
   108                           ;initializer for _time_pressed1
   109  0059FE  0064               	dw	100
   110                           
   111                           ;initializer for _firstReadRB0
   112  005A00  01                 	db	1
   113                           
   114                           	psect	smallconst
   115  001000                     __psmallconst:
   116                           	opt callstack 0
   117  001000  00                 	db	0
   118  001001                     _dp_l:
   119                           	opt callstack 0
   120  001001  0000               	dw	0
   121  001003  0000               	dw	0
   122  001005  CFDC               	dw	53212
   123  001007  35D1               	dw	13777
   124  001009                     __end_of_dp_l:
   125                           	opt callstack 0
   126  001009                     _dp_h:
   127                           	opt callstack 0
   128  001009  0000               	dw	0
   129  00100B  0000               	dw	0
   130  00100D  C000               	dw	49152
   131  00100F  3F15               	dw	16149
   132  001011                     __end_of_dp_h:
   133                           	opt callstack 0
   134  001011  4260               	dw	16992
   135  001013  0DA2               	dw	3490
   136  001015                     __end_ofsqrtf@tiny:
   137                           	opt callstack 0
   138  001015  A570               	dw	42352
   139  001017  36EC               	dw	14060
   140  001019                     __end_of_ivln2_l:
   141                           	opt callstack 0
   142  001019  AA3B               	dw	43579
   143  00101B  3FB8               	dw	16312
   144  00101D                     __end_of_ivln2:
   145                           	opt callstack 0
   146  00101D  384F               	dw	14415
   147  00101F  3F76               	dw	16246
   148  001021                     __end_of_cp:
   149                           	opt callstack 0
   150  001021  AA3C               	dw	43580
   151  001023  3338               	dw	13112
   152  001025                     __end_of_ovt:
   153                           	opt callstack 0
   154  001025  BE8C               	dw	48780
   155  001027  35BF               	dw	13759
   156  001029                     __end_of_lg2_l:
   157                           	opt callstack 0
   158  001029  7200               	dw	29184
   159  00102B  3F31               	dw	16177
   160  00102D                     __end_of_lg2_h:
   161                           	opt callstack 0
   162  00102D  7218               	dw	29208
   163  00102F  3F31               	dw	16177
   164  001031                     __end_of_lg2:
   165                           	opt callstack 0
   166  001031  BB4C               	dw	47948
   167  001033  3331               	dw	13105
   168  001035                     __end_of_P5:
   169                           	opt callstack 0
   170  001035  EA0E               	dw	59918
   171  001037  B5DD               	dw	46557
   172  001039                     __end_of_P4:
   173                           	opt callstack 0
   174  001039  B355               	dw	45909
   175  00103B  388A               	dw	14474
   176  00103D                     __end_of_P3:
   177                           	opt callstack 0
   178  00103D  0B61               	dw	2913
   179  00103F  BB36               	dw	47926
   180  001041                     __end_of_P2:
   181                           	opt callstack 0
   182  001041  AAAB               	dw	43691
   183  001043  3E2A               	dw	15914
   184  001045                     __end_of_P1:
   185                           	opt callstack 0
   186  001045  F142               	dw	61762
   187  001047  3E53               	dw	15955
   188  001049                     __end_of_L6:
   189                           	opt callstack 0
   190  001049  3255               	dw	12885
   191  00104B  3E6C               	dw	15980
   192  00104D                     __end_of_L5:
   193                           	opt callstack 0
   194  00104D  A305               	dw	41733
   195  00104F  3E8B               	dw	16011
   196  001051                     __end_of_L4:
   197                           	opt callstack 0
   198  001051  AAAB               	dw	43691
   199  001053  3EAA               	dw	16042
   200  001055                     __end_of_L3:
   201                           	opt callstack 0
   202  001055  6DB7               	dw	28087
   203  001057  3EDB               	dw	16091
   204  001059                     __end_of_L2:
   205                           	opt callstack 0
   206  001059  999A               	dw	39322
   207  00105B  3F19               	dw	16153
   208  00105D                     __end_of_L1:
   209                           	opt callstack 0
   210  00105D  4260               	dw	16992
   211  00105F  0DA2               	dw	3490
   212  001061                     __end_of_tiny:
   213                           	opt callstack 0
   214  001061  F2CA               	dw	62154
   215  001063  7149               	dw	29001
   216  001065                     __end_of_huge:
   217                           	opt callstack 0
   218  001065  0000               	dw	0
   219  001067  4B80               	dw	19328
   220  001069                     __end_of_two24:
   221                           	opt callstack 0
   222  001069                     _bp:
   223                           	opt callstack 0
   224  001069  0000               	dw	0
   225  00106B  3F80               	dw	16256
   226  00106D  0000               	dw	0
   227  00106F  3FC0               	dw	16320
   228  001071                     __end_of_bp:
   229                           	opt callstack 0
   230  001071  AA00               	dw	43520
   231  001073  3FB8               	dw	16312
   232  001075                     __end_of_ivln2_h:
   233                           	opt callstack 0
   234  001075  23C6               	dw	9158
   235  001077  B8F6               	dw	47350
   236  001079                     __end_of_cp_l:
   237                           	opt callstack 0
   238  001079  4000               	dw	16384
   239  00107B  3F76               	dw	16246
   240  00107D                     __end_of_cp_h:
   241                           	opt callstack 0
   242  0000                     _OSCTUNE	set	3995
   243  0000                     _OSCCON	set	4051
   244  0000                     _T0CONbits	set	4053
   245  0000                     _T0CON	set	4053
   246  0000                     _PORTBbits	set	3969
   247  0000                     _PORTAbits	set	3968
   248  0000                     _ADCON1	set	4033
   249  0000                     _TRISBbits	set	3987
   250  0000                     _TRISAbits	set	3986
   251  0000                     _LATD	set	3980
   252  0000                     _TRISD	set	3989
   253  0000                     _TMR0H	set	4055
   254  0000                     _TMR0L	set	4054
   255  0000                     _INTCONbits	set	4082
   256  00107D                     STR_1:
   257  00107D  00                 	db	0
   258                           
   259                           ; #config settings
   260  00107E  00                 	db	0	; dummy byte at the end
   261  0000                     
   262                           	psect	cinit
   263  0057AC                     __pcinit:
   264                           	opt callstack 0
   265  0057AC                     start_initialization:
   266                           	opt callstack 0
   267  0057AC                     __initialization:
   268                           	opt callstack 0
   269                           
   270                           ; Initialize objects allocated to BANK0 (9 bytes)
   271                           ; load TBLPTR registers with __pidataBANK0
   272  0057AC  0EF8               	movlw	low __pidataBANK0
   273  0057AE  6EF6               	movwf	tblptrl,c
   274  0057B0  0E59               	movlw	high __pidataBANK0
   275  0057B2  6EF7               	movwf	tblptrh,c
   276  0057B4  0E00               	movlw	low (__pidataBANK0 shr (0+16))
   277  0057B6  6EF8               	movwf	tblptru,c
   278  0057B8  EE00  F0C2         	lfsr	0,__pdataBANK0
   279  0057BC  EE10 F009          	lfsr	1,9
   280  0057C0                     copy_data0:
   281  0057C0  0009               	tblrd		*+
   282  0057C2  CFF5 FFEE          	movff	tablat,postinc0
   283  0057C6  50E5               	movf	postdec1,w,c
   284  0057C8  50E1               	movf	fsr1l,w,c
   285  0057CA  E1FA               	bnz	copy_data0
   286                           
   287                           ; Initialize objects allocated to COMRAM (3 bytes)
   288                           ; load TBLPTR registers with __pidataCOMRAM
   289  0057CC  0E08               	movlw	low __pidataCOMRAM
   290  0057CE  6EF6               	movwf	tblptrl,c
   291  0057D0  0E5A               	movlw	high __pidataCOMRAM
   292  0057D2  6EF7               	movwf	tblptrh,c
   293  0057D4  0E00               	movlw	low (__pidataCOMRAM shr (0+16))
   294  0057D6  6EF8               	movwf	tblptru,c
   295  0057D8  0009               	tblrd		*+	;fetch initializer
   296  0057DA  CFF5 F053          	movff	tablat,__pdataCOMRAM
   297  0057DE  0009               	tblrd		*+	;fetch initializer
   298  0057E0  CFF5 F054          	movff	tablat,__pdataCOMRAM+1
   299  0057E4  0009               	tblrd		*+	;fetch initializer
   300  0057E6  CFF5 F055          	movff	tablat,__pdataCOMRAM+2
   301                           
   302                           ; Clear objects allocated to BANK0 (16 bytes)
   303  0057EA  EE00  F0B2         	lfsr	0,__pbssBANK0
   304  0057EE  0E10               	movlw	16
   305  0057F0                     clear_0:
   306  0057F0  6AEE               	clrf	postinc0,c
   307  0057F2  06E8               	decf	wreg,f,c
   308  0057F4  E1FD               	bnz	clear_0
   309                           
   310                           ; Clear objects allocated to COMRAM (6 bytes)
   311  0057F6  6A52               	clrf	(__pbssCOMRAM+5)& (0+255),c
   312  0057F8  6A51               	clrf	(__pbssCOMRAM+4)& (0+255),c
   313  0057FA  6A50               	clrf	(__pbssCOMRAM+3)& (0+255),c
   314  0057FC  6A4F               	clrf	(__pbssCOMRAM+2)& (0+255),c
   315  0057FE  6A4E               	clrf	(__pbssCOMRAM+1)& (0+255),c
   316  005800  6A4D               	clrf	__pbssCOMRAM& (0+255),c
   317  005802                     end_of_initialization:
   318                           	opt callstack 0
   319  005802                     __end_of__initialization:
   320                           	opt callstack 0
   321  005802  9056               	bcf	int$flags,0,c	;clear compiler interrupt flag (level 1)
   322  005804  9256               	bcf	int$flags,1,c	;clear compiler interrupt flag (level 2)
   323  005806  0100               	movlb	0
   324  005808  EFD9  F02C         	goto	_main	;jump to C main() function
   325                           
   326                           	psect	bssCOMRAM
   327  00004D                     __pbssCOMRAM:
   328                           	opt callstack 0
   329  00004D                     _countRB0:
   330                           	opt callstack 0
   331  00004D                     	ds	2
   332  00004F                     _countRA5:
   333                           	opt callstack 0
   334  00004F                     	ds	2
   335  000051                     _ledValue:
   336                           	opt callstack 0
   337  000051                     	ds	1
   338  000052                     _state:
   339                           	opt callstack 0
   340  000052                     	ds	1
   341                           
   342                           	psect	dataCOMRAM
   343  000053                     __pdataCOMRAM:
   344                           	opt callstack 0
   345  000053                     _secondReadRB0:
   346                           	opt callstack 0
   347  000053                     	ds	1
   348  000054                     _secondReadRA5:
   349                           	opt callstack 0
   350  000054                     	ds	1
   351  000055                     _firstReadRA5:
   352                           	opt callstack 0
   353  000055                     	ds	1
   354                           
   355                           	psect	bssBANK0
   356  0000B2                     __pbssBANK0:
   357                           	opt callstack 0
   358  0000B2                     fabsf@F463:
   359                           	opt callstack 0
   360  0000B2                     	ds	4
   361  0000B6                     _errno:
   362                           	opt callstack 0
   363  0000B6                     	ds	2
   364  0000B8                     _counter_high:
   365                           	opt callstack 0
   366  0000B8                     	ds	2
   367  0000BA                     _counter_low:
   368                           	opt callstack 0
   369  0000BA                     	ds	2
   370  0000BC                     _decrease2:
   371                           	opt callstack 0
   372  0000BC                     	ds	1
   373  0000BD                     _decrease1:
   374                           	opt callstack 0
   375  0000BD                     	ds	1
   376  0000BE                     _increase2:
   377                           	opt callstack 0
   378  0000BE                     	ds	1
   379  0000BF                     _increase1:
   380                           	opt callstack 0
   381  0000BF                     	ds	1
   382  0000C0                     _buttonRB0:
   383                           	opt callstack 0
   384  0000C0                     	ds	1
   385  0000C1                     _buttonRA5:
   386                           	opt callstack 0
   387  0000C1                     	ds	1
   388                           
   389                           	psect	dataBANK0
   390  0000C2                     __pdataBANK0:
   391                           	opt callstack 0
   392  0000C2                     _time_interval2:
   393                           	opt callstack 0
   394  0000C2                     	ds	2
   395  0000C4                     _time_interval1:
   396                           	opt callstack 0
   397  0000C4                     	ds	2
   398  0000C6                     _time_pressed2:
   399                           	opt callstack 0
   400  0000C6                     	ds	2
   401  0000C8                     _time_pressed1:
   402                           	opt callstack 0
   403  0000C8                     	ds	2
   404  0000CA                     _firstReadRB0:
   405                           	opt callstack 0
   406  0000CA                     	ds	1
   407                           
   408                           	psect	cstackBANK1
   409  000100                     __pcstackBANK1:
   410                           	opt callstack 0
   411  000100                     _powf$1395:
   412                           	opt callstack 0
   413                           
   414                           ; 4 bytes @ 0x0
   415  000100                     	ds	4
   416  000104                     _powf$1396:
   417                           	opt callstack 0
   418                           
   419                           ; 4 bytes @ 0x4
   420  000104                     	ds	4
   421  000108                     _powf$1400:
   422                           	opt callstack 0
   423                           
   424                           ; 4 bytes @ 0x8
   425  000108                     	ds	4
   426  00010C                     _powf$1401:
   427                           	opt callstack 0
   428                           
   429                           ; 4 bytes @ 0xC
   430  00010C                     	ds	4
   431  000110                     _powf$1402:
   432                           	opt callstack 0
   433                           
   434                           ; 4 bytes @ 0x10
   435  000110                     	ds	4
   436  000114                     _powf$1403:
   437                           	opt callstack 0
   438                           
   439                           ; 4 bytes @ 0x14
   440  000114                     	ds	4
   441  000118                     _powf$1404:
   442                           	opt callstack 0
   443                           
   444                           ; 4 bytes @ 0x18
   445  000118                     	ds	4
   446  00011C                     powf@t2:
   447                           	opt callstack 0
   448                           
   449                           ; 4 bytes @ 0x1C
   450  00011C                     	ds	4
   451  000120                     powf@z_h:
   452                           	opt callstack 0
   453                           
   454                           ; 4 bytes @ 0x20
   455  000120                     	ds	4
   456  000124                     powf@z_l:
   457                           	opt callstack 0
   458                           
   459                           ; 4 bytes @ 0x24
   460  000124                     	ds	4
   461  000128                     powf@y1:
   462                           	opt callstack 0
   463                           
   464                           ; 4 bytes @ 0x28
   465  000128                     	ds	4
   466  00012C                     powf@i:
   467                           	opt callstack 0
   468                           
   469                           ; 4 bytes @ 0x2C
   470  00012C                     	ds	4
   471  000130                     powf@s_l:
   472                           	opt callstack 0
   473                           
   474                           ; 4 bytes @ 0x30
   475  000130                     	ds	4
   476  000134                     powf@t_l:
   477                           	opt callstack 0
   478                           
   479                           ; 4 bytes @ 0x34
   480  000134                     	ds	4
   481  000138                     _powf$1394:
   482                           	opt callstack 0
   483                           
   484                           ; 4 bytes @ 0x38
   485  000138                     	ds	4
   486  00013C                     _powf$1398:
   487                           	opt callstack 0
   488                           
   489                           ; 4 bytes @ 0x3C
   490  00013C                     	ds	4
   491  000140                     _powf$1399:
   492                           	opt callstack 0
   493                           
   494                           ; 4 bytes @ 0x40
   495  000140                     	ds	4
   496  000144                     powf@w:
   497                           	opt callstack 0
   498                           
   499                           ; 4 bytes @ 0x44
   500  000144                     	ds	4
   501  000148                     _powf$1392:
   502                           	opt callstack 0
   503                           
   504                           ; 4 bytes @ 0x48
   505  000148                     	ds	4
   506  00014C                     powf@r:
   507                           	opt callstack 0
   508                           
   509                           ; 4 bytes @ 0x4C
   510  00014C                     	ds	4
   511  000150                     powf@yisint:
   512                           	opt callstack 0
   513                           
   514                           ; 4 bytes @ 0x50
   515  000150                     	ds	4
   516  000154                     _powf$1391:
   517                           	opt callstack 0
   518                           
   519                           ; 4 bytes @ 0x54
   520  000154                     	ds	4
   521  000158                     _powf$1397:
   522                           	opt callstack 0
   523                           
   524                           ; 4 bytes @ 0x58
   525  000158                     	ds	4
   526  00015C                     powf@s:
   527                           	opt callstack 0
   528                           
   529                           ; 4 bytes @ 0x5C
   530  00015C                     	ds	4
   531  000160                     powf@hx:
   532                           	opt callstack 0
   533                           
   534                           ; 4 bytes @ 0x60
   535  000160                     	ds	4
   536  000164                     powf@p_l:
   537                           	opt callstack 0
   538                           
   539                           ; 4 bytes @ 0x64
   540  000164                     	ds	4
   541  000168                     powf@t_h:
   542                           	opt callstack 0
   543                           
   544                           ; 4 bytes @ 0x68
   545  000168                     	ds	4
   546  00016C                     powf@s_h:
   547                           	opt callstack 0
   548                           
   549                           ; 4 bytes @ 0x6C
   550  00016C                     	ds	4
   551  000170                     powf@ax:
   552                           	opt callstack 0
   553                           
   554                           ; 4 bytes @ 0x70
   555  000170                     	ds	4
   556  000174                     powf@u:
   557                           	opt callstack 0
   558                           
   559                           ; 4 bytes @ 0x74
   560  000174                     	ds	4
   561  000178                     powf@v:
   562                           	opt callstack 0
   563                           
   564                           ; 4 bytes @ 0x78
   565  000178                     	ds	4
   566  00017C                     powf@hy:
   567                           	opt callstack 0
   568                           
   569                           ; 4 bytes @ 0x7C
   570  00017C                     	ds	4
   571  000180                     powf@n:
   572                           	opt callstack 0
   573                           
   574                           ; 4 bytes @ 0x80
   575  000180                     	ds	4
   576  000184                     powf@t1:
   577                           	opt callstack 0
   578                           
   579                           ; 4 bytes @ 0x84
   580  000184                     	ds	4
   581  000188                     powf@sn:
   582                           	opt callstack 0
   583                           
   584                           ; 4 bytes @ 0x88
   585  000188                     	ds	4
   586  00018C                     powf@s2:
   587                           	opt callstack 0
   588                           
   589                           ; 4 bytes @ 0x8C
   590  00018C                     	ds	4
   591  000190                     powf@iy:
   592                           	opt callstack 0
   593                           
   594                           ; 4 bytes @ 0x90
   595  000190                     	ds	4
   596  000194                     powf@is:
   597                           	opt callstack 0
   598                           
   599                           ; 4 bytes @ 0x94
   600  000194                     	ds	4
   601  000198                     _powf$1393:
   602                           	opt callstack 0
   603                           
   604                           ; 4 bytes @ 0x98
   605  000198                     	ds	4
   606  00019C                     powf@p_h:
   607                           	opt callstack 0
   608                           
   609                           ; 4 bytes @ 0x9C
   610  00019C                     	ds	4
   611  0001A0                     powf@k:
   612                           	opt callstack 0
   613                           
   614                           ; 4 bytes @ 0xA0
   615  0001A0                     	ds	4
   616  0001A4                     _powf$1390:
   617                           	opt callstack 0
   618                           
   619                           ; 4 bytes @ 0xA4
   620  0001A4                     	ds	4
   621  0001A8                     powf@ix:
   622                           	opt callstack 0
   623                           
   624                           ; 4 bytes @ 0xA8
   625  0001A8                     	ds	4
   626  0001AC                     powf@j:
   627                           	opt callstack 0
   628                           
   629                           ; 4 bytes @ 0xAC
   630  0001AC                     	ds	4
   631  0001B0                     powf@t:
   632                           	opt callstack 0
   633                           
   634                           ; 4 bytes @ 0xB0
   635  0001B0                     	ds	4
   636  0001B4                     powf@z:
   637                           	opt callstack 0
   638                           
   639                           ; 4 bytes @ 0xB4
   640  0001B4                     	ds	4
   641  0001B8                     powf@__xc8_float_word:
   642                           	opt callstack 0
   643                           
   644                           ; 4 bytes @ 0xB8
   645  0001B8                     	ds	4
   646                           
   647                           	psect	cstackBANK0
   648  000060                     __pcstackBANK0:
   649                           	opt callstack 0
   650  000060                     ??_sqrtf:
   651  000060                     ___fldiv@rem:
   652                           	opt callstack 0
   653                           
   654                           ; 4 bytes @ 0x0
   655  000060                     	ds	4
   656  000064                     ___fldiv@sign:
   657                           	opt callstack 0
   658                           
   659                           ; 1 bytes @ 0x4
   660  000064                     	ds	1
   661  000065                     ___fldiv@new_exp:
   662                           	opt callstack 0
   663                           
   664                           ; 2 bytes @ 0x5
   665  000065                     	ds	2
   666  000067                     ___fldiv@grs:
   667                           	opt callstack 0
   668                           
   669                           ; 4 bytes @ 0x7
   670  000067                     	ds	2
   671  000069                     sqrtf@s:
   672                           	opt callstack 0
   673                           
   674                           ; 4 bytes @ 0x9
   675  000069                     	ds	2
   676  00006B                     ___fldiv@bexp:
   677                           	opt callstack 0
   678                           
   679                           ; 1 bytes @ 0xB
   680  00006B                     	ds	1
   681  00006C                     ___fldiv@aexp:
   682                           	opt callstack 0
   683                           
   684                           ; 1 bytes @ 0xC
   685  00006C                     	ds	1
   686  00006D                     sqrtf@i:
   687                           	opt callstack 0
   688                           
   689                           ; 4 bytes @ 0xD
   690  00006D                     	ds	4
   691  000071                     sqrtf@__xc8_float_word:
   692                           	opt callstack 0
   693                           
   694                           ; 4 bytes @ 0x11
   695  000071                     	ds	4
   696  000075                     sqrtf@q:
   697                           	opt callstack 0
   698                           
   699                           ; 4 bytes @ 0x15
   700  000075                     	ds	4
   701  000079                     sqrtf@t:
   702                           	opt callstack 0
   703                           
   704                           ; 4 bytes @ 0x19
   705  000079                     	ds	4
   706  00007D                     sqrtf@z:
   707                           	opt callstack 0
   708                           
   709                           ; 4 bytes @ 0x1D
   710  00007D                     	ds	4
   711  000081                     sqrtf@m:
   712                           	opt callstack 0
   713                           
   714                           ; 4 bytes @ 0x21
   715  000081                     	ds	4
   716  000085                     sqrtf@r:
   717                           	opt callstack 0
   718                           
   719                           ; 4 bytes @ 0x25
   720  000085                     	ds	4
   721  000089                     sqrtf@ix:
   722                           	opt callstack 0
   723                           
   724                           ; 4 bytes @ 0x29
   725  000089                     	ds	4
   726  00008D                     ?_powf:
   727                           	opt callstack 0
   728  00008D                     powf@x:
   729                           	opt callstack 0
   730                           
   731                           ; 4 bytes @ 0x2D
   732  00008D                     	ds	4
   733  000091                     powf@y:
   734                           	opt callstack 0
   735                           
   736                           ; 4 bytes @ 0x31
   737  000091                     	ds	4
   738  000095                     ??_powf:
   739                           
   740                           ; 1 bytes @ 0x35
   741  000095                     	ds	9
   742  00009E                     ?___fltol:
   743                           	opt callstack 0
   744  00009E                     ___fltol@f1:
   745                           	opt callstack 0
   746                           
   747                           ; 4 bytes @ 0x3E
   748  00009E                     	ds	4
   749  0000A2                     ??___fltol:
   750                           
   751                           ; 1 bytes @ 0x42
   752  0000A2                     	ds	4
   753  0000A6                     ??_preCalculate:
   754                           
   755                           ; 1 bytes @ 0x46
   756  0000A6                     	ds	2
   757  0000A8                     _preCalculate$1389:
   758                           	opt callstack 0
   759                           
   760                           ; 4 bytes @ 0x48
   761  0000A8                     	ds	4
   762  0000AC                     preCalculate@count:
   763                           	opt callstack 0
   764                           
   765                           ; 2 bytes @ 0x4C
   766  0000AC                     	ds	2
   767  0000AE                     preCalculate@temp:
   768                           	opt callstack 0
   769                           
   770                           ; 2 bytes @ 0x4E
   771  0000AE                     	ds	2
   772  0000B0                     preCalculate@count_scaled:
   773                           	opt callstack 0
   774                           
   775                           ; 2 bytes @ 0x50
   776  0000B0                     	ds	2
   777                           
   778                           	psect	cstackCOMRAM
   779  000001                     __pcstackCOMRAM:
   780                           	opt callstack 0
   781  000001                     ?_readButtonRA5:
   782                           	opt callstack 0
   783  000001                     ?_readButtonRB0:
   784                           	opt callstack 0
   785  000001                     ?___lwmod:
   786                           	opt callstack 0
   787  000001                     ___lwmod@dividend:
   788                           	opt callstack 0
   789                           
   790                           ; 2 bytes @ 0x0
   791  000001                     	ds	2
   792  000003                     ___lwmod@divisor:
   793                           	opt callstack 0
   794                           
   795                           ; 2 bytes @ 0x2
   796  000003                     	ds	2
   797  000005                     ___lwmod@counter:
   798                           	opt callstack 0
   799                           
   800                           ; 1 bytes @ 0x4
   801  000005                     	ds	1
   802  000006                     handleButton@checkRA5:
   803                           	opt callstack 0
   804                           
   805                           ; 2 bytes @ 0x5
   806  000006                     	ds	2
   807  000008                     handleButton@checkRB0:
   808                           	opt callstack 0
   809                           
   810                           ; 2 bytes @ 0x7
   811  000008                     	ds	2
   812  00000A                     ??_FSM:
   813  00000A                     ?___awdiv:
   814                           	opt callstack 0
   815  00000A                     ?___fladd:
   816                           	opt callstack 0
   817  00000A                     ?_fabsf:
   818                           	opt callstack 0
   819  00000A                     ?_nanf:
   820                           	opt callstack 0
   821  00000A                     ?___flneg:
   822                           	opt callstack 0
   823  00000A                     ?___xxtofl:
   824                           	opt callstack 0
   825  00000A                     ___awdiv@dividend:
   826                           	opt callstack 0
   827  00000A                     nanf@s:
   828                           	opt callstack 0
   829  00000A                     ___flneg@f1:
   830                           	opt callstack 0
   831  00000A                     ___fladd@b:
   832                           	opt callstack 0
   833  00000A                     ___xxtofl@val:
   834                           	opt callstack 0
   835  00000A                     fabsf@x:
   836                           	opt callstack 0
   837                           
   838                           ; 4 bytes @ 0x9
   839  00000A                     	ds	2
   840  00000C                     ___awdiv@divisor:
   841                           	opt callstack 0
   842                           
   843                           ; 2 bytes @ 0xB
   844  00000C                     	ds	2
   845  00000E                     ??___xxtofl:
   846  00000E                     ___awdiv@counter:
   847                           	opt callstack 0
   848  00000E                     ___fladd@a:
   849                           	opt callstack 0
   850  00000E                     fabsf@u:
   851                           	opt callstack 0
   852  00000E                     nanf@u:
   853                           	opt callstack 0
   854                           
   855                           ; 4 bytes @ 0xD
   856  00000E                     	ds	1
   857  00000F                     ___awdiv@sign:
   858                           	opt callstack 0
   859                           
   860                           ; 1 bytes @ 0xE
   861  00000F                     	ds	1
   862  000010                     ___awdiv@quotient:
   863                           	opt callstack 0
   864                           
   865                           ; 2 bytes @ 0xF
   866  000010                     	ds	2
   867  000012                     ??___fladd:
   868  000012                     ___xxtofl@sign:
   869                           	opt callstack 0
   870                           
   871                           ; 1 bytes @ 0x11
   872  000012                     	ds	1
   873  000013                     ___xxtofl@exp:
   874                           	opt callstack 0
   875                           
   876                           ; 1 bytes @ 0x12
   877  000013                     	ds	1
   878  000014                     ___xxtofl@arg:
   879                           	opt callstack 0
   880                           
   881                           ; 4 bytes @ 0x13
   882  000014                     	ds	2
   883  000016                     ___fladd@signs:
   884                           	opt callstack 0
   885                           
   886                           ; 1 bytes @ 0x15
   887  000016                     	ds	1
   888  000017                     ___fladd@aexp:
   889                           	opt callstack 0
   890                           
   891                           ; 1 bytes @ 0x16
   892  000017                     	ds	1
   893  000018                     ___fladd@bexp:
   894                           	opt callstack 0
   895                           
   896                           ; 1 bytes @ 0x17
   897  000018                     	ds	1
   898  000019                     ___fladd@grs:
   899                           	opt callstack 0
   900                           
   901                           ; 1 bytes @ 0x18
   902  000019                     	ds	1
   903  00001A                     ?___flmul:
   904                           	opt callstack 0
   905  00001A                     ___flmul@b:
   906                           	opt callstack 0
   907                           
   908                           ; 4 bytes @ 0x19
   909  00001A                     	ds	4
   910  00001E                     ___flmul@a:
   911                           	opt callstack 0
   912                           
   913                           ; 4 bytes @ 0x1D
   914  00001E                     	ds	4
   915  000022                     ??___flmul:
   916                           
   917                           ; 1 bytes @ 0x21
   918  000022                     	ds	4
   919  000026                     ___flmul@sign:
   920                           	opt callstack 0
   921                           
   922                           ; 1 bytes @ 0x25
   923  000026                     	ds	1
   924  000027                     ___flmul@grs:
   925                           	opt callstack 0
   926                           
   927                           ; 4 bytes @ 0x26
   928  000027                     	ds	4
   929  00002B                     ___flmul@aexp:
   930                           	opt callstack 0
   931                           
   932                           ; 1 bytes @ 0x2A
   933  00002B                     	ds	1
   934  00002C                     ___flmul@bexp:
   935                           	opt callstack 0
   936                           
   937                           ; 1 bytes @ 0x2B
   938  00002C                     	ds	1
   939  00002D                     ___flmul@prod:
   940                           	opt callstack 0
   941                           
   942                           ; 4 bytes @ 0x2C
   943  00002D                     	ds	4
   944  000031                     ___flmul@temp:
   945                           	opt callstack 0
   946                           
   947                           ; 2 bytes @ 0x30
   948  000031                     	ds	2
   949  000033                     ?___flsub:
   950                           	opt callstack 0
   951  000033                     ?_scalbnf:
   952                           	opt callstack 0
   953  000033                     ___flsub@b:
   954                           	opt callstack 0
   955  000033                     scalbnf@x:
   956                           	opt callstack 0
   957                           
   958                           ; 4 bytes @ 0x32
   959  000033                     	ds	4
   960  000037                     scalbnf@n:
   961                           	opt callstack 0
   962  000037                     ___flsub@a:
   963                           	opt callstack 0
   964                           
   965                           ; 4 bytes @ 0x36
   966  000037                     	ds	2
   967  000039                     ??_scalbnf:
   968                           
   969                           ; 1 bytes @ 0x38
   970  000039                     	ds	2
   971  00003B                     ?___fldiv:
   972                           	opt callstack 0
   973  00003B                     ___flge@ff1:
   974                           	opt callstack 0
   975  00003B                     ___fldiv@b:
   976                           	opt callstack 0
   977                           
   978                           ; 4 bytes @ 0x3A
   979  00003B                     	ds	2
   980  00003D                     scalbnf@u:
   981                           	opt callstack 0
   982                           
   983                           ; 4 bytes @ 0x3C
   984  00003D                     	ds	2
   985  00003F                     ___flge@ff2:
   986                           	opt callstack 0
   987  00003F                     ___fldiv@a:
   988                           	opt callstack 0
   989                           
   990                           ; 4 bytes @ 0x3E
   991  00003F                     	ds	2
   992  000041                     scalbnf@y:
   993                           	opt callstack 0
   994                           
   995                           ; 4 bytes @ 0x40
   996  000041                     	ds	2
   997  000043                     ??___fldiv:
   998  000043                     ??___flge:
   999                           
  1000                           ; 1 bytes @ 0x42
  1001  000043                     	ds	4
  1002  000047                     ?_sqrtf:
  1003                           	opt callstack 0
  1004  000047                     sqrtf@x:
  1005                           	opt callstack 0
  1006                           
  1007                           ; 4 bytes @ 0x46
  1008  000047                     	ds	4
  1009  00004B                     ___fltol@sign1:
  1010                           	opt callstack 0
  1011                           
  1012                           ; 1 bytes @ 0x4A
  1013  00004B                     	ds	1
  1014  00004C                     ___fltol@exp1:
  1015                           	opt callstack 0
  1016                           
  1017                           ; 1 bytes @ 0x4B
  1018  00004C                     	ds	1
  1019  00004D                     
  1020                           ; 1 bytes @ 0x4C
  1021 ;;
  1022 ;;Main: autosize = 0, tempsize = 0, incstack = 0, save=0
  1023 ;;
  1024 ;; *************** function _main *****************
  1025 ;; Defined at:
  1026 ;;		line 14 in file "main.c"
  1027 ;; Parameters:    Size  Location     Type
  1028 ;;		None
  1029 ;; Auto vars:     Size  Location     Type
  1030 ;;		None
  1031 ;; Return value:  Size  Location     Type
  1032 ;;                  1    wreg      void 
  1033 ;; Registers used:
  1034 ;;		wreg, status,2, status,0, tblptrl, tblptrh, tblptru, prodl, prodh, cstack
  1035 ;; Tracked objects:
  1036 ;;		On entry : 0/0
  1037 ;;		On exit  : 0/0
  1038 ;;		Unchanged: 0/0
  1039 ;; Data sizes:     COMRAM   BANK0   BANK1   BANK2   BANK3   BANK4   BANK5   BANK6   BANK7   BANK8   BANK9  BANK10  BANK1
      +1  BANK12  BANK13  BANK14  BANK15
  1040 ;;      Params:         0       0       0       0       0       0       0       0       0       0       0       0       
      +0       0       0       0       0
  1041 ;;      Locals:         0       0       0       0       0       0       0       0       0       0       0       0       
      +0       0       0       0       0
  1042 ;;      Temps:          0       0       0       0       0       0       0       0       0       0       0       0       
      +0       0       0       0       0
  1043 ;;      Totals:         0       0       0       0       0       0       0       0       0       0       0       0       
      +0       0       0       0       0
  1044 ;;Total ram usage:        0 bytes
  1045 ;; Hardware stack levels required when called:    8
  1046 ;; This function calls:
  1047 ;;		_FSM
  1048 ;;		_interrupt_init
  1049 ;;		_osc_init
  1050 ;;		_pin_init
  1051 ;;		_timer0_init
  1052 ;; This function is called by:
  1053 ;;		Startup code after reset
  1054 ;; This function uses a non-reentrant model
  1055 ;;
  1056                           
  1057                           	psect	text0
  1058  0059B2                     __ptext0:
  1059                           	opt callstack 0
  1060  0059B2                     _main:
  1061                           	opt callstack 23
  1062  0059B2                     
  1063                           ;main.c: 15:     pin_init();
  1064  0059B2  ECE7  F02C         	call	_pin_init	;wreg free
  1065  0059B6                     
  1066                           ;main.c: 16:     timer0_init();
  1067  0059B6  ECF0  F02C         	call	_timer0_init	;wreg free
  1068  0059BA                     
  1069                           ;main.c: 17:     interrupt_init();
  1070  0059BA  EC01  F02D         	call	_interrupt_init	;wreg free
  1071  0059BE                     
  1072                           ;main.c: 18:     osc_init();
  1073  0059BE  ECF7  F02C         	call	_osc_init	;wreg free
  1074  0059C2                     l5005:
  1075                           
  1076                           ;main.c: 21:         FSM();
  1077  0059C2  ECFC  F025         	call	_FSM	;wreg free
  1078  0059C6  EFE1  F02C         	goto	l5005
  1079  0059CA  EF07  F000         	goto	start
  1080  0059CE                     __end_of_main:
  1081                           	opt callstack 0
  1082                           
  1083 ;; *************** function _timer0_init *****************
  1084 ;; Defined at:
  1085 ;;		line 19 in file "timer_manager.c"
  1086 ;; Parameters:    Size  Location     Type
  1087 ;;		None
  1088 ;; Auto vars:     Size  Location     Type
  1089 ;;		None
  1090 ;; Return value:  Size  Location     Type
  1091 ;;                  1    wreg      void 
  1092 ;; Registers used:
  1093 ;;		wreg, status,2, status,0, tblptrl, tblptrh, tblptru, prodl, prodh, cstack
  1094 ;; Tracked objects:
  1095 ;;		On entry : 0/0
  1096 ;;		On exit  : 0/0
  1097 ;;		Unchanged: 0/0
  1098 ;; Data sizes:     COMRAM   BANK0   BANK1   BANK2   BANK3   BANK4   BANK5   BANK6   BANK7   BANK8   BANK9  BANK10  BANK1
      +1  BANK12  BANK13  BANK14  BANK15
  1099 ;;      Params:         0       0       0       0       0       0       0       0       0       0       0       0       
      +0       0       0       0       0
  1100 ;;      Locals:         0       0       0       0       0       0       0       0       0       0       0       0       
      +0       0       0       0       0
  1101 ;;      Temps:          0       0       0       0       0       0       0       0       0       0       0       0       
      +0       0       0       0       0
  1102 ;;      Totals:         0       0       0       0       0       0       0       0       0       0       0       0       
      +0       0       0       0       0
  1103 ;;Total ram usage:        0 bytes
  1104 ;; Hardware stack levels used:    1
  1105 ;; Hardware stack levels required when called:    7
  1106 ;; This function calls:
  1107 ;;		_preCalculate
  1108 ;; This function is called by:
  1109 ;;		_main
  1110 ;; This function uses a non-reentrant model
  1111 ;;
  1112                           
  1113                           	psect	text1
  1114  0059E0                     __ptext1:
  1115                           	opt callstack 0
  1116  0059E0                     _timer0_init:
  1117                           	opt callstack 23
  1118  0059E0                     
  1119                           ;timer_manager.c: 20:     preCalculate();
  1120  0059E0  ECCB  F02A         	call	_preCalculate	;wreg free
  1121  0059E4                     
  1122                           ;timer_manager.c: 21:     TMR0L = counter_low;
  1123  0059E4  C0BA  FFD6         	movff	_counter_low,4054	;volatile
  1124  0059E8                     
  1125                           ;timer_manager.c: 22:     TMR0H = counter_high;
  1126  0059E8  C0B8  FFD7         	movff	_counter_high,4055	;volatile
  1127  0059EC  0012               	return		;funcret
  1128  0059EE                     __end_of_timer0_init:
  1129                           	opt callstack 0
  1130                           
  1131 ;; *************** function _preCalculate *****************
  1132 ;; Defined at:
  1133 ;;		line 5 in file "timer_manager.c"
  1134 ;; Parameters:    Size  Location     Type
  1135 ;;		None
  1136 ;; Auto vars:     Size  Location     Type
  1137 ;;  temp            2   78[BANK0 ] int 
  1138 ;;  count_scaled    2   80[BANK0 ] int 
  1139 ;;  count           2   76[BANK0 ] int 
  1140 ;; Return value:  Size  Location     Type
  1141 ;;                  1    wreg      void 
  1142 ;; Registers used:
  1143 ;;		wreg, status,2, status,0, tblptrl, tblptrh, tblptru, prodl, prodh, cstack
  1144 ;; Tracked objects:
  1145 ;;		On entry : 0/0
  1146 ;;		On exit  : 0/0
  1147 ;;		Unchanged: 0/0
  1148 ;; Data sizes:     COMRAM   BANK0   BANK1   BANK2   BANK3   BANK4   BANK5   BANK6   BANK7   BANK8   BANK9  BANK10  BANK1
      +1  BANK12  BANK13  BANK14  BANK15
  1149 ;;      Params:         0       0       0       0       0       0       0       0       0       0       0       0       
      +0       0       0       0       0
  1150 ;;      Locals:         0      10       0       0       0       0       0       0       0       0       0       0       
      +0       0       0       0       0
  1151 ;;      Temps:          0       2       0       0       0       0       0       0       0       0       0       0       
      +0       0       0       0       0
  1152 ;;      Totals:         0      12       0       0       0       0       0       0       0       0       0       0       
      +0       0       0       0       0
  1153 ;;Total ram usage:       12 bytes
  1154 ;; Hardware stack levels used:    1
  1155 ;; Hardware stack levels required when called:    6
  1156 ;; This function calls:
  1157 ;;		___awdiv
  1158 ;;		___flmul
  1159 ;;		___fltol
  1160 ;;		_powf
  1161 ;; This function is called by:
  1162 ;;		_timer0_init
  1163 ;; This function uses a non-reentrant model
  1164 ;;
  1165                           
  1166                           	psect	text2
  1167  005596                     __ptext2:
  1168                           	opt callstack 0
  1169  005596                     _preCalculate:
  1170                           	opt callstack 23
  1171  005596                     
  1172                           ;timer_manager.c: 6:     T0CON = 0b11100111;
  1173  005596  0EE7               	movlw	231
  1174  005598  6ED5               	movwf	213,c	;volatile
  1175  00559A                     
  1176                           ;timer_manager.c: 7:     int count = 10 * 2 * powf(10,3);
  1177  00559A  0E00               	movlw	0
  1178  00559C  0100               	movlb	0	; () banked
  1179  00559E  6F91               	movwf	powf@y& (0+255),b
  1180  0055A0  0E00               	movlw	0
  1181  0055A2  6F92               	movwf	(powf@y+1)& (0+255),b
  1182  0055A4  0E40               	movlw	64
  1183  0055A6  6F93               	movwf	(powf@y+2)& (0+255),b
  1184  0055A8  0E40               	movlw	64
  1185  0055AA  6F94               	movwf	(powf@y+3)& (0+255),b
  1186  0055AC  0E00               	movlw	0
  1187  0055AE  6F8D               	movwf	powf@x& (0+255),b
  1188  0055B0  0E00               	movlw	0
  1189  0055B2  6F8E               	movwf	(powf@x+1)& (0+255),b
  1190  0055B4  0E20               	movlw	32
  1191  0055B6  6F8F               	movwf	(powf@x+2)& (0+255),b
  1192  0055B8  0E41               	movlw	65
  1193  0055BA  6F90               	movwf	(powf@x+3)& (0+255),b
  1194  0055BC  EC40  F008         	call	_powf	;wreg free
  1195  0055C0  C08D  F0A8         	movff	?_powf,_preCalculate$1389
  1196  0055C4  C08E  F0A9         	movff	?_powf+1,_preCalculate$1389+1
  1197  0055C8  C08F  F0AA         	movff	?_powf+2,_preCalculate$1389+2
  1198  0055CC  C090  F0AB         	movff	?_powf+3,_preCalculate$1389+3
  1199  0055D0                     
  1200                           ;timer_manager.c: 7:     int count = 10 * 2 * powf(10,3);
  1201  0055D0  0E00               	movlw	0
  1202  0055D2  6E1E               	movwf	___flmul@a^0,c
  1203  0055D4  0E00               	movlw	0
  1204  0055D6  6E1F               	movwf	(___flmul@a+1)^0,c
  1205  0055D8  0EA0               	movlw	160
  1206  0055DA  6E20               	movwf	(___flmul@a+2)^0,c
  1207  0055DC  0E41               	movlw	65
  1208  0055DE  6E21               	movwf	(___flmul@a+3)^0,c
  1209  0055E0  C0A8  F01A         	movff	_preCalculate$1389,___flmul@b
  1210  0055E4  C0A9  F01B         	movff	_preCalculate$1389+1,___flmul@b+1
  1211  0055E8  C0AA  F01C         	movff	_preCalculate$1389+2,___flmul@b+2
  1212  0055EC  C0AB  F01D         	movff	_preCalculate$1389+3,___flmul@b+3
  1213  0055F0  EC19  F022         	call	___flmul	;wreg free
  1214  0055F4  C01A  F09E         	movff	?___flmul,___fltol@f1
  1215  0055F8  C01B  F09F         	movff	?___flmul+1,___fltol@f1+1
  1216  0055FC  C01C  F0A0         	movff	?___flmul+2,___fltol@f1+2
  1217  005600  C01D  F0A1         	movff	?___flmul+3,___fltol@f1+3
  1218  005604  ECC5  F029         	call	___fltol	;wreg free
  1219  005608  C09E  F0AC         	movff	?___fltol,preCalculate@count
  1220  00560C  C09F  F0AD         	movff	?___fltol+1,preCalculate@count+1
  1221  005610                     
  1222                           ;timer_manager.c: 8:     int count_scaled = count / 256;
  1223  005610  C0AC  F00A         	movff	preCalculate@count,___awdiv@dividend
  1224  005614  C0AD  F00B         	movff	preCalculate@count+1,___awdiv@dividend+1
  1225  005618  0E01               	movlw	1
  1226  00561A  6E0D               	movwf	(___awdiv@divisor+1)^0,c
  1227  00561C  0E00               	movlw	0
  1228  00561E  6E0C               	movwf	___awdiv@divisor^0,c
  1229  005620  EC42  F02B         	call	___awdiv	;wreg free
  1230  005624  C00A  F0B0         	movff	?___awdiv,preCalculate@count_scaled
  1231  005628  C00B  F0B1         	movff	?___awdiv+1,preCalculate@count_scaled+1
  1232  00562C                     
  1233                           ;timer_manager.c: 9:     if(count_scaled < 256) {
  1234  00562C  0100               	movlb	0	; () banked
  1235  00562E  BFB1               	btfsc	(preCalculate@count_scaled+1)& (0+255),7,b
  1236  005630  EF22  F02B         	goto	u5510
  1237  005634  05B1               	decf	(preCalculate@count_scaled+1)& (0+255),w,b
  1238  005636  B0D8               	btfsc	status,0,c
  1239  005638  EF20  F02B         	goto	u5511
  1240  00563C  EF22  F02B         	goto	u5510
  1241  005640                     u5511:
  1242  005640  EF2C  F02B         	goto	l295
  1243  005644                     u5510:
  1244  005644                     
  1245                           ; BSR set to: 0
  1246                           ;timer_manager.c: 10:         counter_low = 255 - count_scaled;
  1247  005644  51B0               	movf	preCalculate@count_scaled& (0+255),w,b
  1248  005646  08FF               	sublw	255
  1249  005648  6FBA               	movwf	_counter_low& (0+255),b
  1250  00564A  51B1               	movf	(preCalculate@count_scaled+1)& (0+255),w,b
  1251  00564C  A0D8               	btfss	status,0,c
  1252  00564E  2AE8               	incf	wreg,f,c
  1253  005650  0800               	sublw	0
  1254  005652  6FBB               	movwf	(_counter_low+1)& (0+255),b
  1255                           
  1256                           ;timer_manager.c: 11:     } else {
  1257  005654  EF41  F02B         	goto	l297
  1258  005658                     l295:
  1259                           
  1260                           ; BSR set to: 0
  1261                           ;timer_manager.c: 12:         T0CONbits.T08BIT = 0;
  1262  005658  9CD5               	bcf	213,6,c	;volatile
  1263  00565A                     
  1264                           ; BSR set to: 0
  1265                           ;timer_manager.c: 13:         int temp = 65535 - count_scaled;
  1266  00565A  51B0               	movf	preCalculate@count_scaled& (0+255),w,b
  1267  00565C  08FF               	sublw	255
  1268  00565E  6FAE               	movwf	preCalculate@temp& (0+255),b
  1269  005660  51B1               	movf	(preCalculate@count_scaled+1)& (0+255),w,b
  1270  005662  A0D8               	btfss	status,0,c
  1271  005664  2AE8               	incf	wreg,f,c
  1272  005666  08FF               	sublw	255
  1273  005668  6FAF               	movwf	(preCalculate@temp+1)& (0+255),b
  1274  00566A                     
  1275                           ; BSR set to: 0
  1276                           ;timer_manager.c: 14:         counter_low = temp % 256;
  1277  00566A  51AE               	movf	preCalculate@temp& (0+255),w,b
  1278  00566C  6FBA               	movwf	_counter_low& (0+255),b
  1279  00566E  6BBB               	clrf	(_counter_low+1)& (0+255),b
  1280  005670                     
  1281                           ; BSR set to: 0
  1282                           ;timer_manager.c: 15:         counter_high = (temp - counter_low) / 256;
  1283  005670  51BA               	movf	_counter_low& (0+255),w,b
  1284  005672  5DAE               	subwf	preCalculate@temp& (0+255),w,b
  1285  005674  6FA6               	movwf	??_preCalculate& (0+255),b
  1286  005676  51BB               	movf	(_counter_low+1)& (0+255),w,b
  1287  005678  59AF               	subwfb	(preCalculate@temp+1)& (0+255),w,b
  1288  00567A  6FA7               	movwf	(??_preCalculate+1)& (0+255),b
  1289  00567C  51A7               	movf	(??_preCalculate+1)& (0+255),w,b
  1290  00567E  6FB8               	movwf	_counter_high& (0+255),b
  1291  005680  6BB9               	clrf	(_counter_high+1)& (0+255),b
  1292  005682                     l297:
  1293                           
  1294                           ; BSR set to: 0
  1295  005682  0012               	return		;funcret
  1296  005684                     __end_of_preCalculate:
  1297                           	opt callstack 0
  1298                           
  1299 ;; *************** function _powf *****************
  1300 ;; Defined at:
  1301 ;;		line 52 in file "C:\Program Files (x86)\Microchip\xc8\v2.10\pic\sources\c99\common\powf.c"
  1302 ;; Parameters:    Size  Location     Type
  1303 ;;  x               4   45[BANK0 ] float 
  1304 ;;  y               4   49[BANK0 ] float 
  1305 ;; Auto vars:     Size  Location     Type
  1306 ;;  s2              4  140[BANK1 ] float 
  1307 ;;  s_h             4  108[BANK1 ] float 
  1308 ;;  t_h             4  104[BANK1 ] float 
  1309 ;;  t_l             4   52[BANK1 ] float 
  1310 ;;  s_l             4   48[BANK1 ] float 
  1311 ;;  __xc8_float_    4  184[BANK1 ] struct .
  1312 ;;  z               4  180[BANK1 ] float 
  1313 ;;  t               4  176[BANK1 ] float 
  1314 ;;  j               4  172[BANK1 ] long 
  1315 ;;  ix              4  168[BANK1 ] long 
  1316 ;;  k               4  160[BANK1 ] long 
  1317 ;;  p_h             4  156[BANK1 ] float 
  1318 ;;  is              4  148[BANK1 ] long 
  1319 ;;  iy              4  144[BANK1 ] long 
  1320 ;;  sn              4  136[BANK1 ] float 
  1321 ;;  t1              4  132[BANK1 ] float 
  1322 ;;  n               4  128[BANK1 ] long 
  1323 ;;  hy              4  124[BANK1 ] long 
  1324 ;;  v               4  120[BANK1 ] float 
  1325 ;;  u               4  116[BANK1 ] float 
  1326 ;;  ax              4  112[BANK1 ] float 
  1327 ;;  p_l             4  100[BANK1 ] float 
  1328 ;;  hx              4   96[BANK1 ] long 
  1329 ;;  s               4   92[BANK1 ] float 
  1330 ;;  yisint          4   80[BANK1 ] long 
  1331 ;;  r               4   76[BANK1 ] float 
  1332 ;;  w               4   68[BANK1 ] float 
  1333 ;;  i               4   44[BANK1 ] long 
  1334 ;;  y1              4   40[BANK1 ] float 
  1335 ;;  z_l             4   36[BANK1 ] float 
  1336 ;;  z_h             4   32[BANK1 ] float 
  1337 ;;  t2              4   28[BANK1 ] float 
  1338 ;; Return value:  Size  Location     Type
  1339 ;;                  4   45[BANK0 ] float 
  1340 ;; Registers used:
  1341 ;;		wreg, status,2, status,0, tblptrl, tblptrh, tblptru, prodl, prodh, cstack
  1342 ;; Tracked objects:
  1343 ;;		On entry : 0/0
  1344 ;;		On exit  : 0/0
  1345 ;;		Unchanged: 0/0
  1346 ;; Data sizes:     COMRAM   BANK0   BANK1   BANK2   BANK3   BANK4   BANK5   BANK6   BANK7   BANK8   BANK9  BANK10  BANK1
      +1  BANK12  BANK13  BANK14  BANK15
  1347 ;;      Params:         0       8       0       0       0       0       0       0       0       0       0       0       
      +0       0       0       0       0
  1348 ;;      Locals:         0       0     188       0       0       0       0       0       0       0       0       0       
      +0       0       0       0       0
  1349 ;;      Temps:          0       9       0       0       0       0       0       0       0       0       0       0       
      +0       0       0       0       0
  1350 ;;      Totals:         0      17     188       0       0       0       0       0       0       0       0       0       
      +0       0       0       0       0
  1351 ;;Total ram usage:      205 bytes
  1352 ;; Hardware stack levels used:    1
  1353 ;; Hardware stack levels required when called:    5
  1354 ;; This function calls:
  1355 ;;		___fladd
  1356 ;;		___fldiv
  1357 ;;		___flge
  1358 ;;		___flmul
  1359 ;;		___flneg
  1360 ;;		___flsub
  1361 ;;		___xxtofl
  1362 ;;		_fabsf
  1363 ;;		_scalbnf
  1364 ;;		_sqrtf
  1365 ;; This function is called by:
  1366 ;;		_preCalculate
  1367 ;; This function uses a non-reentrant model
  1368 ;;
  1369                           
  1370                           	psect	text3
  1371  001080                     __ptext3:
  1372                           	opt callstack 0
  1373  001080                     _powf:
  1374                           	opt callstack 23
  1375  001080  C08D  F1B8         	movff	powf@x,powf@__xc8_float_word
  1376  001084  C08E  F1B9         	movff	powf@x+1,powf@__xc8_float_word+1
  1377  001088  C08F  F1BA         	movff	powf@x+2,powf@__xc8_float_word+2
  1378  00108C  C090  F1BB         	movff	powf@x+3,powf@__xc8_float_word+3
  1379  001090  C1B8  F160         	movff	powf@__xc8_float_word,powf@hx
  1380  001094  C1B9  F161         	movff	powf@__xc8_float_word+1,powf@hx+1
  1381  001098  C1BA  F162         	movff	powf@__xc8_float_word+2,powf@hx+2
  1382  00109C  C1BB  F163         	movff	powf@__xc8_float_word+3,powf@hx+3
  1383  0010A0  C091  F1B8         	movff	powf@y,powf@__xc8_float_word
  1384  0010A4  C092  F1B9         	movff	powf@y+1,powf@__xc8_float_word+1
  1385  0010A8  C093  F1BA         	movff	powf@y+2,powf@__xc8_float_word+2
  1386  0010AC  C094  F1BB         	movff	powf@y+3,powf@__xc8_float_word+3
  1387  0010B0  C1B8  F17C         	movff	powf@__xc8_float_word,powf@hy
  1388  0010B4  C1B9  F17D         	movff	powf@__xc8_float_word+1,powf@hy+1
  1389  0010B8  C1BA  F17E         	movff	powf@__xc8_float_word+2,powf@hy+2
  1390  0010BC  C1BB  F17F         	movff	powf@__xc8_float_word+3,powf@hy+3
  1391  0010C0  0EFF               	movlw	255
  1392  0010C2  0101               	movlb	1	; () banked
  1393  0010C4  1560               	andwf	powf@hx& (0+255),w,b
  1394  0010C6  6FA8               	movwf	powf@ix& (0+255),b
  1395  0010C8  0EFF               	movlw	255
  1396  0010CA  1561               	andwf	(powf@hx+1)& (0+255),w,b
  1397  0010CC  6FA9               	movwf	(powf@ix+1)& (0+255),b
  1398  0010CE  0EFF               	movlw	255
  1399  0010D0  1562               	andwf	(powf@hx+2)& (0+255),w,b
  1400  0010D2  6FAA               	movwf	(powf@ix+2)& (0+255),b
  1401  0010D4  0E7F               	movlw	127
  1402  0010D6  1563               	andwf	(powf@hx+3)& (0+255),w,b
  1403  0010D8  6FAB               	movwf	(powf@ix+3)& (0+255),b
  1404  0010DA  0EFF               	movlw	255
  1405  0010DC  157C               	andwf	powf@hy& (0+255),w,b
  1406  0010DE  6F90               	movwf	powf@iy& (0+255),b
  1407  0010E0  0EFF               	movlw	255
  1408  0010E2  157D               	andwf	(powf@hy+1)& (0+255),w,b
  1409  0010E4  6F91               	movwf	(powf@iy+1)& (0+255),b
  1410  0010E6  0EFF               	movlw	255
  1411  0010E8  157E               	andwf	(powf@hy+2)& (0+255),w,b
  1412  0010EA  6F92               	movwf	(powf@iy+2)& (0+255),b
  1413  0010EC  0E7F               	movlw	127
  1414  0010EE  157F               	andwf	(powf@hy+3)& (0+255),w,b
  1415  0010F0  6F93               	movwf	(powf@iy+3)& (0+255),b
  1416  0010F2  5190               	movf	powf@iy& (0+255),w,b
  1417  0010F4  1191               	iorwf	(powf@iy+1)& (0+255),w,b
  1418  0010F6  1192               	iorwf	(powf@iy+2)& (0+255),w,b
  1419  0010F8  1193               	iorwf	(powf@iy+3)& (0+255),w,b
  1420  0010FA  A4D8               	btfss	status,2,c
  1421  0010FC  EF82  F008         	goto	u4941
  1422  001100  EF84  F008         	goto	u4940
  1423  001104                     u4941:
  1424  001104  EF8F  F008         	goto	l4531
  1425  001108                     u4940:
  1426  001108                     
  1427                           ; BSR set to: 1
  1428  001108  0E00               	movlw	0
  1429  00110A  0100               	movlb	0	; () banked
  1430  00110C  6F8D               	movwf	?_powf& (0+255),b
  1431  00110E  0E00               	movlw	0
  1432  001110  6F8E               	movwf	(?_powf+1)& (0+255),b
  1433  001112  0E80               	movlw	128
  1434  001114  6F8F               	movwf	(?_powf+2)& (0+255),b
  1435  001116  0E3F               	movlw	63
  1436  001118  6F90               	movwf	(?_powf+3)& (0+255),b
  1437  00111A  EF58  F01D         	goto	l1176
  1438  00111E                     l4531:
  1439                           
  1440                           ; BSR set to: 1
  1441  00111E  0E80               	movlw	128
  1442  001120  1962               	xorwf	(powf@hx+2)& (0+255),w,b
  1443  001122  E109               	bnz	u4951
  1444  001124  0E3F               	movlw	63
  1445  001126  1963               	xorwf	(powf@hx+3)& (0+255),w,b
  1446  001128  1160               	iorwf	powf@hx& (0+255),w,b
  1447  00112A  1161               	iorwf	(powf@hx+1)& (0+255),w,b
  1448  00112C  A4D8               	btfss	status,2,c
  1449  00112E  EF9B  F008         	goto	u4951
  1450  001132  EF9D  F008         	goto	u4950
  1451  001136                     u4951:
  1452  001136  EFA8  F008         	goto	l4537
  1453  00113A                     u4950:
  1454  00113A                     
  1455                           ; BSR set to: 1
  1456  00113A  0E00               	movlw	0
  1457  00113C  0100               	movlb	0	; () banked
  1458  00113E  6F8D               	movwf	?_powf& (0+255),b
  1459  001140  0E00               	movlw	0
  1460  001142  6F8E               	movwf	(?_powf+1)& (0+255),b
  1461  001144  0E80               	movlw	128
  1462  001146  6F8F               	movwf	(?_powf+2)& (0+255),b
  1463  001148  0E3F               	movlw	63
  1464  00114A  6F90               	movwf	(?_powf+3)& (0+255),b
  1465  00114C  EF58  F01D         	goto	l1176
  1466  001150                     l4537:
  1467                           
  1468                           ; BSR set to: 1
  1469  001150  BFAB               	btfsc	(powf@ix+3)& (0+255),7,b
  1470  001152  EFB9  F008         	goto	u4960
  1471  001156  05A8               	decf	powf@ix& (0+255),w,b
  1472  001158  0E00               	movlw	0
  1473  00115A  59A9               	subwfb	(powf@ix+1)& (0+255),w,b
  1474  00115C  0E80               	movlw	128
  1475  00115E  59AA               	subwfb	(powf@ix+2)& (0+255),w,b
  1476  001160  0E7F               	movlw	127
  1477  001162  59AB               	subwfb	(powf@ix+3)& (0+255),w,b
  1478  001164  B0D8               	btfsc	status,0,c
  1479  001166  EFB7  F008         	goto	u4961
  1480  00116A  EFB9  F008         	goto	u4960
  1481  00116E                     u4961:
  1482  00116E  EFCA  F008         	goto	l4541
  1483  001172                     u4960:
  1484  001172                     
  1485                           ; BSR set to: 1
  1486  001172  BF93               	btfsc	(powf@iy+3)& (0+255),7,b
  1487  001174  EFC8  F008         	goto	u4971
  1488  001178  0590               	decf	powf@iy& (0+255),w,b
  1489  00117A  0E00               	movlw	0
  1490  00117C  5991               	subwfb	(powf@iy+1)& (0+255),w,b
  1491  00117E  0E80               	movlw	128
  1492  001180  5992               	subwfb	(powf@iy+2)& (0+255),w,b
  1493  001182  0E7F               	movlw	127
  1494  001184  5993               	subwfb	(powf@iy+3)& (0+255),w,b
  1495  001186  A0D8               	btfss	status,0,c
  1496  001188  EFC8  F008         	goto	u4971
  1497  00118C  EFCA  F008         	goto	u4970
  1498  001190                     u4971:
  1499  001190  EFE6  F008         	goto	l4545
  1500  001194                     u4970:
  1501  001194                     l4541:
  1502                           
  1503                           ; BSR set to: 1
  1504  001194  C08D  F00A         	movff	powf@x,___fladd@b
  1505  001198  C08E  F00B         	movff	powf@x+1,___fladd@b+1
  1506  00119C  C08F  F00C         	movff	powf@x+2,___fladd@b+2
  1507  0011A0  C090  F00D         	movff	powf@x+3,___fladd@b+3
  1508  0011A4  C091  F00E         	movff	powf@y,___fladd@a
  1509  0011A8  C092  F00F         	movff	powf@y+1,___fladd@a+1
  1510  0011AC  C093  F010         	movff	powf@y+2,___fladd@a+2
  1511  0011B0  C094  F011         	movff	powf@y+3,___fladd@a+3
  1512  0011B4  ECB9  F01F         	call	___fladd	;wreg free
  1513  0011B8  C00A  F08D         	movff	?___fladd,?_powf
  1514  0011BC  C00B  F08E         	movff	?___fladd+1,?_powf+1
  1515  0011C0  C00C  F08F         	movff	?___fladd+2,?_powf+2
  1516  0011C4  C00D  F090         	movff	?___fladd+3,?_powf+3
  1517  0011C8  EF58  F01D         	goto	l1176
  1518  0011CC                     l4545:
  1519                           
  1520                           ; BSR set to: 1
  1521  0011CC  0E00               	movlw	0
  1522  0011CE  6F50               	movwf	powf@yisint& (0+255),b
  1523  0011D0  0E00               	movlw	0
  1524  0011D2  6F51               	movwf	(powf@yisint+1)& (0+255),b
  1525  0011D4  0E00               	movlw	0
  1526  0011D6  6F52               	movwf	(powf@yisint+2)& (0+255),b
  1527  0011D8  0E00               	movlw	0
  1528  0011DA  6F53               	movwf	(powf@yisint+3)& (0+255),b
  1529  0011DC                     
  1530                           ; BSR set to: 1
  1531  0011DC  BF63               	btfsc	(powf@hx+3)& (0+255),7,b
  1532  0011DE  EFF5  F008         	goto	u4980
  1533  0011E2  EFF3  F008         	goto	u4981
  1534  0011E6                     u4981:
  1535  0011E6  EFC1  F009         	goto	l1181
  1536  0011EA                     u4980:
  1537  0011EA                     
  1538                           ; BSR set to: 1
  1539  0011EA  BF93               	btfsc	(powf@iy+3)& (0+255),7,b
  1540  0011EC  EF01  F009         	goto	u4991
  1541  0011F0  0E80               	movlw	128
  1542  0011F2  5D92               	subwf	(powf@iy+2)& (0+255),w,b
  1543  0011F4  0E4B               	movlw	75
  1544  0011F6  5993               	subwfb	(powf@iy+3)& (0+255),w,b
  1545  0011F8  A0D8               	btfss	status,0,c
  1546  0011FA  EF01  F009         	goto	u4991
  1547  0011FE  EF03  F009         	goto	u4990
  1548  001202                     u4991:
  1549  001202  EF0D  F009         	goto	l4553
  1550  001206                     u4990:
  1551  001206                     
  1552                           ; BSR set to: 1
  1553  001206  0E02               	movlw	2
  1554  001208  6F50               	movwf	powf@yisint& (0+255),b
  1555  00120A  0E00               	movlw	0
  1556  00120C  6F51               	movwf	(powf@yisint+1)& (0+255),b
  1557  00120E  0E00               	movlw	0
  1558  001210  6F52               	movwf	(powf@yisint+2)& (0+255),b
  1559  001212  0E00               	movlw	0
  1560  001214  6F53               	movwf	(powf@yisint+3)& (0+255),b
  1561  001216  EFC1  F009         	goto	l1181
  1562  00121A                     l4553:
  1563                           
  1564                           ; BSR set to: 1
  1565  00121A  BF93               	btfsc	(powf@iy+3)& (0+255),7,b
  1566  00121C  EF19  F009         	goto	u5001
  1567  001220  0E80               	movlw	128
  1568  001222  5D92               	subwf	(powf@iy+2)& (0+255),w,b
  1569  001224  0E3F               	movlw	63
  1570  001226  5993               	subwfb	(powf@iy+3)& (0+255),w,b
  1571  001228  A0D8               	btfss	status,0,c
  1572  00122A  EF19  F009         	goto	u5001
  1573  00122E  EF1B  F009         	goto	u5000
  1574  001232                     u5001:
  1575  001232  EFC1  F009         	goto	l1181
  1576  001236                     u5000:
  1577  001236                     
  1578                           ; BSR set to: 1
  1579  001236  0E17               	movlw	23
  1580  001238  0100               	movlb	0	; () banked
  1581  00123A  6F95               	movwf	??_powf& (0+255),b
  1582  00123C  C190  F096         	movff	powf@iy,??_powf+1
  1583  001240  C191  F097         	movff	powf@iy+1,??_powf+2
  1584  001244  C192  F098         	movff	powf@iy+2,??_powf+3
  1585  001248  C193  F099         	movff	powf@iy+3,??_powf+4
  1586  00124C                     u5015:
  1587  00124C  6795               	tstfsz	??_powf& (0+255),b
  1588  00124E  EF2B  F009         	goto	u5016
  1589  001252  EF33  F009         	goto	u5017
  1590  001256                     u5016:
  1591  001256  3599               	rlcf	(??_powf+4)& (0+255),w,b
  1592  001258  3399               	rrcf	(??_powf+4)& (0+255),f,b
  1593  00125A  3398               	rrcf	(??_powf+3)& (0+255),f,b
  1594  00125C  3397               	rrcf	(??_powf+2)& (0+255),f,b
  1595  00125E  3396               	rrcf	(??_powf+1)& (0+255),f,b
  1596  001260  2F95               	decfsz	??_powf& (0+255),f,b
  1597  001262  EF26  F009         	goto	u5015
  1598  001266                     u5017:
  1599  001266  0E81               	movlw	129
  1600  001268  0100               	movlb	0	; () banked
  1601  00126A  2596               	addwf	(??_powf+1)& (0+255),w,b
  1602  00126C  0101               	movlb	1	; () banked
  1603  00126E  6FA0               	movwf	powf@k& (0+255),b
  1604  001270  0EFF               	movlw	255
  1605  001272  0100               	movlb	0	; () banked
  1606  001274  2197               	addwfc	(??_powf+2)& (0+255),w,b
  1607  001276  0101               	movlb	1	; () banked
  1608  001278  6FA1               	movwf	(powf@k+1)& (0+255),b
  1609  00127A  0EFF               	movlw	255
  1610  00127C  0100               	movlb	0	; () banked
  1611  00127E  2198               	addwfc	(??_powf+3)& (0+255),w,b
  1612  001280  0101               	movlb	1	; () banked
  1613  001282  6FA2               	movwf	(powf@k+2)& (0+255),b
  1614  001284  0EFF               	movlw	255
  1615  001286  0100               	movlb	0	; () banked
  1616  001288  2199               	addwfc	(??_powf+4)& (0+255),w,b
  1617  00128A  0101               	movlb	1	; () banked
  1618  00128C  6FA3               	movwf	(powf@k+3)& (0+255),b
  1619  00128E  51A0               	movf	powf@k& (0+255),w,b
  1620  001290  0817               	sublw	23
  1621  001292  0100               	movlb	0	; () banked
  1622  001294  6F95               	movwf	??_powf& (0+255),b
  1623  001296  C190  F096         	movff	powf@iy,??_powf+1
  1624  00129A  C191  F097         	movff	powf@iy+1,??_powf+2
  1625  00129E  C192  F098         	movff	powf@iy+2,??_powf+3
  1626  0012A2  C193  F099         	movff	powf@iy+3,??_powf+4
  1627  0012A6                     u5025:
  1628  0012A6  6795               	tstfsz	??_powf& (0+255),b
  1629  0012A8  EF58  F009         	goto	u5026
  1630  0012AC  EF60  F009         	goto	u5027
  1631  0012B0                     u5026:
  1632  0012B0  3599               	rlcf	(??_powf+4)& (0+255),w,b
  1633  0012B2  3399               	rrcf	(??_powf+4)& (0+255),f,b
  1634  0012B4  3398               	rrcf	(??_powf+3)& (0+255),f,b
  1635  0012B6  3397               	rrcf	(??_powf+2)& (0+255),f,b
  1636  0012B8  3396               	rrcf	(??_powf+1)& (0+255),f,b
  1637  0012BA  2F95               	decfsz	??_powf& (0+255),f,b
  1638  0012BC  EF53  F009         	goto	u5025
  1639  0012C0                     u5027:
  1640  0012C0  C096  F1AC         	movff	??_powf+1,powf@j
  1641  0012C4  C097  F1AD         	movff	??_powf+2,powf@j+1
  1642  0012C8  C098  F1AE         	movff	??_powf+3,powf@j+2
  1643  0012CC  C099  F1AF         	movff	??_powf+4,powf@j+3
  1644  0012D0  0101               	movlb	1	; () banked
  1645  0012D2  51A0               	movf	powf@k& (0+255),w,b
  1646  0012D4  0817               	sublw	23
  1647  0012D6  0100               	movlb	0	; () banked
  1648  0012D8  6F95               	movwf	??_powf& (0+255),b
  1649  0012DA  C1AC  F096         	movff	powf@j,??_powf+1
  1650  0012DE  C1AD  F097         	movff	powf@j+1,??_powf+2
  1651  0012E2  C1AE  F098         	movff	powf@j+2,??_powf+3
  1652  0012E6  C1AF  F099         	movff	powf@j+3,??_powf+4
  1653  0012EA  2B95               	incf	??_powf& (0+255),f,b
  1654  0012EC  EF7D  F009         	goto	u5030
  1655  0012F0                     u5035:
  1656  0012F0  90D8               	bcf	status,0,c
  1657  0012F2  3796               	rlcf	(??_powf+1)& (0+255),f,b
  1658  0012F4  3797               	rlcf	(??_powf+2)& (0+255),f,b
  1659  0012F6  3798               	rlcf	(??_powf+3)& (0+255),f,b
  1660  0012F8  3799               	rlcf	(??_powf+4)& (0+255),f,b
  1661  0012FA                     u5030:
  1662  0012FA  2F95               	decfsz	??_powf& (0+255),f,b
  1663  0012FC  EF78  F009         	goto	u5035
  1664  001300  0101               	movlb	1	; () banked
  1665  001302  5190               	movf	powf@iy& (0+255),w,b
  1666  001304  0100               	movlb	0	; () banked
  1667  001306  1996               	xorwf	(??_powf+1)& (0+255),w,b
  1668  001308  E113               	bnz	u5041
  1669  00130A  0101               	movlb	1	; () banked
  1670  00130C  5191               	movf	(powf@iy+1)& (0+255),w,b
  1671  00130E  0100               	movlb	0	; () banked
  1672  001310  1997               	xorwf	(??_powf+2)& (0+255),w,b
  1673  001312  E10E               	bnz	u5041
  1674  001314  0101               	movlb	1	; () banked
  1675  001316  5192               	movf	(powf@iy+2)& (0+255),w,b
  1676  001318  0100               	movlb	0	; () banked
  1677  00131A  1998               	xorwf	(??_powf+3)& (0+255),w,b
  1678  00131C  E109               	bnz	u5041
  1679  00131E  0101               	movlb	1	; () banked
  1680  001320  5193               	movf	(powf@iy+3)& (0+255),w,b
  1681  001322  0100               	movlb	0	; () banked
  1682  001324  1999               	xorwf	(??_powf+4)& (0+255),w,b
  1683  001326  A4D8               	btfss	status,2,c
  1684  001328  EF98  F009         	goto	u5041
  1685  00132C  EF9A  F009         	goto	u5040
  1686  001330                     u5041:
  1687  001330  EFC1  F009         	goto	l1181
  1688  001334                     u5040:
  1689  001334                     
  1690                           ; BSR set to: 0
  1691  001334  0E01               	movlw	1
  1692  001336  0101               	movlb	1	; () banked
  1693  001338  15AC               	andwf	powf@j& (0+255),w,b
  1694  00133A  0100               	movlb	0	; () banked
  1695  00133C  6F95               	movwf	??_powf& (0+255),b
  1696  00133E  0E00               	movlw	0
  1697  001340  0101               	movlb	1	; () banked
  1698  001342  15AD               	andwf	(powf@j+1)& (0+255),w,b
  1699  001344  0100               	movlb	0	; () banked
  1700  001346  6F96               	movwf	(??_powf+1)& (0+255),b
  1701  001348  0E00               	movlw	0
  1702  00134A  0101               	movlb	1	; () banked
  1703  00134C  15AE               	andwf	(powf@j+2)& (0+255),w,b
  1704  00134E  0100               	movlb	0	; () banked
  1705  001350  6F97               	movwf	(??_powf+2)& (0+255),b
  1706  001352  0E00               	movlw	0
  1707  001354  0101               	movlb	1	; () banked
  1708  001356  15AF               	andwf	(powf@j+3)& (0+255),w,b
  1709  001358  0100               	movlb	0	; () banked
  1710  00135A  6F98               	movwf	(??_powf+3)& (0+255),b
  1711  00135C  5195               	movf	??_powf& (0+255),w,b
  1712  00135E  0802               	sublw	2
  1713  001360  0101               	movlb	1	; () banked
  1714  001362  6F50               	movwf	powf@yisint& (0+255),b
  1715  001364  0E00               	movlw	0
  1716  001366  0100               	movlb	0	; () banked
  1717  001368  5596               	subfwb	(??_powf+1)& (0+255),w,b
  1718  00136A  0101               	movlb	1	; () banked
  1719  00136C  6F51               	movwf	(powf@yisint+1)& (0+255),b
  1720  00136E  0E00               	movlw	0
  1721  001370  0100               	movlb	0	; () banked
  1722  001372  5597               	subfwb	(??_powf+2)& (0+255),w,b
  1723  001374  0101               	movlb	1	; () banked
  1724  001376  6F52               	movwf	(powf@yisint+2)& (0+255),b
  1725  001378  0E00               	movlw	0
  1726  00137A  0100               	movlb	0	; () banked
  1727  00137C  5598               	subfwb	(??_powf+3)& (0+255),w,b
  1728  00137E  0101               	movlb	1	; () banked
  1729  001380  6F53               	movwf	(powf@yisint+3)& (0+255),b
  1730  001382                     l1181:
  1731  001382  0E80               	movlw	128
  1732  001384  0101               	movlb	1	; () banked
  1733  001386  1992               	xorwf	(powf@iy+2)& (0+255),w,b
  1734  001388  E109               	bnz	u5051
  1735  00138A  0E7F               	movlw	127
  1736  00138C  1993               	xorwf	(powf@iy+3)& (0+255),w,b
  1737  00138E  1190               	iorwf	powf@iy& (0+255),w,b
  1738  001390  1191               	iorwf	(powf@iy+1)& (0+255),w,b
  1739  001392  A4D8               	btfss	status,2,c
  1740  001394  EFCE  F009         	goto	u5051
  1741  001398  EFD0  F009         	goto	u5050
  1742  00139C                     u5051:
  1743  00139C  EF3C  F00A         	goto	l4583
  1744  0013A0                     u5050:
  1745  0013A0                     
  1746                           ; BSR set to: 1
  1747  0013A0  0E80               	movlw	128
  1748  0013A2  19AA               	xorwf	(powf@ix+2)& (0+255),w,b
  1749  0013A4  E109               	bnz	u5061
  1750  0013A6  0E3F               	movlw	63
  1751  0013A8  19AB               	xorwf	(powf@ix+3)& (0+255),w,b
  1752  0013AA  11A8               	iorwf	powf@ix& (0+255),w,b
  1753  0013AC  11A9               	iorwf	(powf@ix+1)& (0+255),w,b
  1754  0013AE  A4D8               	btfss	status,2,c
  1755  0013B0  EFDC  F009         	goto	u5061
  1756  0013B4  EFDE  F009         	goto	u5060
  1757  0013B8                     u5061:
  1758  0013B8  EFE9  F009         	goto	l4567
  1759  0013BC                     u5060:
  1760  0013BC                     
  1761                           ; BSR set to: 1
  1762  0013BC  0E00               	movlw	0
  1763  0013BE  0100               	movlb	0	; () banked
  1764  0013C0  6F8D               	movwf	?_powf& (0+255),b
  1765  0013C2  0E00               	movlw	0
  1766  0013C4  6F8E               	movwf	(?_powf+1)& (0+255),b
  1767  0013C6  0E80               	movlw	128
  1768  0013C8  6F8F               	movwf	(?_powf+2)& (0+255),b
  1769  0013CA  0E3F               	movlw	63
  1770  0013CC  6F90               	movwf	(?_powf+3)& (0+255),b
  1771  0013CE  EF58  F01D         	goto	l1176
  1772  0013D2                     l4567:
  1773                           
  1774                           ; BSR set to: 1
  1775  0013D2  BFAB               	btfsc	(powf@ix+3)& (0+255),7,b
  1776  0013D4  EFF8  F009         	goto	u5071
  1777  0013D8  05A8               	decf	powf@ix& (0+255),w,b
  1778  0013DA  0E00               	movlw	0
  1779  0013DC  59A9               	subwfb	(powf@ix+1)& (0+255),w,b
  1780  0013DE  0E80               	movlw	128
  1781  0013E0  59AA               	subwfb	(powf@ix+2)& (0+255),w,b
  1782  0013E2  0E3F               	movlw	63
  1783  0013E4  59AB               	subwfb	(powf@ix+3)& (0+255),w,b
  1784  0013E6  A0D8               	btfss	status,0,c
  1785  0013E8  EFF8  F009         	goto	u5071
  1786  0013EC  EFFA  F009         	goto	u5070
  1787  0013F0                     u5071:
  1788  0013F0  EF16  F00A         	goto	l4575
  1789  0013F4                     u5070:
  1790  0013F4                     
  1791                           ; BSR set to: 1
  1792  0013F4  BF7F               	btfsc	(powf@hy+3)& (0+255),7,b
  1793  0013F6  EF01  F00A         	goto	u5080
  1794  0013FA  EFFF  F009         	goto	u5081
  1795  0013FE                     u5081:
  1796  0013FE  EF0C  F00A         	goto	l1191
  1797  001402                     u5080:
  1798  001402                     
  1799                           ; BSR set to: 1
  1800  001402  0E00               	movlw	0
  1801  001404  0100               	movlb	0	; () banked
  1802  001406  6F8D               	movwf	?_powf& (0+255),b
  1803  001408  0E00               	movlw	0
  1804  00140A  6F8E               	movwf	(?_powf+1)& (0+255),b
  1805  00140C  0E00               	movlw	0
  1806  00140E  6F8F               	movwf	(?_powf+2)& (0+255),b
  1807  001410  0E00               	movlw	0
  1808  001412  6F90               	movwf	(?_powf+3)& (0+255),b
  1809  001414  EF58  F01D         	goto	l1176
  1810  001418                     l1191:
  1811                           
  1812                           ; BSR set to: 1
  1813  001418  C091  F08D         	movff	powf@y,?_powf
  1814  00141C  C092  F08E         	movff	powf@y+1,?_powf+1
  1815  001420  C093  F08F         	movff	powf@y+2,?_powf+2
  1816  001424  C094  F090         	movff	powf@y+3,?_powf+3
  1817  001428  EF58  F01D         	goto	l1176
  1818  00142C                     l4575:
  1819                           
  1820                           ; BSR set to: 1
  1821  00142C  BF7F               	btfsc	(powf@hy+3)& (0+255),7,b
  1822  00142E  EF1D  F00A         	goto	u5090
  1823  001432  EF1B  F00A         	goto	u5091
  1824  001436                     u5091:
  1825  001436  EF31  F00A         	goto	l4579
  1826  00143A                     u5090:
  1827  00143A                     
  1828                           ; BSR set to: 1
  1829  00143A  C091  F00A         	movff	powf@y,___flneg@f1
  1830  00143E  C092  F00B         	movff	powf@y+1,___flneg@f1+1
  1831  001442  C093  F00C         	movff	powf@y+2,___flneg@f1+2
  1832  001446  C094  F00D         	movff	powf@y+3,___flneg@f1+3
  1833  00144A  EC7A  F02C         	call	___flneg	;wreg free
  1834  00144E  C00A  F08D         	movff	?___flneg,?_powf
  1835  001452  C00B  F08E         	movff	?___flneg+1,?_powf+1
  1836  001456  C00C  F08F         	movff	?___flneg+2,?_powf+2
  1837  00145A  C00D  F090         	movff	?___flneg+3,?_powf+3
  1838  00145E  EF58  F01D         	goto	l1176
  1839  001462                     l4579:
  1840                           
  1841                           ; BSR set to: 1
  1842  001462  0E00               	movlw	0
  1843  001464  0100               	movlb	0	; () banked
  1844  001466  6F8D               	movwf	?_powf& (0+255),b
  1845  001468  0E00               	movlw	0
  1846  00146A  6F8E               	movwf	(?_powf+1)& (0+255),b
  1847  00146C  0E00               	movlw	0
  1848  00146E  6F8F               	movwf	(?_powf+2)& (0+255),b
  1849  001470  0E00               	movlw	0
  1850  001472  6F90               	movwf	(?_powf+3)& (0+255),b
  1851  001474  EF58  F01D         	goto	l1176
  1852  001478                     l4583:
  1853                           
  1854                           ; BSR set to: 1
  1855  001478  0E80               	movlw	128
  1856  00147A  1992               	xorwf	(powf@iy+2)& (0+255),w,b
  1857  00147C  E109               	bnz	u5101
  1858  00147E  0E3F               	movlw	63
  1859  001480  1993               	xorwf	(powf@iy+3)& (0+255),w,b
  1860  001482  1190               	iorwf	powf@iy& (0+255),w,b
  1861  001484  1191               	iorwf	(powf@iy+1)& (0+255),w,b
  1862  001486  A4D8               	btfss	status,2,c
  1863  001488  EF48  F00A         	goto	u5101
  1864  00148C  EF4A  F00A         	goto	u5100
  1865  001490                     u5101:
  1866  001490  EF77  F00A         	goto	l4589
  1867  001494                     u5100:
  1868  001494                     
  1869                           ; BSR set to: 1
  1870  001494  BF7F               	btfsc	(powf@hy+3)& (0+255),7,b
  1871  001496  EF51  F00A         	goto	u5110
  1872  00149A  EF4F  F00A         	goto	u5111
  1873  00149E                     u5111:
  1874  00149E  EF6D  F00A         	goto	l1201
  1875  0014A2                     u5110:
  1876  0014A2                     
  1877                           ; BSR set to: 1
  1878  0014A2  0E00               	movlw	0
  1879  0014A4  6E3B               	movwf	___fldiv@b^0,c
  1880  0014A6  0E00               	movlw	0
  1881  0014A8  6E3C               	movwf	(___fldiv@b+1)^0,c
  1882  0014AA  0E80               	movlw	128
  1883  0014AC  6E3D               	movwf	(___fldiv@b+2)^0,c
  1884  0014AE  0E3F               	movlw	63
  1885  0014B0  6E3E               	movwf	(___fldiv@b+3)^0,c
  1886  0014B2  C08D  F03F         	movff	powf@x,___fldiv@a
  1887  0014B6  C08E  F040         	movff	powf@x+1,___fldiv@a+1
  1888  0014BA  C08F  F041         	movff	powf@x+2,___fldiv@a+2
  1889  0014BE  C090  F042         	movff	powf@x+3,___fldiv@a+3
  1890  0014C2  EC2E  F024         	call	___fldiv	;wreg free
  1891  0014C6  C03B  F08D         	movff	?___fldiv,?_powf
  1892  0014CA  C03C  F08E         	movff	?___fldiv+1,?_powf+1
  1893  0014CE  C03D  F08F         	movff	?___fldiv+2,?_powf+2
  1894  0014D2  C03E  F090         	movff	?___fldiv+3,?_powf+3
  1895  0014D6  EF58  F01D         	goto	l1176
  1896  0014DA                     l1201:
  1897                           
  1898                           ; BSR set to: 1
  1899  0014DA  C08D  F08D         	movff	powf@x,?_powf
  1900  0014DE  C08E  F08E         	movff	powf@x+1,?_powf+1
  1901  0014E2  C08F  F08F         	movff	powf@x+2,?_powf+2
  1902  0014E6  C090  F090         	movff	powf@x+3,?_powf+3
  1903  0014EA  EF58  F01D         	goto	l1176
  1904  0014EE                     l4589:
  1905                           
  1906                           ; BSR set to: 1
  1907  0014EE  0E40               	movlw	64
  1908  0014F0  197F               	xorwf	(powf@hy+3)& (0+255),w,b
  1909  0014F2  117C               	iorwf	powf@hy& (0+255),w,b
  1910  0014F4  117D               	iorwf	(powf@hy+1)& (0+255),w,b
  1911  0014F6  117E               	iorwf	(powf@hy+2)& (0+255),w,b
  1912  0014F8  A4D8               	btfss	status,2,c
  1913  0014FA  EF81  F00A         	goto	u5121
  1914  0014FE  EF83  F00A         	goto	u5120
  1915  001502                     u5121:
  1916  001502  EF9F  F00A         	goto	l4595
  1917  001506                     u5120:
  1918  001506                     
  1919                           ; BSR set to: 1
  1920  001506  C08D  F01A         	movff	powf@x,___flmul@b
  1921  00150A  C08E  F01B         	movff	powf@x+1,___flmul@b+1
  1922  00150E  C08F  F01C         	movff	powf@x+2,___flmul@b+2
  1923  001512  C090  F01D         	movff	powf@x+3,___flmul@b+3
  1924  001516  C08D  F01E         	movff	powf@x,___flmul@a
  1925  00151A  C08E  F01F         	movff	powf@x+1,___flmul@a+1
  1926  00151E  C08F  F020         	movff	powf@x+2,___flmul@a+2
  1927  001522  C090  F021         	movff	powf@x+3,___flmul@a+3
  1928  001526  EC19  F022         	call	___flmul	;wreg free
  1929  00152A  C01A  F08D         	movff	?___flmul,?_powf
  1930  00152E  C01B  F08E         	movff	?___flmul+1,?_powf+1
  1931  001532  C01C  F08F         	movff	?___flmul+2,?_powf+2
  1932  001536  C01D  F090         	movff	?___flmul+3,?_powf+3
  1933  00153A  EF58  F01D         	goto	l1176
  1934  00153E                     l4595:
  1935                           
  1936                           ; BSR set to: 1
  1937  00153E  0E3F               	movlw	63
  1938  001540  197F               	xorwf	(powf@hy+3)& (0+255),w,b
  1939  001542  117C               	iorwf	powf@hy& (0+255),w,b
  1940  001544  117D               	iorwf	(powf@hy+1)& (0+255),w,b
  1941  001546  117E               	iorwf	(powf@hy+2)& (0+255),w,b
  1942  001548  A4D8               	btfss	status,2,c
  1943  00154A  EFA9  F00A         	goto	u5131
  1944  00154E  EFAB  F00A         	goto	u5130
  1945  001552                     u5131:
  1946  001552  EFC6  F00A         	goto	l4603
  1947  001556                     u5130:
  1948  001556                     
  1949                           ; BSR set to: 1
  1950  001556  BF63               	btfsc	(powf@hx+3)& (0+255),7,b
  1951  001558  EFB0  F00A         	goto	u5141
  1952  00155C  EFB2  F00A         	goto	u5140
  1953  001560                     u5141:
  1954  001560  EFC6  F00A         	goto	l4603
  1955  001564                     u5140:
  1956  001564                     
  1957                           ; BSR set to: 1
  1958  001564  C08D  F047         	movff	powf@x,sqrtf@x
  1959  001568  C08E  F048         	movff	powf@x+1,sqrtf@x+1
  1960  00156C  C08F  F049         	movff	powf@x+2,sqrtf@x+2
  1961  001570  C090  F04A         	movff	powf@x+3,sqrtf@x+3
  1962  001574  EC59  F01D         	call	_sqrtf	;wreg free
  1963  001578  C047  F08D         	movff	?_sqrtf,?_powf
  1964  00157C  C048  F08E         	movff	?_sqrtf+1,?_powf+1
  1965  001580  C049  F08F         	movff	?_sqrtf+2,?_powf+2
  1966  001584  C04A  F090         	movff	?_sqrtf+3,?_powf+3
  1967  001588  EF58  F01D         	goto	l1176
  1968  00158C                     l4603:
  1969                           
  1970                           ; BSR set to: 1
  1971  00158C  C08D  F00A         	movff	powf@x,fabsf@x
  1972  001590  C08E  F00B         	movff	powf@x+1,fabsf@x+1
  1973  001594  C08F  F00C         	movff	powf@x+2,fabsf@x+2
  1974  001598  C090  F00D         	movff	powf@x+3,fabsf@x+3
  1975  00159C  EC96  F02C         	call	_fabsf	;wreg free
  1976  0015A0  C00A  F170         	movff	?_fabsf,powf@ax
  1977  0015A4  C00B  F171         	movff	?_fabsf+1,powf@ax+1
  1978  0015A8  C00C  F172         	movff	?_fabsf+2,powf@ax+2
  1979  0015AC  C00D  F173         	movff	?_fabsf+3,powf@ax+3
  1980  0015B0  0E80               	movlw	128
  1981  0015B2  0101               	movlb	1	; () banked
  1982  0015B4  19AA               	xorwf	(powf@ix+2)& (0+255),w,b
  1983  0015B6  E10B               	bnz	u5150
  1984  0015B8  0E7F               	movlw	127
  1985  0015BA  19AB               	xorwf	(powf@ix+3)& (0+255),w,b
  1986  0015BC  11A8               	iorwf	powf@ix& (0+255),w,b
  1987  0015BE  11A9               	iorwf	(powf@ix+1)& (0+255),w,b
  1988  0015C0  B4D8               	btfsc	status,2,c
  1989  0015C2  EFE5  F00A         	goto	u5151
  1990  0015C6  EFE7  F00A         	goto	u5150
  1991  0015CA                     u5151:
  1992  0015CA  EF00  F00B         	goto	l1209
  1993  0015CE                     u5150:
  1994  0015CE                     
  1995                           ; BSR set to: 1
  1996  0015CE  51A8               	movf	powf@ix& (0+255),w,b
  1997  0015D0  11A9               	iorwf	(powf@ix+1)& (0+255),w,b
  1998  0015D2  11AA               	iorwf	(powf@ix+2)& (0+255),w,b
  1999  0015D4  11AB               	iorwf	(powf@ix+3)& (0+255),w,b
  2000  0015D6  B4D8               	btfsc	status,2,c
  2001  0015D8  EFF0  F00A         	goto	u5161
  2002  0015DC  EFF2  F00A         	goto	u5160
  2003  0015E0                     u5161:
  2004  0015E0  EF00  F00B         	goto	l1209
  2005  0015E4                     u5160:
  2006  0015E4                     
  2007                           ; BSR set to: 1
  2008  0015E4  0E80               	movlw	128
  2009  0015E6  19AA               	xorwf	(powf@ix+2)& (0+255),w,b
  2010  0015E8  E109               	bnz	u5171
  2011  0015EA  0E3F               	movlw	63
  2012  0015EC  19AB               	xorwf	(powf@ix+3)& (0+255),w,b
  2013  0015EE  11A8               	iorwf	powf@ix& (0+255),w,b
  2014  0015F0  11A9               	iorwf	(powf@ix+1)& (0+255),w,b
  2015  0015F2  A4D8               	btfss	status,2,c
  2016  0015F4  EFFE  F00A         	goto	u5171
  2017  0015F8  EF00  F00B         	goto	u5170
  2018  0015FC                     u5171:
  2019  0015FC  EFCB  F00B         	goto	l4629
  2020  001600                     u5170:
  2021  001600                     l1209:
  2022                           
  2023                           ; BSR set to: 1
  2024  001600  C170  F1B4         	movff	powf@ax,powf@z
  2025  001604  C171  F1B5         	movff	powf@ax+1,powf@z+1
  2026  001608  C172  F1B6         	movff	powf@ax+2,powf@z+2
  2027  00160C  C173  F1B7         	movff	powf@ax+3,powf@z+3
  2028  001610                     
  2029                           ; BSR set to: 1
  2030  001610  BF7F               	btfsc	(powf@hy+3)& (0+255),7,b
  2031  001612  EF0F  F00B         	goto	u5180
  2032  001616  EF0D  F00B         	goto	u5181
  2033  00161A                     u5181:
  2034  00161A  EF29  F00B         	goto	l4615
  2035  00161E                     u5180:
  2036  00161E                     
  2037                           ; BSR set to: 1
  2038  00161E  0E00               	movlw	0
  2039  001620  6E3B               	movwf	___fldiv@b^0,c
  2040  001622  0E00               	movlw	0
  2041  001624  6E3C               	movwf	(___fldiv@b+1)^0,c
  2042  001626  0E80               	movlw	128
  2043  001628  6E3D               	movwf	(___fldiv@b+2)^0,c
  2044  00162A  0E3F               	movlw	63
  2045  00162C  6E3E               	movwf	(___fldiv@b+3)^0,c
  2046  00162E  C1B4  F03F         	movff	powf@z,___fldiv@a
  2047  001632  C1B5  F040         	movff	powf@z+1,___fldiv@a+1
  2048  001636  C1B6  F041         	movff	powf@z+2,___fldiv@a+2
  2049  00163A  C1B7  F042         	movff	powf@z+3,___fldiv@a+3
  2050  00163E  EC2E  F024         	call	___fldiv	;wreg free
  2051  001642  C03B  F1B4         	movff	?___fldiv,powf@z
  2052  001646  C03C  F1B5         	movff	?___fldiv+1,powf@z+1
  2053  00164A  C03D  F1B6         	movff	?___fldiv+2,powf@z+2
  2054  00164E  C03E  F1B7         	movff	?___fldiv+3,powf@z+3
  2055  001652                     l4615:
  2056  001652  0101               	movlb	1	; () banked
  2057  001654  BF63               	btfsc	(powf@hx+3)& (0+255),7,b
  2058  001656  EF31  F00B         	goto	u5190
  2059  00165A  EF2F  F00B         	goto	u5191
  2060  00165E                     u5191:
  2061  00165E  EFC1  F00B         	goto	l4625
  2062  001662                     u5190:
  2063  001662                     
  2064                           ; BSR set to: 1
  2065  001662  0E00               	movlw	0
  2066  001664  25A8               	addwf	powf@ix& (0+255),w,b
  2067  001666  0100               	movlb	0	; () banked
  2068  001668  6F95               	movwf	??_powf& (0+255),b
  2069  00166A  0E00               	movlw	0
  2070  00166C  0101               	movlb	1	; () banked
  2071  00166E  21A9               	addwfc	(powf@ix+1)& (0+255),w,b
  2072  001670  0100               	movlb	0	; () banked
  2073  001672  6F96               	movwf	(??_powf+1)& (0+255),b
  2074  001674  0E80               	movlw	128
  2075  001676  0101               	movlb	1	; () banked
  2076  001678  21AA               	addwfc	(powf@ix+2)& (0+255),w,b
  2077  00167A  0100               	movlb	0	; () banked
  2078  00167C  6F97               	movwf	(??_powf+2)& (0+255),b
  2079  00167E  0EC0               	movlw	192
  2080  001680  0101               	movlb	1	; () banked
  2081  001682  21AB               	addwfc	(powf@ix+3)& (0+255),w,b
  2082  001684  0100               	movlb	0	; () banked
  2083  001686  6F98               	movwf	(??_powf+3)& (0+255),b
  2084  001688  0101               	movlb	1	; () banked
  2085  00168A  5150               	movf	powf@yisint& (0+255),w,b
  2086  00168C  0100               	movlb	0	; () banked
  2087  00168E  1195               	iorwf	??_powf& (0+255),w,b
  2088  001690  6F99               	movwf	(??_powf+4)& (0+255),b
  2089  001692  0101               	movlb	1	; () banked
  2090  001694  5151               	movf	(powf@yisint+1)& (0+255),w,b
  2091  001696  0100               	movlb	0	; () banked
  2092  001698  1196               	iorwf	(??_powf+1)& (0+255),w,b
  2093  00169A  6F9A               	movwf	(??_powf+5)& (0+255),b
  2094  00169C  0101               	movlb	1	; () banked
  2095  00169E  5152               	movf	(powf@yisint+2)& (0+255),w,b
  2096  0016A0  0100               	movlb	0	; () banked
  2097  0016A2  1197               	iorwf	(??_powf+2)& (0+255),w,b
  2098  0016A4  6F9B               	movwf	(??_powf+6)& (0+255),b
  2099  0016A6  0101               	movlb	1	; () banked
  2100  0016A8  5153               	movf	(powf@yisint+3)& (0+255),w,b
  2101  0016AA  0100               	movlb	0	; () banked
  2102  0016AC  1198               	iorwf	(??_powf+3)& (0+255),w,b
  2103  0016AE  6F9C               	movwf	(??_powf+7)& (0+255),b
  2104  0016B0  5199               	movf	(??_powf+4)& (0+255),w,b
  2105  0016B2  119A               	iorwf	(??_powf+5)& (0+255),w,b
  2106  0016B4  119B               	iorwf	(??_powf+6)& (0+255),w,b
  2107  0016B6  119C               	iorwf	(??_powf+7)& (0+255),w,b
  2108  0016B8  A4D8               	btfss	status,2,c
  2109  0016BA  EF61  F00B         	goto	u5201
  2110  0016BE  EF63  F00B         	goto	u5200
  2111  0016C2                     u5201:
  2112  0016C2  EFA3  F00B         	goto	l4621
  2113  0016C6                     u5200:
  2114  0016C6                     
  2115                           ; BSR set to: 0
  2116  0016C6  C1B4  F037         	movff	powf@z,___flsub@a
  2117  0016CA  C1B5  F038         	movff	powf@z+1,___flsub@a+1
  2118  0016CE  C1B6  F039         	movff	powf@z+2,___flsub@a+2
  2119  0016D2  C1B7  F03A         	movff	powf@z+3,___flsub@a+3
  2120  0016D6  C1B4  F033         	movff	powf@z,___flsub@b
  2121  0016DA  C1B5  F034         	movff	powf@z+1,___flsub@b+1
  2122  0016DE  C1B6  F035         	movff	powf@z+2,___flsub@b+2
  2123  0016E2  C1B7  F036         	movff	powf@z+3,___flsub@b+3
  2124  0016E6  EC57  F02C         	call	___flsub	;wreg free
  2125  0016EA  C033  F03B         	movff	?___flsub,___fldiv@b
  2126  0016EE  C034  F03C         	movff	?___flsub+1,___fldiv@b+1
  2127  0016F2  C035  F03D         	movff	?___flsub+2,___fldiv@b+2
  2128  0016F6  C036  F03E         	movff	?___flsub+3,___fldiv@b+3
  2129  0016FA  C1B4  F037         	movff	powf@z,___flsub@a
  2130  0016FE  C1B5  F038         	movff	powf@z+1,___flsub@a+1
  2131  001702  C1B6  F039         	movff	powf@z+2,___flsub@a+2
  2132  001706  C1B7  F03A         	movff	powf@z+3,___flsub@a+3
  2133  00170A  C1B4  F033         	movff	powf@z,___flsub@b
  2134  00170E  C1B5  F034         	movff	powf@z+1,___flsub@b+1
  2135  001712  C1B6  F035         	movff	powf@z+2,___flsub@b+2
  2136  001716  C1B7  F036         	movff	powf@z+3,___flsub@b+3
  2137  00171A  EC57  F02C         	call	___flsub	;wreg free
  2138  00171E  C033  F03F         	movff	?___flsub,___fldiv@a
  2139  001722  C034  F040         	movff	?___flsub+1,___fldiv@a+1
  2140  001726  C035  F041         	movff	?___flsub+2,___fldiv@a+2
  2141  00172A  C036  F042         	movff	?___flsub+3,___fldiv@a+3
  2142  00172E  EC2E  F024         	call	___fldiv	;wreg free
  2143  001732  C03B  F1B4         	movff	?___fldiv,powf@z
  2144  001736  C03C  F1B5         	movff	?___fldiv+1,powf@z+1
  2145  00173A  C03D  F1B6         	movff	?___fldiv+2,powf@z+2
  2146  00173E  C03E  F1B7         	movff	?___fldiv+3,powf@z+3
  2147  001742  EFC1  F00B         	goto	l4625
  2148  001746                     l4621:
  2149                           
  2150                           ; BSR set to: 0
  2151  001746  0101               	movlb	1	; () banked
  2152  001748  0550               	decf	powf@yisint& (0+255),w,b
  2153  00174A  1151               	iorwf	(powf@yisint+1)& (0+255),w,b
  2154  00174C  1152               	iorwf	(powf@yisint+2)& (0+255),w,b
  2155  00174E  1153               	iorwf	(powf@yisint+3)& (0+255),w,b
  2156  001750  A4D8               	btfss	status,2,c
  2157  001752  EFAD  F00B         	goto	u5211
  2158  001756  EFAF  F00B         	goto	u5210
  2159  00175A                     u5211:
  2160  00175A  EFC1  F00B         	goto	l4625
  2161  00175E                     u5210:
  2162  00175E                     
  2163                           ; BSR set to: 1
  2164  00175E  C1B4  F00A         	movff	powf@z,___flneg@f1
  2165  001762  C1B5  F00B         	movff	powf@z+1,___flneg@f1+1
  2166  001766  C1B6  F00C         	movff	powf@z+2,___flneg@f1+2
  2167  00176A  C1B7  F00D         	movff	powf@z+3,___flneg@f1+3
  2168  00176E  EC7A  F02C         	call	___flneg	;wreg free
  2169  001772  C00A  F1B4         	movff	?___flneg,powf@z
  2170  001776  C00B  F1B5         	movff	?___flneg+1,powf@z+1
  2171  00177A  C00C  F1B6         	movff	?___flneg+2,powf@z+2
  2172  00177E  C00D  F1B7         	movff	?___flneg+3,powf@z+3
  2173  001782                     l4625:
  2174  001782  C1B4  F08D         	movff	powf@z,?_powf
  2175  001786  C1B5  F08E         	movff	powf@z+1,?_powf+1
  2176  00178A  C1B6  F08F         	movff	powf@z+2,?_powf+2
  2177  00178E  C1B7  F090         	movff	powf@z+3,?_powf+3
  2178  001792  EF58  F01D         	goto	l1176
  2179  001796                     l4629:
  2180                           
  2181                           ; BSR set to: 1
  2182  001796  0E00               	movlw	0
  2183  001798  6F88               	movwf	powf@sn& (0+255),b
  2184  00179A  0E00               	movlw	0
  2185  00179C  6F89               	movwf	(powf@sn+1)& (0+255),b
  2186  00179E  0E80               	movlw	128
  2187  0017A0  6F8A               	movwf	(powf@sn+2)& (0+255),b
  2188  0017A2  0E3F               	movlw	63
  2189  0017A4  6F8B               	movwf	(powf@sn+3)& (0+255),b
  2190  0017A6                     
  2191                           ; BSR set to: 1
  2192  0017A6  BF63               	btfsc	(powf@hx+3)& (0+255),7,b
  2193  0017A8  EFDA  F00B         	goto	u5220
  2194  0017AC  EFD8  F00B         	goto	u5221
  2195  0017B0                     u5221:
  2196  0017B0  EF38  F00C         	goto	l4643
  2197  0017B4                     u5220:
  2198  0017B4                     
  2199                           ; BSR set to: 1
  2200  0017B4  5150               	movf	powf@yisint& (0+255),w,b
  2201  0017B6  1151               	iorwf	(powf@yisint+1)& (0+255),w,b
  2202  0017B8  1152               	iorwf	(powf@yisint+2)& (0+255),w,b
  2203  0017BA  1153               	iorwf	(powf@yisint+3)& (0+255),w,b
  2204  0017BC  A4D8               	btfss	status,2,c
  2205  0017BE  EFE3  F00B         	goto	u5231
  2206  0017C2  EFE5  F00B         	goto	u5230
  2207  0017C6                     u5231:
  2208  0017C6  EF25  F00C         	goto	l4639
  2209  0017CA                     u5230:
  2210  0017CA                     
  2211                           ; BSR set to: 1
  2212  0017CA  C08D  F037         	movff	powf@x,___flsub@a
  2213  0017CE  C08E  F038         	movff	powf@x+1,___flsub@a+1
  2214  0017D2  C08F  F039         	movff	powf@x+2,___flsub@a+2
  2215  0017D6  C090  F03A         	movff	powf@x+3,___flsub@a+3
  2216  0017DA  C08D  F033         	movff	powf@x,___flsub@b
  2217  0017DE  C08E  F034         	movff	powf@x+1,___flsub@b+1
  2218  0017E2  C08F  F035         	movff	powf@x+2,___flsub@b+2
  2219  0017E6  C090  F036         	movff	powf@x+3,___flsub@b+3
  2220  0017EA  EC57  F02C         	call	___flsub	;wreg free
  2221  0017EE  C033  F03B         	movff	?___flsub,___fldiv@b
  2222  0017F2  C034  F03C         	movff	?___flsub+1,___fldiv@b+1
  2223  0017F6  C035  F03D         	movff	?___flsub+2,___fldiv@b+2
  2224  0017FA  C036  F03E         	movff	?___flsub+3,___fldiv@b+3
  2225  0017FE  C08D  F037         	movff	powf@x,___flsub@a
  2226  001802  C08E  F038         	movff	powf@x+1,___flsub@a+1
  2227  001806  C08F  F039         	movff	powf@x+2,___flsub@a+2
  2228  00180A  C090  F03A         	movff	powf@x+3,___flsub@a+3
  2229  00180E  C08D  F033         	movff	powf@x,___flsub@b
  2230  001812  C08E  F034         	movff	powf@x+1,___flsub@b+1
  2231  001816  C08F  F035         	movff	powf@x+2,___flsub@b+2
  2232  00181A  C090  F036         	movff	powf@x+3,___flsub@b+3
  2233  00181E  EC57  F02C         	call	___flsub	;wreg free
  2234  001822  C033  F03F         	movff	?___flsub,___fldiv@a
  2235  001826  C034  F040         	movff	?___flsub+1,___fldiv@a+1
  2236  00182A  C035  F041         	movff	?___flsub+2,___fldiv@a+2
  2237  00182E  C036  F042         	movff	?___flsub+3,___fldiv@a+3
  2238  001832  EC2E  F024         	call	___fldiv	;wreg free
  2239  001836  C03B  F08D         	movff	?___fldiv,?_powf
  2240  00183A  C03C  F08E         	movff	?___fldiv+1,?_powf+1
  2241  00183E  C03D  F08F         	movff	?___fldiv+2,?_powf+2
  2242  001842  C03E  F090         	movff	?___fldiv+3,?_powf+3
  2243  001846  EF58  F01D         	goto	l1176
  2244  00184A                     l4639:
  2245                           
  2246                           ; BSR set to: 1
  2247  00184A  0550               	decf	powf@yisint& (0+255),w,b
  2248  00184C  1151               	iorwf	(powf@yisint+1)& (0+255),w,b
  2249  00184E  1152               	iorwf	(powf@yisint+2)& (0+255),w,b
  2250  001850  1153               	iorwf	(powf@yisint+3)& (0+255),w,b
  2251  001852  A4D8               	btfss	status,2,c
  2252  001854  EF2E  F00C         	goto	u5241
  2253  001858  EF30  F00C         	goto	u5240
  2254  00185C                     u5241:
  2255  00185C  EF38  F00C         	goto	l4643
  2256  001860                     u5240:
  2257  001860                     
  2258                           ; BSR set to: 1
  2259  001860  0E00               	movlw	0
  2260  001862  6F88               	movwf	powf@sn& (0+255),b
  2261  001864  0E00               	movlw	0
  2262  001866  6F89               	movwf	(powf@sn+1)& (0+255),b
  2263  001868  0E80               	movlw	128
  2264  00186A  6F8A               	movwf	(powf@sn+2)& (0+255),b
  2265  00186C  0EBF               	movlw	191
  2266  00186E  6F8B               	movwf	(powf@sn+3)& (0+255),b
  2267  001870                     l4643:
  2268                           
  2269                           ; BSR set to: 1
  2270  001870  BF93               	btfsc	(powf@iy+3)& (0+255),7,b
  2271  001872  EF47  F00C         	goto	u5251
  2272  001876  0590               	decf	powf@iy& (0+255),w,b
  2273  001878  0E00               	movlw	0
  2274  00187A  5991               	subwfb	(powf@iy+1)& (0+255),w,b
  2275  00187C  0E00               	movlw	0
  2276  00187E  5992               	subwfb	(powf@iy+2)& (0+255),w,b
  2277  001880  0E4D               	movlw	77
  2278  001882  5993               	subwfb	(powf@iy+3)& (0+255),w,b
  2279  001884  A0D8               	btfss	status,0,c
  2280  001886  EF47  F00C         	goto	u5251
  2281  00188A  EF49  F00C         	goto	u5250
  2282  00188E                     u5251:
  2283  00188E  EFCE  F00E         	goto	l4691
  2284  001892                     u5250:
  2285  001892                     
  2286                           ; BSR set to: 1
  2287  001892  BFAB               	btfsc	(powf@ix+3)& (0+255),7,b
  2288  001894  EF5B  F00C         	goto	u5260
  2289  001898  0EF8               	movlw	248
  2290  00189A  5DA8               	subwf	powf@ix& (0+255),w,b
  2291  00189C  0EFF               	movlw	255
  2292  00189E  59A9               	subwfb	(powf@ix+1)& (0+255),w,b
  2293  0018A0  0E7F               	movlw	127
  2294  0018A2  59AA               	subwfb	(powf@ix+2)& (0+255),w,b
  2295  0018A4  0E3F               	movlw	63
  2296  0018A6  59AB               	subwfb	(powf@ix+3)& (0+255),w,b
  2297  0018A8  B0D8               	btfsc	status,0,c
  2298  0018AA  EF59  F00C         	goto	u5261
  2299  0018AE  EF5B  F00C         	goto	u5260
  2300  0018B2                     u5261:
  2301  0018B2  EFCE  F00C         	goto	l4655
  2302  0018B6                     u5260:
  2303  0018B6                     
  2304                           ; BSR set to: 1
  2305  0018B6  BF7F               	btfsc	(powf@hy+3)& (0+255),7,b
  2306  0018B8  EF60  F00C         	goto	u5271
  2307  0018BC  EF62  F00C         	goto	u5270
  2308  0018C0                     u5271:
  2309  0018C0  EF98  F00C         	goto	l4651
  2310  0018C4                     u5270:
  2311  0018C4                     
  2312                           ; BSR set to: 1
  2313  0018C4  0E60               	movlw	96
  2314  0018C6  6E1E               	movwf	___flmul@a^0,c
  2315  0018C8  0E42               	movlw	66
  2316  0018CA  6E1F               	movwf	(___flmul@a+1)^0,c
  2317  0018CC  0EA2               	movlw	162
  2318  0018CE  6E20               	movwf	(___flmul@a+2)^0,c
  2319  0018D0  0E0D               	movlw	13
  2320  0018D2  6E21               	movwf	(___flmul@a+3)^0,c
  2321  0018D4  C188  F01A         	movff	powf@sn,___flmul@b
  2322  0018D8  C189  F01B         	movff	powf@sn+1,___flmul@b+1
  2323  0018DC  C18A  F01C         	movff	powf@sn+2,___flmul@b+2
  2324  0018E0  C18B  F01D         	movff	powf@sn+3,___flmul@b+3
  2325  0018E4  EC19  F022         	call	___flmul	;wreg free
  2326  0018E8  C01A  F1A4         	movff	?___flmul,_powf$1390
  2327  0018EC  C01B  F1A5         	movff	?___flmul+1,_powf$1390+1
  2328  0018F0  C01C  F1A6         	movff	?___flmul+2,_powf$1390+2
  2329  0018F4  C01D  F1A7         	movff	?___flmul+3,_powf$1390+3
  2330  0018F8  C1A4  F01A         	movff	_powf$1390,___flmul@b
  2331  0018FC  C1A5  F01B         	movff	_powf$1390+1,___flmul@b+1
  2332  001900  C1A6  F01C         	movff	_powf$1390+2,___flmul@b+2
  2333  001904  C1A7  F01D         	movff	_powf$1390+3,___flmul@b+3
  2334  001908  0E60               	movlw	96
  2335  00190A  6E1E               	movwf	___flmul@a^0,c
  2336  00190C  0E42               	movlw	66
  2337  00190E  6E1F               	movwf	(___flmul@a+1)^0,c
  2338  001910  0EA2               	movlw	162
  2339  001912  6E20               	movwf	(___flmul@a+2)^0,c
  2340  001914  0E0D               	movlw	13
  2341  001916  6E21               	movwf	(___flmul@a+3)^0,c
  2342  001918  EC19  F022         	call	___flmul	;wreg free
  2343  00191C  C01A  F08D         	movff	?___flmul,?_powf
  2344  001920  C01B  F08E         	movff	?___flmul+1,?_powf+1
  2345  001924  C01C  F08F         	movff	?___flmul+2,?_powf+2
  2346  001928  C01D  F090         	movff	?___flmul+3,?_powf+3
  2347  00192C  EF58  F01D         	goto	l1176
  2348  001930                     l4651:
  2349                           
  2350                           ; BSR set to: 1
  2351  001930  0ECA               	movlw	202
  2352  001932  6E1E               	movwf	___flmul@a^0,c
  2353  001934  0EF2               	movlw	242
  2354  001936  6E1F               	movwf	(___flmul@a+1)^0,c
  2355  001938  0E49               	movlw	73
  2356  00193A  6E20               	movwf	(___flmul@a+2)^0,c
  2357  00193C  0E71               	movlw	113
  2358  00193E  6E21               	movwf	(___flmul@a+3)^0,c
  2359  001940  C188  F01A         	movff	powf@sn,___flmul@b
  2360  001944  C189  F01B         	movff	powf@sn+1,___flmul@b+1
  2361  001948  C18A  F01C         	movff	powf@sn+2,___flmul@b+2
  2362  00194C  C18B  F01D         	movff	powf@sn+3,___flmul@b+3
  2363  001950  EC19  F022         	call	___flmul	;wreg free
  2364  001954  C01A  F1A4         	movff	?___flmul,_powf$1390
  2365  001958  C01B  F1A5         	movff	?___flmul+1,_powf$1390+1
  2366  00195C  C01C  F1A6         	movff	?___flmul+2,_powf$1390+2
  2367  001960  C01D  F1A7         	movff	?___flmul+3,_powf$1390+3
  2368  001964  C1A4  F01A         	movff	_powf$1390,___flmul@b
  2369  001968  C1A5  F01B         	movff	_powf$1390+1,___flmul@b+1
  2370  00196C  C1A6  F01C         	movff	_powf$1390+2,___flmul@b+2
  2371  001970  C1A7  F01D         	movff	_powf$1390+3,___flmul@b+3
  2372  001974  0ECA               	movlw	202
  2373  001976  6E1E               	movwf	___flmul@a^0,c
  2374  001978  0EF2               	movlw	242
  2375  00197A  6E1F               	movwf	(___flmul@a+1)^0,c
  2376  00197C  0E49               	movlw	73
  2377  00197E  6E20               	movwf	(___flmul@a+2)^0,c
  2378  001980  0E71               	movlw	113
  2379  001982  6E21               	movwf	(___flmul@a+3)^0,c
  2380  001984  EC19  F022         	call	___flmul	;wreg free
  2381  001988  C01A  F08D         	movff	?___flmul,?_powf
  2382  00198C  C01B  F08E         	movff	?___flmul+1,?_powf+1
  2383  001990  C01C  F08F         	movff	?___flmul+2,?_powf+2
  2384  001994  C01D  F090         	movff	?___flmul+3,?_powf+3
  2385  001998  EF58  F01D         	goto	l1176
  2386  00199C                     l4655:
  2387                           
  2388                           ; BSR set to: 1
  2389  00199C  BFAB               	btfsc	(powf@ix+3)& (0+255),7,b
  2390  00199E  EFDE  F00C         	goto	u5281
  2391  0019A2  0E08               	movlw	8
  2392  0019A4  5DA8               	subwf	powf@ix& (0+255),w,b
  2393  0019A6  0E00               	movlw	0
  2394  0019A8  59A9               	subwfb	(powf@ix+1)& (0+255),w,b
  2395  0019AA  0E80               	movlw	128
  2396  0019AC  59AA               	subwfb	(powf@ix+2)& (0+255),w,b
  2397  0019AE  0E3F               	movlw	63
  2398  0019B0  59AB               	subwfb	(powf@ix+3)& (0+255),w,b
  2399  0019B2  A0D8               	btfss	status,0,c
  2400  0019B4  EFDE  F00C         	goto	u5281
  2401  0019B8  EFE0  F00C         	goto	u5280
  2402  0019BC                     u5281:
  2403  0019BC  EF5B  F00D         	goto	l4665
  2404  0019C0                     u5280:
  2405  0019C0                     
  2406                           ; BSR set to: 1
  2407  0019C0  BF7F               	btfsc	(powf@hy+3)& (0+255),7,b
  2408  0019C2  EFEF  F00C         	goto	u5290
  2409  0019C6  517F               	movf	(powf@hy+3)& (0+255),w,b
  2410  0019C8  117E               	iorwf	(powf@hy+2)& (0+255),w,b
  2411  0019CA  117D               	iorwf	(powf@hy+1)& (0+255),w,b
  2412  0019CC  E106               	bnz	u5291
  2413  0019CE  057C               	decf	powf@hy& (0+255),w,b
  2414  0019D0  B0D8               	btfsc	status,0,c
  2415  0019D2  EFED  F00C         	goto	u5291
  2416  0019D6  EFEF  F00C         	goto	u5290
  2417  0019DA                     u5291:
  2418  0019DA  EF25  F00D         	goto	l4661
  2419  0019DE                     u5290:
  2420  0019DE                     
  2421                           ; BSR set to: 1
  2422  0019DE  0E60               	movlw	96
  2423  0019E0  6E1E               	movwf	___flmul@a^0,c
  2424  0019E2  0E42               	movlw	66
  2425  0019E4  6E1F               	movwf	(___flmul@a+1)^0,c
  2426  0019E6  0EA2               	movlw	162
  2427  0019E8  6E20               	movwf	(___flmul@a+2)^0,c
  2428  0019EA  0E0D               	movlw	13
  2429  0019EC  6E21               	movwf	(___flmul@a+3)^0,c
  2430  0019EE  C188  F01A         	movff	powf@sn,___flmul@b
  2431  0019F2  C189  F01B         	movff	powf@sn+1,___flmul@b+1
  2432  0019F6  C18A  F01C         	movff	powf@sn+2,___flmul@b+2
  2433  0019FA  C18B  F01D         	movff	powf@sn+3,___flmul@b+3
  2434  0019FE  EC19  F022         	call	___flmul	;wreg free
  2435  001A02  C01A  F1A4         	movff	?___flmul,_powf$1390
  2436  001A06  C01B  F1A5         	movff	?___flmul+1,_powf$1390+1
  2437  001A0A  C01C  F1A6         	movff	?___flmul+2,_powf$1390+2
  2438  001A0E  C01D  F1A7         	movff	?___flmul+3,_powf$1390+3
  2439  001A12  C1A4  F01A         	movff	_powf$1390,___flmul@b
  2440  001A16  C1A5  F01B         	movff	_powf$1390+1,___flmul@b+1
  2441  001A1A  C1A6  F01C         	movff	_powf$1390+2,___flmul@b+2
  2442  001A1E  C1A7  F01D         	movff	_powf$1390+3,___flmul@b+3
  2443  001A22  0E60               	movlw	96
  2444  001A24  6E1E               	movwf	___flmul@a^0,c
  2445  001A26  0E42               	movlw	66
  2446  001A28  6E1F               	movwf	(___flmul@a+1)^0,c
  2447  001A2A  0EA2               	movlw	162
  2448  001A2C  6E20               	movwf	(___flmul@a+2)^0,c
  2449  001A2E  0E0D               	movlw	13
  2450  001A30  6E21               	movwf	(___flmul@a+3)^0,c
  2451  001A32  EC19  F022         	call	___flmul	;wreg free
  2452  001A36  C01A  F08D         	movff	?___flmul,?_powf
  2453  001A3A  C01B  F08E         	movff	?___flmul+1,?_powf+1
  2454  001A3E  C01C  F08F         	movff	?___flmul+2,?_powf+2
  2455  001A42  C01D  F090         	movff	?___flmul+3,?_powf+3
  2456  001A46  EF58  F01D         	goto	l1176
  2457  001A4A                     l4661:
  2458                           
  2459                           ; BSR set to: 1
  2460  001A4A  0ECA               	movlw	202
  2461  001A4C  6E1E               	movwf	___flmul@a^0,c
  2462  001A4E  0EF2               	movlw	242
  2463  001A50  6E1F               	movwf	(___flmul@a+1)^0,c
  2464  001A52  0E49               	movlw	73
  2465  001A54  6E20               	movwf	(___flmul@a+2)^0,c
  2466  001A56  0E71               	movlw	113
  2467  001A58  6E21               	movwf	(___flmul@a+3)^0,c
  2468  001A5A  C188  F01A         	movff	powf@sn,___flmul@b
  2469  001A5E  C189  F01B         	movff	powf@sn+1,___flmul@b+1
  2470  001A62  C18A  F01C         	movff	powf@sn+2,___flmul@b+2
  2471  001A66  C18B  F01D         	movff	powf@sn+3,___flmul@b+3
  2472  001A6A  EC19  F022         	call	___flmul	;wreg free
  2473  001A6E  C01A  F1A4         	movff	?___flmul,_powf$1390
  2474  001A72  C01B  F1A5         	movff	?___flmul+1,_powf$1390+1
  2475  001A76  C01C  F1A6         	movff	?___flmul+2,_powf$1390+2
  2476  001A7A  C01D  F1A7         	movff	?___flmul+3,_powf$1390+3
  2477  001A7E  C1A4  F01A         	movff	_powf$1390,___flmul@b
  2478  001A82  C1A5  F01B         	movff	_powf$1390+1,___flmul@b+1
  2479  001A86  C1A6  F01C         	movff	_powf$1390+2,___flmul@b+2
  2480  001A8A  C1A7  F01D         	movff	_powf$1390+3,___flmul@b+3
  2481  001A8E  0ECA               	movlw	202
  2482  001A90  6E1E               	movwf	___flmul@a^0,c
  2483  001A92  0EF2               	movlw	242
  2484  001A94  6E1F               	movwf	(___flmul@a+1)^0,c
  2485  001A96  0E49               	movlw	73
  2486  001A98  6E20               	movwf	(___flmul@a+2)^0,c
  2487  001A9A  0E71               	movlw	113
  2488  001A9C  6E21               	movwf	(___flmul@a+3)^0,c
  2489  001A9E  EC19  F022         	call	___flmul	;wreg free
  2490  001AA2  C01A  F08D         	movff	?___flmul,?_powf
  2491  001AA6  C01B  F08E         	movff	?___flmul+1,?_powf+1
  2492  001AAA  C01C  F08F         	movff	?___flmul+2,?_powf+2
  2493  001AAE  C01D  F090         	movff	?___flmul+3,?_powf+3
  2494  001AB2  EF58  F01D         	goto	l1176
  2495  001AB6                     l4665:
  2496                           
  2497                           ; BSR set to: 1
  2498  001AB6  C170  F00A         	movff	powf@ax,___fladd@b
  2499  001ABA  C171  F00B         	movff	powf@ax+1,___fladd@b+1
  2500  001ABE  C172  F00C         	movff	powf@ax+2,___fladd@b+2
  2501  001AC2  C173  F00D         	movff	powf@ax+3,___fladd@b+3
  2502  001AC6  0E00               	movlw	0
  2503  001AC8  6E0E               	movwf	___fladd@a^0,c
  2504  001ACA  0E00               	movlw	0
  2505  001ACC  6E0F               	movwf	(___fladd@a+1)^0,c
  2506  001ACE  0E80               	movlw	128
  2507  001AD0  6E10               	movwf	(___fladd@a+2)^0,c
  2508  001AD2  0EBF               	movlw	191
  2509  001AD4  6E11               	movwf	(___fladd@a+3)^0,c
  2510  001AD6  ECB9  F01F         	call	___fladd	;wreg free
  2511  001ADA  C00A  F1B0         	movff	?___fladd,powf@t
  2512  001ADE  C00B  F1B1         	movff	?___fladd+1,powf@t+1
  2513  001AE2  C00C  F1B2         	movff	?___fladd+2,powf@t+2
  2514  001AE6  C00D  F1B3         	movff	?___fladd+3,powf@t+3
  2515  001AEA  0E00               	movlw	0
  2516  001AEC  6E1E               	movwf	___flmul@a^0,c
  2517  001AEE  0E00               	movlw	0
  2518  001AF0  6E1F               	movwf	(___flmul@a+1)^0,c
  2519  001AF2  0E80               	movlw	128
  2520  001AF4  6E20               	movwf	(___flmul@a+2)^0,c
  2521  001AF6  0E3E               	movlw	62
  2522  001AF8  6E21               	movwf	(___flmul@a+3)^0,c
  2523  001AFA  C1B0  F01A         	movff	powf@t,___flmul@b
  2524  001AFE  C1B1  F01B         	movff	powf@t+1,___flmul@b+1
  2525  001B02  C1B2  F01C         	movff	powf@t+2,___flmul@b+2
  2526  001B06  C1B3  F01D         	movff	powf@t+3,___flmul@b+3
  2527  001B0A  EC19  F022         	call	___flmul	;wreg free
  2528  001B0E  C01A  F037         	movff	?___flmul,___flsub@a
  2529  001B12  C01B  F038         	movff	?___flmul+1,___flsub@a+1
  2530  001B16  C01C  F039         	movff	?___flmul+2,___flsub@a+2
  2531  001B1A  C01D  F03A         	movff	?___flmul+3,___flsub@a+3
  2532  001B1E  0EAB               	movlw	171
  2533  001B20  6E33               	movwf	___flsub@b^0,c
  2534  001B22  0EAA               	movlw	170
  2535  001B24  6E34               	movwf	(___flsub@b+1)^0,c
  2536  001B26  0EAA               	movlw	170
  2537  001B28  6E35               	movwf	(___flsub@b+2)^0,c
  2538  001B2A  0E3E               	movlw	62
  2539  001B2C  6E36               	movwf	(___flsub@b+3)^0,c
  2540  001B2E  EC57  F02C         	call	___flsub	;wreg free
  2541  001B32  C033  F1A4         	movff	?___flsub,_powf$1390
  2542  001B36  C034  F1A5         	movff	?___flsub+1,_powf$1390+1
  2543  001B3A  C035  F1A6         	movff	?___flsub+2,_powf$1390+2
  2544  001B3E  C036  F1A7         	movff	?___flsub+3,_powf$1390+3
  2545  001B42  C1B0  F01E         	movff	powf@t,___flmul@a
  2546  001B46  C1B1  F01F         	movff	powf@t+1,___flmul@a+1
  2547  001B4A  C1B2  F020         	movff	powf@t+2,___flmul@a+2
  2548  001B4E  C1B3  F021         	movff	powf@t+3,___flmul@a+3
  2549  001B52  C1B0  F01A         	movff	powf@t,___flmul@b
  2550  001B56  C1B1  F01B         	movff	powf@t+1,___flmul@b+1
  2551  001B5A  C1B2  F01C         	movff	powf@t+2,___flmul@b+2
  2552  001B5E  C1B3  F01D         	movff	powf@t+3,___flmul@b+3
  2553  001B62  EC19  F022         	call	___flmul	;wreg free
  2554  001B66  C01A  F154         	movff	?___flmul,_powf$1391
  2555  001B6A  C01B  F155         	movff	?___flmul+1,_powf$1391+1
  2556  001B6E  C01C  F156         	movff	?___flmul+2,_powf$1391+2
  2557  001B72  C01D  F157         	movff	?___flmul+3,_powf$1391+3
  2558  001B76  C1B0  F01E         	movff	powf@t,___flmul@a
  2559  001B7A  C1B1  F01F         	movff	powf@t+1,___flmul@a+1
  2560  001B7E  C1B2  F020         	movff	powf@t+2,___flmul@a+2
  2561  001B82  C1B3  F021         	movff	powf@t+3,___flmul@a+3
  2562  001B86  C1A4  F01A         	movff	_powf$1390,___flmul@b
  2563  001B8A  C1A5  F01B         	movff	_powf$1390+1,___flmul@b+1
  2564  001B8E  C1A6  F01C         	movff	_powf$1390+2,___flmul@b+2
  2565  001B92  C1A7  F01D         	movff	_powf$1390+3,___flmul@b+3
  2566  001B96  EC19  F022         	call	___flmul	;wreg free
  2567  001B9A  C01A  F037         	movff	?___flmul,___flsub@a
  2568  001B9E  C01B  F038         	movff	?___flmul+1,___flsub@a+1
  2569  001BA2  C01C  F039         	movff	?___flmul+2,___flsub@a+2
  2570  001BA6  C01D  F03A         	movff	?___flmul+3,___flsub@a+3
  2571  001BAA  0E00               	movlw	0
  2572  001BAC  6E33               	movwf	___flsub@b^0,c
  2573  001BAE  0E00               	movlw	0
  2574  001BB0  6E34               	movwf	(___flsub@b+1)^0,c
  2575  001BB2  0E00               	movlw	0
  2576  001BB4  6E35               	movwf	(___flsub@b+2)^0,c
  2577  001BB6  0E3F               	movlw	63
  2578  001BB8  6E36               	movwf	(___flsub@b+3)^0,c
  2579  001BBA  EC57  F02C         	call	___flsub	;wreg free
  2580  001BBE  C033  F148         	movff	?___flsub,_powf$1392
  2581  001BC2  C034  F149         	movff	?___flsub+1,_powf$1392+1
  2582  001BC6  C035  F14A         	movff	?___flsub+2,_powf$1392+2
  2583  001BCA  C036  F14B         	movff	?___flsub+3,_powf$1392+3
  2584  001BCE  C154  F01A         	movff	_powf$1391,___flmul@b
  2585  001BD2  C155  F01B         	movff	_powf$1391+1,___flmul@b+1
  2586  001BD6  C156  F01C         	movff	_powf$1391+2,___flmul@b+2
  2587  001BDA  C157  F01D         	movff	_powf$1391+3,___flmul@b+3
  2588  001BDE  C148  F01E         	movff	_powf$1392,___flmul@a
  2589  001BE2  C149  F01F         	movff	_powf$1392+1,___flmul@a+1
  2590  001BE6  C14A  F020         	movff	_powf$1392+2,___flmul@a+2
  2591  001BEA  C14B  F021         	movff	_powf$1392+3,___flmul@a+3
  2592  001BEE  EC19  F022         	call	___flmul	;wreg free
  2593  001BF2  C01A  F144         	movff	?___flmul,powf@w
  2594  001BF6  C01B  F145         	movff	?___flmul+1,powf@w+1
  2595  001BFA  C01C  F146         	movff	?___flmul+2,powf@w+2
  2596  001BFE  C01D  F147         	movff	?___flmul+3,powf@w+3
  2597  001C02  C1B0  F01A         	movff	powf@t,___flmul@b
  2598  001C06  C1B1  F01B         	movff	powf@t+1,___flmul@b+1
  2599  001C0A  C1B2  F01C         	movff	powf@t+2,___flmul@b+2
  2600  001C0E  C1B3  F01D         	movff	powf@t+3,___flmul@b+3
  2601  001C12  0E00               	movlw	0
  2602  001C14  6E1E               	movwf	___flmul@a^0,c
  2603  001C16  0EAA               	movlw	170
  2604  001C18  6E1F               	movwf	(___flmul@a+1)^0,c
  2605  001C1A  0EB8               	movlw	184
  2606  001C1C  6E20               	movwf	(___flmul@a+2)^0,c
  2607  001C1E  0E3F               	movlw	63
  2608  001C20  6E21               	movwf	(___flmul@a+3)^0,c
  2609  001C22  EC19  F022         	call	___flmul	;wreg free
  2610  001C26  C01A  F174         	movff	?___flmul,powf@u
  2611  001C2A  C01B  F175         	movff	?___flmul+1,powf@u+1
  2612  001C2E  C01C  F176         	movff	?___flmul+2,powf@u+2
  2613  001C32  C01D  F177         	movff	?___flmul+3,powf@u+3
  2614  001C36  0E70               	movlw	112
  2615  001C38  6E1E               	movwf	___flmul@a^0,c
  2616  001C3A  0EA5               	movlw	165
  2617  001C3C  6E1F               	movwf	(___flmul@a+1)^0,c
  2618  001C3E  0EEC               	movlw	236
  2619  001C40  6E20               	movwf	(___flmul@a+2)^0,c
  2620  001C42  0E36               	movlw	54
  2621  001C44  6E21               	movwf	(___flmul@a+3)^0,c
  2622  001C46  C1B0  F01A         	movff	powf@t,___flmul@b
  2623  001C4A  C1B1  F01B         	movff	powf@t+1,___flmul@b+1
  2624  001C4E  C1B2  F01C         	movff	powf@t+2,___flmul@b+2
  2625  001C52  C1B3  F01D         	movff	powf@t+3,___flmul@b+3
  2626  001C56  EC19  F022         	call	___flmul	;wreg free
  2627  001C5A  C01A  F033         	movff	?___flmul,___flsub@b
  2628  001C5E  C01B  F034         	movff	?___flmul+1,___flsub@b+1
  2629  001C62  C01C  F035         	movff	?___flmul+2,___flsub@b+2
  2630  001C66  C01D  F036         	movff	?___flmul+3,___flsub@b+3
  2631  001C6A  0E3B               	movlw	59
  2632  001C6C  6E1E               	movwf	___flmul@a^0,c
  2633  001C6E  0EAA               	movlw	170
  2634  001C70  6E1F               	movwf	(___flmul@a+1)^0,c
  2635  001C72  0EB8               	movlw	184
  2636  001C74  6E20               	movwf	(___flmul@a+2)^0,c
  2637  001C76  0E3F               	movlw	63
  2638  001C78  6E21               	movwf	(___flmul@a+3)^0,c
  2639  001C7A  C144  F01A         	movff	powf@w,___flmul@b
  2640  001C7E  C145  F01B         	movff	powf@w+1,___flmul@b+1
  2641  001C82  C146  F01C         	movff	powf@w+2,___flmul@b+2
  2642  001C86  C147  F01D         	movff	powf@w+3,___flmul@b+3
  2643  001C8A  EC19  F022         	call	___flmul	;wreg free
  2644  001C8E  C01A  F037         	movff	?___flmul,___flsub@a
  2645  001C92  C01B  F038         	movff	?___flmul+1,___flsub@a+1
  2646  001C96  C01C  F039         	movff	?___flmul+2,___flsub@a+2
  2647  001C9A  C01D  F03A         	movff	?___flmul+3,___flsub@a+3
  2648  001C9E  EC57  F02C         	call	___flsub	;wreg free
  2649  001CA2  C033  F178         	movff	?___flsub,powf@v
  2650  001CA6  C034  F179         	movff	?___flsub+1,powf@v+1
  2651  001CAA  C035  F17A         	movff	?___flsub+2,powf@v+2
  2652  001CAE  C036  F17B         	movff	?___flsub+3,powf@v+3
  2653  001CB2  C174  F00A         	movff	powf@u,___fladd@b
  2654  001CB6  C175  F00B         	movff	powf@u+1,___fladd@b+1
  2655  001CBA  C176  F00C         	movff	powf@u+2,___fladd@b+2
  2656  001CBE  C177  F00D         	movff	powf@u+3,___fladd@b+3
  2657  001CC2  C178  F00E         	movff	powf@v,___fladd@a
  2658  001CC6  C179  F00F         	movff	powf@v+1,___fladd@a+1
  2659  001CCA  C17A  F010         	movff	powf@v+2,___fladd@a+2
  2660  001CCE  C17B  F011         	movff	powf@v+3,___fladd@a+3
  2661  001CD2  ECB9  F01F         	call	___fladd	;wreg free
  2662  001CD6  C00A  F184         	movff	?___fladd,powf@t1
  2663  001CDA  C00B  F185         	movff	?___fladd+1,powf@t1+1
  2664  001CDE  C00C  F186         	movff	?___fladd+2,powf@t1+2
  2665  001CE2  C00D  F187         	movff	?___fladd+3,powf@t1+3
  2666  001CE6  C184  F1B8         	movff	powf@t1,powf@__xc8_float_word
  2667  001CEA  C185  F1B9         	movff	powf@t1+1,powf@__xc8_float_word+1
  2668  001CEE  C186  F1BA         	movff	powf@t1+2,powf@__xc8_float_word+2
  2669  001CF2  C187  F1BB         	movff	powf@t1+3,powf@__xc8_float_word+3
  2670  001CF6  C1B8  F194         	movff	powf@__xc8_float_word,powf@is
  2671  001CFA  C1B9  F195         	movff	powf@__xc8_float_word+1,powf@is+1
  2672  001CFE  C1BA  F196         	movff	powf@__xc8_float_word+2,powf@is+2
  2673  001D02  C1BB  F197         	movff	powf@__xc8_float_word+3,powf@is+3
  2674  001D06  0E00               	movlw	0
  2675  001D08  0101               	movlb	1	; () banked
  2676  001D0A  1594               	andwf	powf@is& (0+255),w,b
  2677  001D0C  6FB8               	movwf	powf@__xc8_float_word& (0+255),b
  2678  001D0E  0EF0               	movlw	240
  2679  001D10  1595               	andwf	(powf@is+1)& (0+255),w,b
  2680  001D12  6FB9               	movwf	(powf@__xc8_float_word+1)& (0+255),b
  2681  001D14  0EFF               	movlw	255
  2682  001D16  1596               	andwf	(powf@is+2)& (0+255),w,b
  2683  001D18  6FBA               	movwf	(powf@__xc8_float_word+2)& (0+255),b
  2684  001D1A  0EFF               	movlw	255
  2685  001D1C  1597               	andwf	(powf@is+3)& (0+255),w,b
  2686  001D1E  6FBB               	movwf	(powf@__xc8_float_word+3)& (0+255),b
  2687  001D20                     
  2688                           ; BSR set to: 1
  2689  001D20  C1B8  F184         	movff	powf@__xc8_float_word,powf@t1
  2690  001D24  C1B9  F185         	movff	powf@__xc8_float_word+1,powf@t1+1
  2691  001D28  C1BA  F186         	movff	powf@__xc8_float_word+2,powf@t1+2
  2692  001D2C  C1BB  F187         	movff	powf@__xc8_float_word+3,powf@t1+3
  2693  001D30                     
  2694                           ; BSR set to: 1
  2695  001D30  C174  F037         	movff	powf@u,___flsub@a
  2696  001D34  C175  F038         	movff	powf@u+1,___flsub@a+1
  2697  001D38  C176  F039         	movff	powf@u+2,___flsub@a+2
  2698  001D3C  C177  F03A         	movff	powf@u+3,___flsub@a+3
  2699  001D40  C184  F033         	movff	powf@t1,___flsub@b
  2700  001D44  C185  F034         	movff	powf@t1+1,___flsub@b+1
  2701  001D48  C186  F035         	movff	powf@t1+2,___flsub@b+2
  2702  001D4C  C187  F036         	movff	powf@t1+3,___flsub@b+3
  2703  001D50  EC57  F02C         	call	___flsub	;wreg free
  2704  001D54  C033  F198         	movff	?___flsub,_powf$1393
  2705  001D58  C034  F199         	movff	?___flsub+1,_powf$1393+1
  2706  001D5C  C035  F19A         	movff	?___flsub+2,_powf$1393+2
  2707  001D60  C036  F19B         	movff	?___flsub+3,_powf$1393+3
  2708  001D64  C178  F033         	movff	powf@v,___flsub@b
  2709  001D68  C179  F034         	movff	powf@v+1,___flsub@b+1
  2710  001D6C  C17A  F035         	movff	powf@v+2,___flsub@b+2
  2711  001D70  C17B  F036         	movff	powf@v+3,___flsub@b+3
  2712  001D74  C198  F037         	movff	_powf$1393,___flsub@a
  2713  001D78  C199  F038         	movff	_powf$1393+1,___flsub@a+1
  2714  001D7C  C19A  F039         	movff	_powf$1393+2,___flsub@a+2
  2715  001D80  C19B  F03A         	movff	_powf$1393+3,___flsub@a+3
  2716  001D84  EC57  F02C         	call	___flsub	;wreg free
  2717  001D88  C033  F11C         	movff	?___flsub,powf@t2
  2718  001D8C  C034  F11D         	movff	?___flsub+1,powf@t2+1
  2719  001D90  C035  F11E         	movff	?___flsub+2,powf@t2+2
  2720  001D94  C036  F11F         	movff	?___flsub+3,powf@t2+3
  2721  001D98  EF4E  F016         	goto	l4847
  2722  001D9C                     l4691:
  2723                           
  2724                           ; BSR set to: 1
  2725  001D9C  0E00               	movlw	0
  2726  001D9E  6F80               	movwf	powf@n& (0+255),b
  2727  001DA0  0E00               	movlw	0
  2728  001DA2  6F81               	movwf	(powf@n+1)& (0+255),b
  2729  001DA4  0E00               	movlw	0
  2730  001DA6  6F82               	movwf	(powf@n+2)& (0+255),b
  2731  001DA8  0E00               	movlw	0
  2732  001DAA  6F83               	movwf	(powf@n+3)& (0+255),b
  2733  001DAC                     
  2734                           ; BSR set to: 1
  2735  001DAC  BFAB               	btfsc	(powf@ix+3)& (0+255),7,b
  2736  001DAE  EFE4  F00E         	goto	u5300
  2737  001DB2  51AB               	movf	(powf@ix+3)& (0+255),w,b
  2738  001DB4  E107               	bnz	u5301
  2739  001DB6  0E80               	movlw	128
  2740  001DB8  5DAA               	subwf	(powf@ix+2)& (0+255),w,b
  2741  001DBA  B0D8               	btfsc	status,0,c
  2742  001DBC  EFE2  F00E         	goto	u5301
  2743  001DC0  EFE4  F00E         	goto	u5300
  2744  001DC4                     u5301:
  2745  001DC4  EF17  F00F         	goto	l4703
  2746  001DC8                     u5300:
  2747  001DC8                     
  2748                           ; BSR set to: 1
  2749  001DC8  C170  F01A         	movff	powf@ax,___flmul@b
  2750  001DCC  C171  F01B         	movff	powf@ax+1,___flmul@b+1
  2751  001DD0  C172  F01C         	movff	powf@ax+2,___flmul@b+2
  2752  001DD4  C173  F01D         	movff	powf@ax+3,___flmul@b+3
  2753  001DD8  0E00               	movlw	0
  2754  001DDA  6E1E               	movwf	___flmul@a^0,c
  2755  001DDC  0E00               	movlw	0
  2756  001DDE  6E1F               	movwf	(___flmul@a+1)^0,c
  2757  001DE0  0E80               	movlw	128
  2758  001DE2  6E20               	movwf	(___flmul@a+2)^0,c
  2759  001DE4  0E4B               	movlw	75
  2760  001DE6  6E21               	movwf	(___flmul@a+3)^0,c
  2761  001DE8  EC19  F022         	call	___flmul	;wreg free
  2762  001DEC  C01A  F170         	movff	?___flmul,powf@ax
  2763  001DF0  C01B  F171         	movff	?___flmul+1,powf@ax+1
  2764  001DF4  C01C  F172         	movff	?___flmul+2,powf@ax+2
  2765  001DF8  C01D  F173         	movff	?___flmul+3,powf@ax+3
  2766  001DFC  0EE8               	movlw	232
  2767  001DFE  0101               	movlb	1	; () banked
  2768  001E00  2780               	addwf	powf@n& (0+255),f,b
  2769  001E02  0EFF               	movlw	255
  2770  001E04  2381               	addwfc	(powf@n+1)& (0+255),f,b
  2771  001E06  0EFF               	movlw	255
  2772  001E08  2382               	addwfc	(powf@n+2)& (0+255),f,b
  2773  001E0A  0EFF               	movlw	255
  2774  001E0C  2383               	addwfc	(powf@n+3)& (0+255),f,b
  2775  001E0E                     
  2776                           ; BSR set to: 1
  2777  001E0E  C170  F1B8         	movff	powf@ax,powf@__xc8_float_word
  2778  001E12  C171  F1B9         	movff	powf@ax+1,powf@__xc8_float_word+1
  2779  001E16  C172  F1BA         	movff	powf@ax+2,powf@__xc8_float_word+2
  2780  001E1A  C173  F1BB         	movff	powf@ax+3,powf@__xc8_float_word+3
  2781  001E1E                     
  2782                           ; BSR set to: 1
  2783  001E1E  C1B8  F1A8         	movff	powf@__xc8_float_word,powf@ix
  2784  001E22  C1B9  F1A9         	movff	powf@__xc8_float_word+1,powf@ix+1
  2785  001E26  C1BA  F1AA         	movff	powf@__xc8_float_word+2,powf@ix+2
  2786  001E2A  C1BB  F1AB         	movff	powf@__xc8_float_word+3,powf@ix+3
  2787  001E2E                     l4703:
  2788                           
  2789                           ; BSR set to: 1
  2790  001E2E  0E17               	movlw	23
  2791  001E30  0100               	movlb	0	; () banked
  2792  001E32  6F95               	movwf	??_powf& (0+255),b
  2793  001E34  C1A8  F096         	movff	powf@ix,??_powf+1
  2794  001E38  C1A9  F097         	movff	powf@ix+1,??_powf+2
  2795  001E3C  C1AA  F098         	movff	powf@ix+2,??_powf+3
  2796  001E40  C1AB  F099         	movff	powf@ix+3,??_powf+4
  2797  001E44                     u5315:
  2798  001E44  6795               	tstfsz	??_powf& (0+255),b
  2799  001E46  EF27  F00F         	goto	u5316
  2800  001E4A  EF2F  F00F         	goto	u5317
  2801  001E4E                     u5316:
  2802  001E4E  3599               	rlcf	(??_powf+4)& (0+255),w,b
  2803  001E50  3399               	rrcf	(??_powf+4)& (0+255),f,b
  2804  001E52  3398               	rrcf	(??_powf+3)& (0+255),f,b
  2805  001E54  3397               	rrcf	(??_powf+2)& (0+255),f,b
  2806  001E56  3396               	rrcf	(??_powf+1)& (0+255),f,b
  2807  001E58  2F95               	decfsz	??_powf& (0+255),f,b
  2808  001E5A  EF22  F00F         	goto	u5315
  2809  001E5E                     u5317:
  2810  001E5E  0E81               	movlw	129
  2811  001E60  0100               	movlb	0	; () banked
  2812  001E62  2596               	addwf	(??_powf+1)& (0+255),w,b
  2813  001E64  6F9A               	movwf	(??_powf+5)& (0+255),b
  2814  001E66  0EFF               	movlw	255
  2815  001E68  2197               	addwfc	(??_powf+2)& (0+255),w,b
  2816  001E6A  6F9B               	movwf	(??_powf+6)& (0+255),b
  2817  001E6C  0EFF               	movlw	255
  2818  001E6E  2198               	addwfc	(??_powf+3)& (0+255),w,b
  2819  001E70  6F9C               	movwf	(??_powf+7)& (0+255),b
  2820  001E72  0EFF               	movlw	255
  2821  001E74  2199               	addwfc	(??_powf+4)& (0+255),w,b
  2822  001E76  6F9D               	movwf	(??_powf+8)& (0+255),b
  2823  001E78  519A               	movf	(??_powf+5)& (0+255),w,b
  2824  001E7A  0101               	movlb	1	; () banked
  2825  001E7C  2780               	addwf	powf@n& (0+255),f,b
  2826  001E7E  0100               	movlb	0	; () banked
  2827  001E80  519B               	movf	(??_powf+6)& (0+255),w,b
  2828  001E82  0101               	movlb	1	; () banked
  2829  001E84  2381               	addwfc	(powf@n+1)& (0+255),f,b
  2830  001E86  0100               	movlb	0	; () banked
  2831  001E88  519C               	movf	(??_powf+7)& (0+255),w,b
  2832  001E8A  0101               	movlb	1	; () banked
  2833  001E8C  2382               	addwfc	(powf@n+2)& (0+255),f,b
  2834  001E8E  0100               	movlb	0	; () banked
  2835  001E90  519D               	movf	(??_powf+8)& (0+255),w,b
  2836  001E92  0101               	movlb	1	; () banked
  2837  001E94  2383               	addwfc	(powf@n+3)& (0+255),f,b
  2838  001E96                     
  2839                           ; BSR set to: 1
  2840  001E96  0EFF               	movlw	255
  2841  001E98  15A8               	andwf	powf@ix& (0+255),w,b
  2842  001E9A  6FAC               	movwf	powf@j& (0+255),b
  2843  001E9C  0EFF               	movlw	255
  2844  001E9E  15A9               	andwf	(powf@ix+1)& (0+255),w,b
  2845  001EA0  6FAD               	movwf	(powf@j+1)& (0+255),b
  2846  001EA2  0E7F               	movlw	127
  2847  001EA4  15AA               	andwf	(powf@ix+2)& (0+255),w,b
  2848  001EA6  6FAE               	movwf	(powf@j+2)& (0+255),b
  2849  001EA8  0E00               	movlw	0
  2850  001EAA  15AB               	andwf	(powf@ix+3)& (0+255),w,b
  2851  001EAC  6FAF               	movwf	(powf@j+3)& (0+255),b
  2852  001EAE                     
  2853                           ; BSR set to: 1
  2854  001EAE  0E00               	movlw	0
  2855  001EB0  11AC               	iorwf	powf@j& (0+255),w,b
  2856  001EB2  6FA8               	movwf	powf@ix& (0+255),b
  2857  001EB4  0E00               	movlw	0
  2858  001EB6  11AD               	iorwf	(powf@j+1)& (0+255),w,b
  2859  001EB8  6FA9               	movwf	(powf@ix+1)& (0+255),b
  2860  001EBA  0E80               	movlw	128
  2861  001EBC  11AE               	iorwf	(powf@j+2)& (0+255),w,b
  2862  001EBE  6FAA               	movwf	(powf@ix+2)& (0+255),b
  2863  001EC0  0E3F               	movlw	63
  2864  001EC2  11AF               	iorwf	(powf@j+3)& (0+255),w,b
  2865  001EC4  6FAB               	movwf	(powf@ix+3)& (0+255),b
  2866  001EC6                     
  2867                           ; BSR set to: 1
  2868  001EC6  BFAF               	btfsc	(powf@j+3)& (0+255),7,b
  2869  001EC8  EF75  F00F         	goto	u5320
  2870  001ECC  51AF               	movf	(powf@j+3)& (0+255),w,b
  2871  001ECE  E10B               	bnz	u5321
  2872  001ED0  0E72               	movlw	114
  2873  001ED2  5DAC               	subwf	powf@j& (0+255),w,b
  2874  001ED4  0EC4               	movlw	196
  2875  001ED6  59AD               	subwfb	(powf@j+1)& (0+255),w,b
  2876  001ED8  0E1C               	movlw	28
  2877  001EDA  59AE               	subwfb	(powf@j+2)& (0+255),w,b
  2878  001EDC  B0D8               	btfsc	status,0,c
  2879  001EDE  EF73  F00F         	goto	u5321
  2880  001EE2  EF75  F00F         	goto	u5320
  2881  001EE6                     u5321:
  2882  001EE6  EF7F  F00F         	goto	l4713
  2883  001EEA                     u5320:
  2884  001EEA                     
  2885                           ; BSR set to: 1
  2886  001EEA  0E00               	movlw	0
  2887  001EEC  6FA0               	movwf	powf@k& (0+255),b
  2888  001EEE  0E00               	movlw	0
  2889  001EF0  6FA1               	movwf	(powf@k+1)& (0+255),b
  2890  001EF2  0E00               	movlw	0
  2891  001EF4  6FA2               	movwf	(powf@k+2)& (0+255),b
  2892  001EF6  0E00               	movlw	0
  2893  001EF8  6FA3               	movwf	(powf@k+3)& (0+255),b
  2894  001EFA  EFB1  F00F         	goto	l4723
  2895  001EFE                     l4713:
  2896                           
  2897                           ; BSR set to: 1
  2898  001EFE  BFAF               	btfsc	(powf@j+3)& (0+255),7,b
  2899  001F00  EF91  F00F         	goto	u5330
  2900  001F04  51AF               	movf	(powf@j+3)& (0+255),w,b
  2901  001F06  E10B               	bnz	u5331
  2902  001F08  0ED7               	movlw	215
  2903  001F0A  5DAC               	subwf	powf@j& (0+255),w,b
  2904  001F0C  0EB3               	movlw	179
  2905  001F0E  59AD               	subwfb	(powf@j+1)& (0+255),w,b
  2906  001F10  0E5D               	movlw	93
  2907  001F12  59AE               	subwfb	(powf@j+2)& (0+255),w,b
  2908  001F14  B0D8               	btfsc	status,0,c
  2909  001F16  EF8F  F00F         	goto	u5331
  2910  001F1A  EF91  F00F         	goto	u5330
  2911  001F1E                     u5331:
  2912  001F1E  EF9B  F00F         	goto	l4717
  2913  001F22                     u5330:
  2914  001F22                     
  2915                           ; BSR set to: 1
  2916  001F22  0E01               	movlw	1
  2917  001F24  6FA0               	movwf	powf@k& (0+255),b
  2918  001F26  0E00               	movlw	0
  2919  001F28  6FA1               	movwf	(powf@k+1)& (0+255),b
  2920  001F2A  0E00               	movlw	0
  2921  001F2C  6FA2               	movwf	(powf@k+2)& (0+255),b
  2922  001F2E  0E00               	movlw	0
  2923  001F30  6FA3               	movwf	(powf@k+3)& (0+255),b
  2924  001F32  EFB1  F00F         	goto	l4723
  2925  001F36                     l4717:
  2926                           
  2927                           ; BSR set to: 1
  2928  001F36  0E00               	movlw	0
  2929  001F38  6FA0               	movwf	powf@k& (0+255),b
  2930  001F3A  0E00               	movlw	0
  2931  001F3C  6FA1               	movwf	(powf@k+1)& (0+255),b
  2932  001F3E  0E00               	movlw	0
  2933  001F40  6FA2               	movwf	(powf@k+2)& (0+255),b
  2934  001F42  0E00               	movlw	0
  2935  001F44  6FA3               	movwf	(powf@k+3)& (0+255),b
  2936  001F46                     
  2937                           ; BSR set to: 1
  2938  001F46  0E01               	movlw	1
  2939  001F48  2780               	addwf	powf@n& (0+255),f,b
  2940  001F4A  0E00               	movlw	0
  2941  001F4C  2381               	addwfc	(powf@n+1)& (0+255),f,b
  2942  001F4E  2382               	addwfc	(powf@n+2)& (0+255),f,b
  2943  001F50  2383               	addwfc	(powf@n+3)& (0+255),f,b
  2944  001F52                     
  2945                           ; BSR set to: 1
  2946  001F52  0E00               	movlw	0
  2947  001F54  27A8               	addwf	powf@ix& (0+255),f,b
  2948  001F56  0E00               	movlw	0
  2949  001F58  23A9               	addwfc	(powf@ix+1)& (0+255),f,b
  2950  001F5A  0E80               	movlw	128
  2951  001F5C  23AA               	addwfc	(powf@ix+2)& (0+255),f,b
  2952  001F5E  0EFF               	movlw	255
  2953  001F60  23AB               	addwfc	(powf@ix+3)& (0+255),f,b
  2954  001F62                     l4723:
  2955                           
  2956                           ; BSR set to: 1
  2957  001F62  C1A8  F1B8         	movff	powf@ix,powf@__xc8_float_word
  2958  001F66  C1A9  F1B9         	movff	powf@ix+1,powf@__xc8_float_word+1
  2959  001F6A  C1AA  F1BA         	movff	powf@ix+2,powf@__xc8_float_word+2
  2960  001F6E  C1AB  F1BB         	movff	powf@ix+3,powf@__xc8_float_word+3
  2961  001F72                     
  2962                           ; BSR set to: 1
  2963  001F72  C1B8  F170         	movff	powf@__xc8_float_word,powf@ax
  2964  001F76  C1B9  F171         	movff	powf@__xc8_float_word+1,powf@ax+1
  2965  001F7A  C1BA  F172         	movff	powf@__xc8_float_word+2,powf@ax+2
  2966  001F7E  C1BB  F173         	movff	powf@__xc8_float_word+3,powf@ax+3
  2967  001F82                     
  2968                           ; BSR set to: 1
  2969  001F82  C170  F033         	movff	powf@ax,___flsub@b
  2970  001F86  C171  F034         	movff	powf@ax+1,___flsub@b+1
  2971  001F8A  C172  F035         	movff	powf@ax+2,___flsub@b+2
  2972  001F8E  C173  F036         	movff	powf@ax+3,___flsub@b+3
  2973  001F92  C1A0  F095         	movff	powf@k,??_powf
  2974  001F96  C1A1  F096         	movff	powf@k+1,??_powf+1
  2975  001F9A  0100               	movlb	0	; () banked
  2976  001F9C  90D8               	bcf	status,0,c
  2977  001F9E  3795               	rlcf	??_powf& (0+255),f,b
  2978  001FA0  3796               	rlcf	(??_powf+1)& (0+255),f,b
  2979  001FA2  90D8               	bcf	status,0,c
  2980  001FA4  3795               	rlcf	??_powf& (0+255),f,b
  2981  001FA6  3796               	rlcf	(??_powf+1)& (0+255),f,b
  2982  001FA8  0E69               	movlw	low _bp
  2983  001FAA  2595               	addwf	??_powf& (0+255),w,b
  2984  001FAC  6EF6               	movwf	tblptrl,c
  2985  001FAE  0E10               	movlw	high _bp
  2986  001FB0  2196               	addwfc	(??_powf+1)& (0+255),w,b
  2987  001FB2  6EF7               	movwf	tblptrh,c
  2988  001FB4                     	if	1	;There are 3 active tblptr bytes
  2989  001FB4  6AF8               	clrf	tblptru,c
  2990  001FB6  0E00               	movlw	low (__mediumconst shr (0+16))
  2991  001FB8  22F8               	addwfc	tblptru,f,c
  2992  001FBA                     	endif
  2993  001FBA  0009               	tblrd		*+
  2994  001FBC  CFF5 F037          	movff	tablat,___flsub@a
  2995  001FC0  0009               	tblrd		*+
  2996  001FC2  CFF5 F038          	movff	tablat,___flsub@a+1
  2997  001FC6  0009               	tblrd		*+
  2998  001FC8  CFF5 F039          	movff	tablat,___flsub@a+2
  2999  001FCC  000A               	tblrd		*-
  3000  001FCE  CFF5 F03A          	movff	tablat,___flsub@a+3
  3001  001FD2  EC57  F02C         	call	___flsub	;wreg free
  3002  001FD6  C033  F174         	movff	?___flsub,powf@u
  3003  001FDA  C034  F175         	movff	?___flsub+1,powf@u+1
  3004  001FDE  C035  F176         	movff	?___flsub+2,powf@u+2
  3005  001FE2  C036  F177         	movff	?___flsub+3,powf@u+3
  3006  001FE6  0E00               	movlw	0
  3007  001FE8  6E3B               	movwf	___fldiv@b^0,c
  3008  001FEA  0E00               	movlw	0
  3009  001FEC  6E3C               	movwf	(___fldiv@b+1)^0,c
  3010  001FEE  0E80               	movlw	128
  3011  001FF0  6E3D               	movwf	(___fldiv@b+2)^0,c
  3012  001FF2  0E3F               	movlw	63
  3013  001FF4  6E3E               	movwf	(___fldiv@b+3)^0,c
  3014  001FF6  C170  F00E         	movff	powf@ax,___fladd@a
  3015  001FFA  C171  F00F         	movff	powf@ax+1,___fladd@a+1
  3016  001FFE  C172  F010         	movff	powf@ax+2,___fladd@a+2
  3017  002002  C173  F011         	movff	powf@ax+3,___fladd@a+3
  3018  002006  C1A0  F095         	movff	powf@k,??_powf
  3019  00200A  C1A1  F096         	movff	powf@k+1,??_powf+1
  3020  00200E  0100               	movlb	0	; () banked
  3021  002010  90D8               	bcf	status,0,c
  3022  002012  3795               	rlcf	??_powf& (0+255),f,b
  3023  002014  3796               	rlcf	(??_powf+1)& (0+255),f,b
  3024  002016  90D8               	bcf	status,0,c
  3025  002018  3795               	rlcf	??_powf& (0+255),f,b
  3026  00201A  3796               	rlcf	(??_powf+1)& (0+255),f,b
  3027  00201C  0E69               	movlw	low _bp
  3028  00201E  2595               	addwf	??_powf& (0+255),w,b
  3029  002020  6EF6               	movwf	tblptrl,c
  3030  002022  0E10               	movlw	high _bp
  3031  002024  2196               	addwfc	(??_powf+1)& (0+255),w,b
  3032  002026  6EF7               	movwf	tblptrh,c
  3033  002028                     	if	1	;There are 3 active tblptr bytes
  3034  002028  6AF8               	clrf	tblptru,c
  3035  00202A  0E00               	movlw	low (__mediumconst shr (0+16))
  3036  00202C  22F8               	addwfc	tblptru,f,c
  3037  00202E                     	endif
  3038  00202E  0009               	tblrd		*+
  3039  002030  CFF5 F00A          	movff	tablat,___fladd@b
  3040  002034  0009               	tblrd		*+
  3041  002036  CFF5 F00B          	movff	tablat,___fladd@b+1
  3042  00203A  0009               	tblrd		*+
  3043  00203C  CFF5 F00C          	movff	tablat,___fladd@b+2
  3044  002040  000A               	tblrd		*-
  3045  002042  CFF5 F00D          	movff	tablat,___fladd@b+3
  3046  002046  ECB9  F01F         	call	___fladd	;wreg free
  3047  00204A  C00A  F03F         	movff	?___fladd,___fldiv@a
  3048  00204E  C00B  F040         	movff	?___fladd+1,___fldiv@a+1
  3049  002052  C00C  F041         	movff	?___fladd+2,___fldiv@a+2
  3050  002056  C00D  F042         	movff	?___fladd+3,___fldiv@a+3
  3051  00205A  EC2E  F024         	call	___fldiv	;wreg free
  3052  00205E  C03B  F178         	movff	?___fldiv,powf@v
  3053  002062  C03C  F179         	movff	?___fldiv+1,powf@v+1
  3054  002066  C03D  F17A         	movff	?___fldiv+2,powf@v+2
  3055  00206A  C03E  F17B         	movff	?___fldiv+3,powf@v+3
  3056  00206E  C174  F01A         	movff	powf@u,___flmul@b
  3057  002072  C175  F01B         	movff	powf@u+1,___flmul@b+1
  3058  002076  C176  F01C         	movff	powf@u+2,___flmul@b+2
  3059  00207A  C177  F01D         	movff	powf@u+3,___flmul@b+3
  3060  00207E  C178  F01E         	movff	powf@v,___flmul@a
  3061  002082  C179  F01F         	movff	powf@v+1,___flmul@a+1
  3062  002086  C17A  F020         	movff	powf@v+2,___flmul@a+2
  3063  00208A  C17B  F021         	movff	powf@v+3,___flmul@a+3
  3064  00208E  EC19  F022         	call	___flmul	;wreg free
  3065  002092  C01A  F15C         	movff	?___flmul,powf@s
  3066  002096  C01B  F15D         	movff	?___flmul+1,powf@s+1
  3067  00209A  C01C  F15E         	movff	?___flmul+2,powf@s+2
  3068  00209E  C01D  F15F         	movff	?___flmul+3,powf@s+3
  3069  0020A2  C15C  F16C         	movff	powf@s,powf@s_h
  3070  0020A6  C15D  F16D         	movff	powf@s+1,powf@s_h+1
  3071  0020AA  C15E  F16E         	movff	powf@s+2,powf@s_h+2
  3072  0020AE  C15F  F16F         	movff	powf@s+3,powf@s_h+3
  3073  0020B2  C16C  F1B8         	movff	powf@s_h,powf@__xc8_float_word
  3074  0020B6  C16D  F1B9         	movff	powf@s_h+1,powf@__xc8_float_word+1
  3075  0020BA  C16E  F1BA         	movff	powf@s_h+2,powf@__xc8_float_word+2
  3076  0020BE  C16F  F1BB         	movff	powf@s_h+3,powf@__xc8_float_word+3
  3077  0020C2  C1B8  F194         	movff	powf@__xc8_float_word,powf@is
  3078  0020C6  C1B9  F195         	movff	powf@__xc8_float_word+1,powf@is+1
  3079  0020CA  C1BA  F196         	movff	powf@__xc8_float_word+2,powf@is+2
  3080  0020CE  C1BB  F197         	movff	powf@__xc8_float_word+3,powf@is+3
  3081  0020D2  0E00               	movlw	0
  3082  0020D4  0101               	movlb	1	; () banked
  3083  0020D6  1594               	andwf	powf@is& (0+255),w,b
  3084  0020D8  6FB8               	movwf	powf@__xc8_float_word& (0+255),b
  3085  0020DA  0EF0               	movlw	240
  3086  0020DC  1595               	andwf	(powf@is+1)& (0+255),w,b
  3087  0020DE  6FB9               	movwf	(powf@__xc8_float_word+1)& (0+255),b
  3088  0020E0  0EFF               	movlw	255
  3089  0020E2  1596               	andwf	(powf@is+2)& (0+255),w,b
  3090  0020E4  6FBA               	movwf	(powf@__xc8_float_word+2)& (0+255),b
  3091  0020E6  0EFF               	movlw	255
  3092  0020E8  1597               	andwf	(powf@is+3)& (0+255),w,b
  3093  0020EA  6FBB               	movwf	(powf@__xc8_float_word+3)& (0+255),b
  3094  0020EC                     
  3095                           ; BSR set to: 1
  3096  0020EC  C1B8  F16C         	movff	powf@__xc8_float_word,powf@s_h
  3097  0020F0  C1B9  F16D         	movff	powf@__xc8_float_word+1,powf@s_h+1
  3098  0020F4  C1BA  F16E         	movff	powf@__xc8_float_word+2,powf@s_h+2
  3099  0020F8  C1BB  F16F         	movff	powf@__xc8_float_word+3,powf@s_h+3
  3100  0020FC                     
  3101                           ; BSR set to: 1
  3102  0020FC  C1A8  F095         	movff	powf@ix,??_powf
  3103  002100  C1A9  F096         	movff	powf@ix+1,??_powf+1
  3104  002104  C1AA  F097         	movff	powf@ix+2,??_powf+2
  3105  002108  C1AB  F098         	movff	powf@ix+3,??_powf+3
  3106  00210C  0100               	movlb	0	; () banked
  3107  00210E  3598               	rlcf	(??_powf+3)& (0+255),w,b
  3108  002110  3398               	rrcf	(??_powf+3)& (0+255),f,b
  3109  002112  3397               	rrcf	(??_powf+2)& (0+255),f,b
  3110  002114  3396               	rrcf	(??_powf+1)& (0+255),f,b
  3111  002116  3395               	rrcf	??_powf& (0+255),f,b
  3112  002118  0E00               	movlw	0
  3113  00211A  1595               	andwf	??_powf& (0+255),w,b
  3114  00211C  6F99               	movwf	(??_powf+4)& (0+255),b
  3115  00211E  0EF0               	movlw	240
  3116  002120  1596               	andwf	(??_powf+1)& (0+255),w,b
  3117  002122  6F9A               	movwf	(??_powf+5)& (0+255),b
  3118  002124  0EFF               	movlw	255
  3119  002126  1597               	andwf	(??_powf+2)& (0+255),w,b
  3120  002128  6F9B               	movwf	(??_powf+6)& (0+255),b
  3121  00212A  0EFF               	movlw	255
  3122  00212C  1598               	andwf	(??_powf+3)& (0+255),w,b
  3123  00212E  6F9C               	movwf	(??_powf+7)& (0+255),b
  3124  002130  0E00               	movlw	0
  3125  002132  1199               	iorwf	(??_powf+4)& (0+255),w,b
  3126  002134  0101               	movlb	1	; () banked
  3127  002136  6F94               	movwf	powf@is& (0+255),b
  3128  002138  0E00               	movlw	0
  3129  00213A  0100               	movlb	0	; () banked
  3130  00213C  119A               	iorwf	(??_powf+5)& (0+255),w,b
  3131  00213E  0101               	movlb	1	; () banked
  3132  002140  6F95               	movwf	(powf@is+1)& (0+255),b
  3133  002142  0E00               	movlw	0
  3134  002144  0100               	movlb	0	; () banked
  3135  002146  119B               	iorwf	(??_powf+6)& (0+255),w,b
  3136  002148  0101               	movlb	1	; () banked
  3137  00214A  6F96               	movwf	(powf@is+2)& (0+255),b
  3138  00214C  0E20               	movlw	32
  3139  00214E  0100               	movlb	0	; () banked
  3140  002150  119C               	iorwf	(??_powf+7)& (0+255),w,b
  3141  002152  0101               	movlb	1	; () banked
  3142  002154  6F97               	movwf	(powf@is+3)& (0+255),b
  3143  002156                     
  3144                           ; BSR set to: 1
  3145  002156  C1A0  F095         	movff	powf@k,??_powf
  3146  00215A  C1A1  F096         	movff	powf@k+1,??_powf+1
  3147  00215E  C1A2  F097         	movff	powf@k+2,??_powf+2
  3148  002162  C1A3  F098         	movff	powf@k+3,??_powf+3
  3149  002166  0E15               	movlw	21
  3150  002168                     u5345:
  3151  002168  90D8               	bcf	status,0,c
  3152  00216A  0100               	movlb	0	; () banked
  3153  00216C  3795               	rlcf	??_powf& (0+255),f,b
  3154  00216E  3796               	rlcf	(??_powf+1)& (0+255),f,b
  3155  002170  3797               	rlcf	(??_powf+2)& (0+255),f,b
  3156  002172  3798               	rlcf	(??_powf+3)& (0+255),f,b
  3157  002174  2EE8               	decfsz	wreg,f,c
  3158  002176  EFB4  F010         	goto	u5345
  3159  00217A  0101               	movlb	1	; () banked
  3160  00217C  5194               	movf	powf@is& (0+255),w,b
  3161  00217E  0100               	movlb	0	; () banked
  3162  002180  2595               	addwf	??_powf& (0+255),w,b
  3163  002182  6F99               	movwf	(??_powf+4)& (0+255),b
  3164  002184  0101               	movlb	1	; () banked
  3165  002186  5195               	movf	(powf@is+1)& (0+255),w,b
  3166  002188  0100               	movlb	0	; () banked
  3167  00218A  2196               	addwfc	(??_powf+1)& (0+255),w,b
  3168  00218C  6F9A               	movwf	(??_powf+5)& (0+255),b
  3169  00218E  0101               	movlb	1	; () banked
  3170  002190  5196               	movf	(powf@is+2)& (0+255),w,b
  3171  002192  0100               	movlb	0	; () banked
  3172  002194  2197               	addwfc	(??_powf+2)& (0+255),w,b
  3173  002196  6F9B               	movwf	(??_powf+6)& (0+255),b
  3174  002198  0101               	movlb	1	; () banked
  3175  00219A  5197               	movf	(powf@is+3)& (0+255),w,b
  3176  00219C  0100               	movlb	0	; () banked
  3177  00219E  2198               	addwfc	(??_powf+3)& (0+255),w,b
  3178  0021A0  6F9C               	movwf	(??_powf+7)& (0+255),b
  3179  0021A2  0E00               	movlw	0
  3180  0021A4  2599               	addwf	(??_powf+4)& (0+255),w,b
  3181  0021A6  0101               	movlb	1	; () banked
  3182  0021A8  6FB8               	movwf	powf@__xc8_float_word& (0+255),b
  3183  0021AA  0E00               	movlw	0
  3184  0021AC  0100               	movlb	0	; () banked
  3185  0021AE  219A               	addwfc	(??_powf+5)& (0+255),w,b
  3186  0021B0  0101               	movlb	1	; () banked
  3187  0021B2  6FB9               	movwf	(powf@__xc8_float_word+1)& (0+255),b
  3188  0021B4  0E40               	movlw	64
  3189  0021B6  0100               	movlb	0	; () banked
  3190  0021B8  219B               	addwfc	(??_powf+6)& (0+255),w,b
  3191  0021BA  0101               	movlb	1	; () banked
  3192  0021BC  6FBA               	movwf	(powf@__xc8_float_word+2)& (0+255),b
  3193  0021BE  0E00               	movlw	0
  3194  0021C0  0100               	movlb	0	; () banked
  3195  0021C2  219C               	addwfc	(??_powf+7)& (0+255),w,b
  3196  0021C4  0101               	movlb	1	; () banked
  3197  0021C6  6FBB               	movwf	(powf@__xc8_float_word+3)& (0+255),b
  3198  0021C8                     
  3199                           ; BSR set to: 1
  3200  0021C8  C1B8  F168         	movff	powf@__xc8_float_word,powf@t_h
  3201  0021CC  C1B9  F169         	movff	powf@__xc8_float_word+1,powf@t_h+1
  3202  0021D0  C1BA  F16A         	movff	powf@__xc8_float_word+2,powf@t_h+2
  3203  0021D4  C1BB  F16B         	movff	powf@__xc8_float_word+3,powf@t_h+3
  3204  0021D8                     
  3205                           ; BSR set to: 1
  3206  0021D8  C1A0  F095         	movff	powf@k,??_powf
  3207  0021DC  C1A1  F096         	movff	powf@k+1,??_powf+1
  3208  0021E0  0100               	movlb	0	; () banked
  3209  0021E2  90D8               	bcf	status,0,c
  3210  0021E4  3795               	rlcf	??_powf& (0+255),f,b
  3211  0021E6  3796               	rlcf	(??_powf+1)& (0+255),f,b
  3212  0021E8  90D8               	bcf	status,0,c
  3213  0021EA  3795               	rlcf	??_powf& (0+255),f,b
  3214  0021EC  3796               	rlcf	(??_powf+1)& (0+255),f,b
  3215  0021EE  0E69               	movlw	low _bp
  3216  0021F0  2595               	addwf	??_powf& (0+255),w,b
  3217  0021F2  6EF6               	movwf	tblptrl,c
  3218  0021F4  0E10               	movlw	high _bp
  3219  0021F6  2196               	addwfc	(??_powf+1)& (0+255),w,b
  3220  0021F8  6EF7               	movwf	tblptrh,c
  3221  0021FA                     	if	1	;There are 3 active tblptr bytes
  3222  0021FA  6AF8               	clrf	tblptru,c
  3223  0021FC  0E00               	movlw	low (__mediumconst shr (0+16))
  3224  0021FE  22F8               	addwfc	tblptru,f,c
  3225  002200                     	endif
  3226  002200  0009               	tblrd		*+
  3227  002202  CFF5 F037          	movff	tablat,___flsub@a
  3228  002206  0009               	tblrd		*+
  3229  002208  CFF5 F038          	movff	tablat,___flsub@a+1
  3230  00220C  0009               	tblrd		*+
  3231  00220E  CFF5 F039          	movff	tablat,___flsub@a+2
  3232  002212  000A               	tblrd		*-
  3233  002214  CFF5 F03A          	movff	tablat,___flsub@a+3
  3234  002218  C168  F033         	movff	powf@t_h,___flsub@b
  3235  00221C  C169  F034         	movff	powf@t_h+1,___flsub@b+1
  3236  002220  C16A  F035         	movff	powf@t_h+2,___flsub@b+2
  3237  002224  C16B  F036         	movff	powf@t_h+3,___flsub@b+3
  3238  002228  EC57  F02C         	call	___flsub	;wreg free
  3239  00222C  C033  F198         	movff	?___flsub,_powf$1393
  3240  002230  C034  F199         	movff	?___flsub+1,_powf$1393+1
  3241  002234  C035  F19A         	movff	?___flsub+2,_powf$1393+2
  3242  002238  C036  F19B         	movff	?___flsub+3,_powf$1393+3
  3243  00223C  C170  F033         	movff	powf@ax,___flsub@b
  3244  002240  C171  F034         	movff	powf@ax+1,___flsub@b+1
  3245  002244  C172  F035         	movff	powf@ax+2,___flsub@b+2
  3246  002248  C173  F036         	movff	powf@ax+3,___flsub@b+3
  3247  00224C  C198  F037         	movff	_powf$1393,___flsub@a
  3248  002250  C199  F038         	movff	_powf$1393+1,___flsub@a+1
  3249  002254  C19A  F039         	movff	_powf$1393+2,___flsub@a+2
  3250  002258  C19B  F03A         	movff	_powf$1393+3,___flsub@a+3
  3251  00225C  EC57  F02C         	call	___flsub	;wreg free
  3252  002260  C033  F134         	movff	?___flsub,powf@t_l
  3253  002264  C034  F135         	movff	?___flsub+1,powf@t_l+1
  3254  002268  C035  F136         	movff	?___flsub+2,powf@t_l+2
  3255  00226C  C036  F137         	movff	?___flsub+3,powf@t_l+3
  3256  002270  C168  F01E         	movff	powf@t_h,___flmul@a
  3257  002274  C169  F01F         	movff	powf@t_h+1,___flmul@a+1
  3258  002278  C16A  F020         	movff	powf@t_h+2,___flmul@a+2
  3259  00227C  C16B  F021         	movff	powf@t_h+3,___flmul@a+3
  3260  002280  C16C  F01A         	movff	powf@s_h,___flmul@b
  3261  002284  C16D  F01B         	movff	powf@s_h+1,___flmul@b+1
  3262  002288  C16E  F01C         	movff	powf@s_h+2,___flmul@b+2
  3263  00228C  C16F  F01D         	movff	powf@s_h+3,___flmul@b+3
  3264  002290  EC19  F022         	call	___flmul	;wreg free
  3265  002294  C01A  F037         	movff	?___flmul,___flsub@a
  3266  002298  C01B  F038         	movff	?___flmul+1,___flsub@a+1
  3267  00229C  C01C  F039         	movff	?___flmul+2,___flsub@a+2
  3268  0022A0  C01D  F03A         	movff	?___flmul+3,___flsub@a+3
  3269  0022A4  C174  F033         	movff	powf@u,___flsub@b
  3270  0022A8  C175  F034         	movff	powf@u+1,___flsub@b+1
  3271  0022AC  C176  F035         	movff	powf@u+2,___flsub@b+2
  3272  0022B0  C177  F036         	movff	powf@u+3,___flsub@b+3
  3273  0022B4  EC57  F02C         	call	___flsub	;wreg free
  3274  0022B8  C033  F198         	movff	?___flsub,_powf$1393
  3275  0022BC  C034  F199         	movff	?___flsub+1,_powf$1393+1
  3276  0022C0  C035  F19A         	movff	?___flsub+2,_powf$1393+2
  3277  0022C4  C036  F19B         	movff	?___flsub+3,_powf$1393+3
  3278  0022C8  C134  F01E         	movff	powf@t_l,___flmul@a
  3279  0022CC  C135  F01F         	movff	powf@t_l+1,___flmul@a+1
  3280  0022D0  C136  F020         	movff	powf@t_l+2,___flmul@a+2
  3281  0022D4  C137  F021         	movff	powf@t_l+3,___flmul@a+3
  3282  0022D8  C16C  F01A         	movff	powf@s_h,___flmul@b
  3283  0022DC  C16D  F01B         	movff	powf@s_h+1,___flmul@b+1
  3284  0022E0  C16E  F01C         	movff	powf@s_h+2,___flmul@b+2
  3285  0022E4  C16F  F01D         	movff	powf@s_h+3,___flmul@b+3
  3286  0022E8  EC19  F022         	call	___flmul	;wreg free
  3287  0022EC  C01A  F037         	movff	?___flmul,___flsub@a
  3288  0022F0  C01B  F038         	movff	?___flmul+1,___flsub@a+1
  3289  0022F4  C01C  F039         	movff	?___flmul+2,___flsub@a+2
  3290  0022F8  C01D  F03A         	movff	?___flmul+3,___flsub@a+3
  3291  0022FC  C198  F033         	movff	_powf$1393,___flsub@b
  3292  002300  C199  F034         	movff	_powf$1393+1,___flsub@b+1
  3293  002304  C19A  F035         	movff	_powf$1393+2,___flsub@b+2
  3294  002308  C19B  F036         	movff	_powf$1393+3,___flsub@b+3
  3295  00230C  EC57  F02C         	call	___flsub	;wreg free
  3296  002310  C033  F154         	movff	?___flsub,_powf$1391
  3297  002314  C034  F155         	movff	?___flsub+1,_powf$1391+1
  3298  002318  C035  F156         	movff	?___flsub+2,_powf$1391+2
  3299  00231C  C036  F157         	movff	?___flsub+3,_powf$1391+3
  3300  002320  C154  F01A         	movff	_powf$1391,___flmul@b
  3301  002324  C155  F01B         	movff	_powf$1391+1,___flmul@b+1
  3302  002328  C156  F01C         	movff	_powf$1391+2,___flmul@b+2
  3303  00232C  C157  F01D         	movff	_powf$1391+3,___flmul@b+3
  3304  002330  C178  F01E         	movff	powf@v,___flmul@a
  3305  002334  C179  F01F         	movff	powf@v+1,___flmul@a+1
  3306  002338  C17A  F020         	movff	powf@v+2,___flmul@a+2
  3307  00233C  C17B  F021         	movff	powf@v+3,___flmul@a+3
  3308  002340  EC19  F022         	call	___flmul	;wreg free
  3309  002344  C01A  F130         	movff	?___flmul,powf@s_l
  3310  002348  C01B  F131         	movff	?___flmul+1,powf@s_l+1
  3311  00234C  C01C  F132         	movff	?___flmul+2,powf@s_l+2
  3312  002350  C01D  F133         	movff	?___flmul+3,powf@s_l+3
  3313  002354  C15C  F01A         	movff	powf@s,___flmul@b
  3314  002358  C15D  F01B         	movff	powf@s+1,___flmul@b+1
  3315  00235C  C15E  F01C         	movff	powf@s+2,___flmul@b+2
  3316  002360  C15F  F01D         	movff	powf@s+3,___flmul@b+3
  3317  002364  C15C  F01E         	movff	powf@s,___flmul@a
  3318  002368  C15D  F01F         	movff	powf@s+1,___flmul@a+1
  3319  00236C  C15E  F020         	movff	powf@s+2,___flmul@a+2
  3320  002370  C15F  F021         	movff	powf@s+3,___flmul@a+3
  3321  002374  EC19  F022         	call	___flmul	;wreg free
  3322  002378  C01A  F18C         	movff	?___flmul,powf@s2
  3323  00237C  C01B  F18D         	movff	?___flmul+1,powf@s2+1
  3324  002380  C01C  F18E         	movff	?___flmul+2,powf@s2+2
  3325  002384  C01D  F18F         	movff	?___flmul+3,powf@s2+3
  3326  002388  0E55               	movlw	85
  3327  00238A  6E0E               	movwf	___fladd@a^0,c
  3328  00238C  0E32               	movlw	50
  3329  00238E  6E0F               	movwf	(___fladd@a+1)^0,c
  3330  002390  0E6C               	movlw	108
  3331  002392  6E10               	movwf	(___fladd@a+2)^0,c
  3332  002394  0E3E               	movlw	62
  3333  002396  6E11               	movwf	(___fladd@a+3)^0,c
  3334  002398  0E42               	movlw	66
  3335  00239A  6E1E               	movwf	___flmul@a^0,c
  3336  00239C  0EF1               	movlw	241
  3337  00239E  6E1F               	movwf	(___flmul@a+1)^0,c
  3338  0023A0  0E53               	movlw	83
  3339  0023A2  6E20               	movwf	(___flmul@a+2)^0,c
  3340  0023A4  0E3E               	movlw	62
  3341  0023A6  6E21               	movwf	(___flmul@a+3)^0,c
  3342  0023A8  C18C  F01A         	movff	powf@s2,___flmul@b
  3343  0023AC  C18D  F01B         	movff	powf@s2+1,___flmul@b+1
  3344  0023B0  C18E  F01C         	movff	powf@s2+2,___flmul@b+2
  3345  0023B4  C18F  F01D         	movff	powf@s2+3,___flmul@b+3
  3346  0023B8  EC19  F022         	call	___flmul	;wreg free
  3347  0023BC  C01A  F00A         	movff	?___flmul,___fladd@b
  3348  0023C0  C01B  F00B         	movff	?___flmul+1,___fladd@b+1
  3349  0023C4  C01C  F00C         	movff	?___flmul+2,___fladd@b+2
  3350  0023C8  C01D  F00D         	movff	?___flmul+3,___fladd@b+3
  3351  0023CC  ECB9  F01F         	call	___fladd	;wreg free
  3352  0023D0  C00A  F1A4         	movff	?___fladd,_powf$1390
  3353  0023D4  C00B  F1A5         	movff	?___fladd+1,_powf$1390+1
  3354  0023D8  C00C  F1A6         	movff	?___fladd+2,_powf$1390+2
  3355  0023DC  C00D  F1A7         	movff	?___fladd+3,_powf$1390+3
  3356  0023E0  0E05               	movlw	5
  3357  0023E2  6E0E               	movwf	___fladd@a^0,c
  3358  0023E4  0EA3               	movlw	163
  3359  0023E6  6E0F               	movwf	(___fladd@a+1)^0,c
  3360  0023E8  0E8B               	movlw	139
  3361  0023EA  6E10               	movwf	(___fladd@a+2)^0,c
  3362  0023EC  0E3E               	movlw	62
  3363  0023EE  6E11               	movwf	(___fladd@a+3)^0,c
  3364  0023F0  C18C  F01E         	movff	powf@s2,___flmul@a
  3365  0023F4  C18D  F01F         	movff	powf@s2+1,___flmul@a+1
  3366  0023F8  C18E  F020         	movff	powf@s2+2,___flmul@a+2
  3367  0023FC  C18F  F021         	movff	powf@s2+3,___flmul@a+3
  3368  002400  C1A4  F01A         	movff	_powf$1390,___flmul@b
  3369  002404  C1A5  F01B         	movff	_powf$1390+1,___flmul@b+1
  3370  002408  C1A6  F01C         	movff	_powf$1390+2,___flmul@b+2
  3371  00240C  C1A7  F01D         	movff	_powf$1390+3,___flmul@b+3
  3372  002410  EC19  F022         	call	___flmul	;wreg free
  3373  002414  C01A  F00A         	movff	?___flmul,___fladd@b
  3374  002418  C01B  F00B         	movff	?___flmul+1,___fladd@b+1
  3375  00241C  C01C  F00C         	movff	?___flmul+2,___fladd@b+2
  3376  002420  C01D  F00D         	movff	?___flmul+3,___fladd@b+3
  3377  002424  ECB9  F01F         	call	___fladd	;wreg free
  3378  002428  C00A  F154         	movff	?___fladd,_powf$1391
  3379  00242C  C00B  F155         	movff	?___fladd+1,_powf$1391+1
  3380  002430  C00C  F156         	movff	?___fladd+2,_powf$1391+2
  3381  002434  C00D  F157         	movff	?___fladd+3,_powf$1391+3
  3382  002438  0EAB               	movlw	171
  3383  00243A  6E0E               	movwf	___fladd@a^0,c
  3384  00243C  0EAA               	movlw	170
  3385  00243E  6E0F               	movwf	(___fladd@a+1)^0,c
  3386  002440  0EAA               	movlw	170
  3387  002442  6E10               	movwf	(___fladd@a+2)^0,c
  3388  002444  0E3E               	movlw	62
  3389  002446  6E11               	movwf	(___fladd@a+3)^0,c
  3390  002448  C18C  F01E         	movff	powf@s2,___flmul@a
  3391  00244C  C18D  F01F         	movff	powf@s2+1,___flmul@a+1
  3392  002450  C18E  F020         	movff	powf@s2+2,___flmul@a+2
  3393  002454  C18F  F021         	movff	powf@s2+3,___flmul@a+3
  3394  002458  C154  F01A         	movff	_powf$1391,___flmul@b
  3395  00245C  C155  F01B         	movff	_powf$1391+1,___flmul@b+1
  3396  002460  C156  F01C         	movff	_powf$1391+2,___flmul@b+2
  3397  002464  C157  F01D         	movff	_powf$1391+3,___flmul@b+3
  3398  002468  EC19  F022         	call	___flmul	;wreg free
  3399  00246C  C01A  F00A         	movff	?___flmul,___fladd@b
  3400  002470  C01B  F00B         	movff	?___flmul+1,___fladd@b+1
  3401  002474  C01C  F00C         	movff	?___flmul+2,___fladd@b+2
  3402  002478  C01D  F00D         	movff	?___flmul+3,___fladd@b+3
  3403  00247C  ECB9  F01F         	call	___fladd	;wreg free
  3404  002480  C00A  F148         	movff	?___fladd,_powf$1392
  3405  002484  C00B  F149         	movff	?___fladd+1,_powf$1392+1
  3406  002488  C00C  F14A         	movff	?___fladd+2,_powf$1392+2
  3407  00248C  C00D  F14B         	movff	?___fladd+3,_powf$1392+3
  3408  002490  0EB7               	movlw	183
  3409  002492  6E0E               	movwf	___fladd@a^0,c
  3410  002494  0E6D               	movlw	109
  3411  002496  6E0F               	movwf	(___fladd@a+1)^0,c
  3412  002498  0EDB               	movlw	219
  3413  00249A  6E10               	movwf	(___fladd@a+2)^0,c
  3414  00249C  0E3E               	movlw	62
  3415  00249E  6E11               	movwf	(___fladd@a+3)^0,c
  3416  0024A0  C18C  F01E         	movff	powf@s2,___flmul@a
  3417  0024A4  C18D  F01F         	movff	powf@s2+1,___flmul@a+1
  3418  0024A8  C18E  F020         	movff	powf@s2+2,___flmul@a+2
  3419  0024AC  C18F  F021         	movff	powf@s2+3,___flmul@a+3
  3420  0024B0  C148  F01A         	movff	_powf$1392,___flmul@b
  3421  0024B4  C149  F01B         	movff	_powf$1392+1,___flmul@b+1
  3422  0024B8  C14A  F01C         	movff	_powf$1392+2,___flmul@b+2
  3423  0024BC  C14B  F01D         	movff	_powf$1392+3,___flmul@b+3
  3424  0024C0  EC19  F022         	call	___flmul	;wreg free
  3425  0024C4  C01A  F00A         	movff	?___flmul,___fladd@b
  3426  0024C8  C01B  F00B         	movff	?___flmul+1,___fladd@b+1
  3427  0024CC  C01C  F00C         	movff	?___flmul+2,___fladd@b+2
  3428  0024D0  C01D  F00D         	movff	?___flmul+3,___fladd@b+3
  3429  0024D4  ECB9  F01F         	call	___fladd	;wreg free
  3430  0024D8  C00A  F138         	movff	?___fladd,_powf$1394
  3431  0024DC  C00B  F139         	movff	?___fladd+1,_powf$1394+1
  3432  0024E0  C00C  F13A         	movff	?___fladd+2,_powf$1394+2
  3433  0024E4  C00D  F13B         	movff	?___fladd+3,_powf$1394+3
  3434  0024E8  0E9A               	movlw	154
  3435  0024EA  6E0E               	movwf	___fladd@a^0,c
  3436  0024EC  0E99               	movlw	153
  3437  0024EE  6E0F               	movwf	(___fladd@a+1)^0,c
  3438  0024F0  0E19               	movlw	25
  3439  0024F2  6E10               	movwf	(___fladd@a+2)^0,c
  3440  0024F4  0E3F               	movlw	63
  3441  0024F6  6E11               	movwf	(___fladd@a+3)^0,c
  3442  0024F8  C18C  F01E         	movff	powf@s2,___flmul@a
  3443  0024FC  C18D  F01F         	movff	powf@s2+1,___flmul@a+1
  3444  002500  C18E  F020         	movff	powf@s2+2,___flmul@a+2
  3445  002504  C18F  F021         	movff	powf@s2+3,___flmul@a+3
  3446  002508  C138  F01A         	movff	_powf$1394,___flmul@b
  3447  00250C  C139  F01B         	movff	_powf$1394+1,___flmul@b+1
  3448  002510  C13A  F01C         	movff	_powf$1394+2,___flmul@b+2
  3449  002514  C13B  F01D         	movff	_powf$1394+3,___flmul@b+3
  3450  002518  EC19  F022         	call	___flmul	;wreg free
  3451  00251C  C01A  F00A         	movff	?___flmul,___fladd@b
  3452  002520  C01B  F00B         	movff	?___flmul+1,___fladd@b+1
  3453  002524  C01C  F00C         	movff	?___flmul+2,___fladd@b+2
  3454  002528  C01D  F00D         	movff	?___flmul+3,___fladd@b+3
  3455  00252C  ECB9  F01F         	call	___fladd	;wreg free
  3456  002530  C00A  F100         	movff	?___fladd,_powf$1395
  3457  002534  C00B  F101         	movff	?___fladd+1,_powf$1395+1
  3458  002538  C00C  F102         	movff	?___fladd+2,_powf$1395+2
  3459  00253C  C00D  F103         	movff	?___fladd+3,_powf$1395+3
  3460  002540  C18C  F01E         	movff	powf@s2,___flmul@a
  3461  002544  C18D  F01F         	movff	powf@s2+1,___flmul@a+1
  3462  002548  C18E  F020         	movff	powf@s2+2,___flmul@a+2
  3463  00254C  C18F  F021         	movff	powf@s2+3,___flmul@a+3
  3464  002550  C18C  F01A         	movff	powf@s2,___flmul@b
  3465  002554  C18D  F01B         	movff	powf@s2+1,___flmul@b+1
  3466  002558  C18E  F01C         	movff	powf@s2+2,___flmul@b+2
  3467  00255C  C18F  F01D         	movff	powf@s2+3,___flmul@b+3
  3468  002560  EC19  F022         	call	___flmul	;wreg free
  3469  002564  C01A  F104         	movff	?___flmul,_powf$1396
  3470  002568  C01B  F105         	movff	?___flmul+1,_powf$1396+1
  3471  00256C  C01C  F106         	movff	?___flmul+2,_powf$1396+2
  3472  002570  C01D  F107         	movff	?___flmul+3,_powf$1396+3
  3473  002574  C100  F01A         	movff	_powf$1395,___flmul@b
  3474  002578  C101  F01B         	movff	_powf$1395+1,___flmul@b+1
  3475  00257C  C102  F01C         	movff	_powf$1395+2,___flmul@b+2
  3476  002580  C103  F01D         	movff	_powf$1395+3,___flmul@b+3
  3477  002584  C104  F01E         	movff	_powf$1396,___flmul@a
  3478  002588  C105  F01F         	movff	_powf$1396+1,___flmul@a+1
  3479  00258C  C106  F020         	movff	_powf$1396+2,___flmul@a+2
  3480  002590  C107  F021         	movff	_powf$1396+3,___flmul@a+3
  3481  002594  EC19  F022         	call	___flmul	;wreg free
  3482  002598  C01A  F14C         	movff	?___flmul,powf@r
  3483  00259C  C01B  F14D         	movff	?___flmul+1,powf@r+1
  3484  0025A0  C01C  F14E         	movff	?___flmul+2,powf@r+2
  3485  0025A4  C01D  F14F         	movff	?___flmul+3,powf@r+3
  3486  0025A8  C130  F01E         	movff	powf@s_l,___flmul@a
  3487  0025AC  C131  F01F         	movff	powf@s_l+1,___flmul@a+1
  3488  0025B0  C132  F020         	movff	powf@s_l+2,___flmul@a+2
  3489  0025B4  C133  F021         	movff	powf@s_l+3,___flmul@a+3
  3490  0025B8  C15C  F00E         	movff	powf@s,___fladd@a
  3491  0025BC  C15D  F00F         	movff	powf@s+1,___fladd@a+1
  3492  0025C0  C15E  F010         	movff	powf@s+2,___fladd@a+2
  3493  0025C4  C15F  F011         	movff	powf@s+3,___fladd@a+3
  3494  0025C8  C16C  F00A         	movff	powf@s_h,___fladd@b
  3495  0025CC  C16D  F00B         	movff	powf@s_h+1,___fladd@b+1
  3496  0025D0  C16E  F00C         	movff	powf@s_h+2,___fladd@b+2
  3497  0025D4  C16F  F00D         	movff	powf@s_h+3,___fladd@b+3
  3498  0025D8  ECB9  F01F         	call	___fladd	;wreg free
  3499  0025DC  C00A  F01A         	movff	?___fladd,___flmul@b
  3500  0025E0  C00B  F01B         	movff	?___fladd+1,___flmul@b+1
  3501  0025E4  C00C  F01C         	movff	?___fladd+2,___flmul@b+2
  3502  0025E8  C00D  F01D         	movff	?___fladd+3,___flmul@b+3
  3503  0025EC  EC19  F022         	call	___flmul	;wreg free
  3504  0025F0  C01A  F158         	movff	?___flmul,_powf$1397
  3505  0025F4  C01B  F159         	movff	?___flmul+1,_powf$1397+1
  3506  0025F8  C01C  F15A         	movff	?___flmul+2,_powf$1397+2
  3507  0025FC  C01D  F15B         	movff	?___flmul+3,_powf$1397+3
  3508  002600  C14C  F00A         	movff	powf@r,___fladd@b
  3509  002604  C14D  F00B         	movff	powf@r+1,___fladd@b+1
  3510  002608  C14E  F00C         	movff	powf@r+2,___fladd@b+2
  3511  00260C  C14F  F00D         	movff	powf@r+3,___fladd@b+3
  3512  002610  C158  F00E         	movff	_powf$1397,___fladd@a
  3513  002614  C159  F00F         	movff	_powf$1397+1,___fladd@a+1
  3514  002618  C15A  F010         	movff	_powf$1397+2,___fladd@a+2
  3515  00261C  C15B  F011         	movff	_powf$1397+3,___fladd@a+3
  3516  002620  ECB9  F01F         	call	___fladd	;wreg free
  3517  002624  C00A  F14C         	movff	?___fladd,powf@r
  3518  002628  C00B  F14D         	movff	?___fladd+1,powf@r+1
  3519  00262C  C00C  F14E         	movff	?___fladd+2,powf@r+2
  3520  002630  C00D  F14F         	movff	?___fladd+3,powf@r+3
  3521  002634  C16C  F01A         	movff	powf@s_h,___flmul@b
  3522  002638  C16D  F01B         	movff	powf@s_h+1,___flmul@b+1
  3523  00263C  C16E  F01C         	movff	powf@s_h+2,___flmul@b+2
  3524  002640  C16F  F01D         	movff	powf@s_h+3,___flmul@b+3
  3525  002644  C16C  F01E         	movff	powf@s_h,___flmul@a
  3526  002648  C16D  F01F         	movff	powf@s_h+1,___flmul@a+1
  3527  00264C  C16E  F020         	movff	powf@s_h+2,___flmul@a+2
  3528  002650  C16F  F021         	movff	powf@s_h+3,___flmul@a+3
  3529  002654  EC19  F022         	call	___flmul	;wreg free
  3530  002658  C01A  F18C         	movff	?___flmul,powf@s2
  3531  00265C  C01B  F18D         	movff	?___flmul+1,powf@s2+1
  3532  002660  C01C  F18E         	movff	?___flmul+2,powf@s2+2
  3533  002664  C01D  F18F         	movff	?___flmul+3,powf@s2+3
  3534  002668  0E00               	movlw	0
  3535  00266A  6E0E               	movwf	___fladd@a^0,c
  3536  00266C  0E00               	movlw	0
  3537  00266E  6E0F               	movwf	(___fladd@a+1)^0,c
  3538  002670  0E40               	movlw	64
  3539  002672  6E10               	movwf	(___fladd@a+2)^0,c
  3540  002674  0E40               	movlw	64
  3541  002676  6E11               	movwf	(___fladd@a+3)^0,c
  3542  002678  C18C  F00A         	movff	powf@s2,___fladd@b
  3543  00267C  C18D  F00B         	movff	powf@s2+1,___fladd@b+1
  3544  002680  C18E  F00C         	movff	powf@s2+2,___fladd@b+2
  3545  002684  C18F  F00D         	movff	powf@s2+3,___fladd@b+3
  3546  002688  ECB9  F01F         	call	___fladd	;wreg free
  3547  00268C  C00A  F158         	movff	?___fladd,_powf$1397
  3548  002690  C00B  F159         	movff	?___fladd+1,_powf$1397+1
  3549  002694  C00C  F15A         	movff	?___fladd+2,_powf$1397+2
  3550  002698  C00D  F15B         	movff	?___fladd+3,_powf$1397+3
  3551  00269C  C158  F00A         	movff	_powf$1397,___fladd@b
  3552  0026A0  C159  F00B         	movff	_powf$1397+1,___fladd@b+1
  3553  0026A4  C15A  F00C         	movff	_powf$1397+2,___fladd@b+2
  3554  0026A8  C15B  F00D         	movff	_powf$1397+3,___fladd@b+3
  3555  0026AC  C14C  F00E         	movff	powf@r,___fladd@a
  3556  0026B0  C14D  F00F         	movff	powf@r+1,___fladd@a+1
  3557  0026B4  C14E  F010         	movff	powf@r+2,___fladd@a+2
  3558  0026B8  C14F  F011         	movff	powf@r+3,___fladd@a+3
  3559  0026BC  ECB9  F01F         	call	___fladd	;wreg free
  3560  0026C0  C00A  F168         	movff	?___fladd,powf@t_h
  3561  0026C4  C00B  F169         	movff	?___fladd+1,powf@t_h+1
  3562  0026C8  C00C  F16A         	movff	?___fladd+2,powf@t_h+2
  3563  0026CC  C00D  F16B         	movff	?___fladd+3,powf@t_h+3
  3564  0026D0  C168  F1B8         	movff	powf@t_h,powf@__xc8_float_word
  3565  0026D4  C169  F1B9         	movff	powf@t_h+1,powf@__xc8_float_word+1
  3566  0026D8  C16A  F1BA         	movff	powf@t_h+2,powf@__xc8_float_word+2
  3567  0026DC  C16B  F1BB         	movff	powf@t_h+3,powf@__xc8_float_word+3
  3568  0026E0  C1B8  F194         	movff	powf@__xc8_float_word,powf@is
  3569  0026E4  C1B9  F195         	movff	powf@__xc8_float_word+1,powf@is+1
  3570  0026E8  C1BA  F196         	movff	powf@__xc8_float_word+2,powf@is+2
  3571  0026EC  C1BB  F197         	movff	powf@__xc8_float_word+3,powf@is+3
  3572  0026F0  0E00               	movlw	0
  3573  0026F2  0101               	movlb	1	; () banked
  3574  0026F4  1594               	andwf	powf@is& (0+255),w,b
  3575  0026F6  6FB8               	movwf	powf@__xc8_float_word& (0+255),b
  3576  0026F8  0EF0               	movlw	240
  3577  0026FA  1595               	andwf	(powf@is+1)& (0+255),w,b
  3578  0026FC  6FB9               	movwf	(powf@__xc8_float_word+1)& (0+255),b
  3579  0026FE  0EFF               	movlw	255
  3580  002700  1596               	andwf	(powf@is+2)& (0+255),w,b
  3581  002702  6FBA               	movwf	(powf@__xc8_float_word+2)& (0+255),b
  3582  002704  0EFF               	movlw	255
  3583  002706  1597               	andwf	(powf@is+3)& (0+255),w,b
  3584  002708  6FBB               	movwf	(powf@__xc8_float_word+3)& (0+255),b
  3585  00270A                     
  3586                           ; BSR set to: 1
  3587  00270A  C1B8  F168         	movff	powf@__xc8_float_word,powf@t_h
  3588  00270E  C1B9  F169         	movff	powf@__xc8_float_word+1,powf@t_h+1
  3589  002712  C1BA  F16A         	movff	powf@__xc8_float_word+2,powf@t_h+2
  3590  002716  C1BB  F16B         	movff	powf@__xc8_float_word+3,powf@t_h+3
  3591  00271A                     
  3592                           ; BSR set to: 1
  3593  00271A  0E00               	movlw	0
  3594  00271C  6E0E               	movwf	___fladd@a^0,c
  3595  00271E  0E00               	movlw	0
  3596  002720  6E0F               	movwf	(___fladd@a+1)^0,c
  3597  002722  0E40               	movlw	64
  3598  002724  6E10               	movwf	(___fladd@a+2)^0,c
  3599  002726  0EC0               	movlw	192
  3600  002728  6E11               	movwf	(___fladd@a+3)^0,c
  3601  00272A  C168  F00A         	movff	powf@t_h,___fladd@b
  3602  00272E  C169  F00B         	movff	powf@t_h+1,___fladd@b+1
  3603  002732  C16A  F00C         	movff	powf@t_h+2,___fladd@b+2
  3604  002736  C16B  F00D         	movff	powf@t_h+3,___fladd@b+3
  3605  00273A  ECB9  F01F         	call	___fladd	;wreg free
  3606  00273E  C00A  F13C         	movff	?___fladd,_powf$1398
  3607  002742  C00B  F13D         	movff	?___fladd+1,_powf$1398+1
  3608  002746  C00C  F13E         	movff	?___fladd+2,_powf$1398+2
  3609  00274A  C00D  F13F         	movff	?___fladd+3,_powf$1398+3
  3610  00274E  C18C  F037         	movff	powf@s2,___flsub@a
  3611  002752  C18D  F038         	movff	powf@s2+1,___flsub@a+1
  3612  002756  C18E  F039         	movff	powf@s2+2,___flsub@a+2
  3613  00275A  C18F  F03A         	movff	powf@s2+3,___flsub@a+3
  3614  00275E  C13C  F033         	movff	_powf$1398,___flsub@b
  3615  002762  C13D  F034         	movff	_powf$1398+1,___flsub@b+1
  3616  002766  C13E  F035         	movff	_powf$1398+2,___flsub@b+2
  3617  00276A  C13F  F036         	movff	_powf$1398+3,___flsub@b+3
  3618  00276E  EC57  F02C         	call	___flsub	;wreg free
  3619  002772  C033  F140         	movff	?___flsub,_powf$1399
  3620  002776  C034  F141         	movff	?___flsub+1,_powf$1399+1
  3621  00277A  C035  F142         	movff	?___flsub+2,_powf$1399+2
  3622  00277E  C036  F143         	movff	?___flsub+3,_powf$1399+3
  3623  002782  C14C  F033         	movff	powf@r,___flsub@b
  3624  002786  C14D  F034         	movff	powf@r+1,___flsub@b+1
  3625  00278A  C14E  F035         	movff	powf@r+2,___flsub@b+2
  3626  00278E  C14F  F036         	movff	powf@r+3,___flsub@b+3
  3627  002792  C140  F037         	movff	_powf$1399,___flsub@a
  3628  002796  C141  F038         	movff	_powf$1399+1,___flsub@a+1
  3629  00279A  C142  F039         	movff	_powf$1399+2,___flsub@a+2
  3630  00279E  C143  F03A         	movff	_powf$1399+3,___flsub@a+3
  3631  0027A2  EC57  F02C         	call	___flsub	;wreg free
  3632  0027A6  C033  F134         	movff	?___flsub,powf@t_l
  3633  0027AA  C034  F135         	movff	?___flsub+1,powf@t_l+1
  3634  0027AE  C035  F136         	movff	?___flsub+2,powf@t_l+2
  3635  0027B2  C036  F137         	movff	?___flsub+3,powf@t_l+3
  3636  0027B6  C16C  F01A         	movff	powf@s_h,___flmul@b
  3637  0027BA  C16D  F01B         	movff	powf@s_h+1,___flmul@b+1
  3638  0027BE  C16E  F01C         	movff	powf@s_h+2,___flmul@b+2
  3639  0027C2  C16F  F01D         	movff	powf@s_h+3,___flmul@b+3
  3640  0027C6  C168  F01E         	movff	powf@t_h,___flmul@a
  3641  0027CA  C169  F01F         	movff	powf@t_h+1,___flmul@a+1
  3642  0027CE  C16A  F020         	movff	powf@t_h+2,___flmul@a+2
  3643  0027D2  C16B  F021         	movff	powf@t_h+3,___flmul@a+3
  3644  0027D6  EC19  F022         	call	___flmul	;wreg free
  3645  0027DA  C01A  F174         	movff	?___flmul,powf@u
  3646  0027DE  C01B  F175         	movff	?___flmul+1,powf@u+1
  3647  0027E2  C01C  F176         	movff	?___flmul+2,powf@u+2
  3648  0027E6  C01D  F177         	movff	?___flmul+3,powf@u+3
  3649  0027EA  C168  F01E         	movff	powf@t_h,___flmul@a
  3650  0027EE  C169  F01F         	movff	powf@t_h+1,___flmul@a+1
  3651  0027F2  C16A  F020         	movff	powf@t_h+2,___flmul@a+2
  3652  0027F6  C16B  F021         	movff	powf@t_h+3,___flmul@a+3
  3653  0027FA  C130  F01A         	movff	powf@s_l,___flmul@b
  3654  0027FE  C131  F01B         	movff	powf@s_l+1,___flmul@b+1
  3655  002802  C132  F01C         	movff	powf@s_l+2,___flmul@b+2
  3656  002806  C133  F01D         	movff	powf@s_l+3,___flmul@b+3
  3657  00280A  EC19  F022         	call	___flmul	;wreg free
  3658  00280E  C01A  F00A         	movff	?___flmul,___fladd@b
  3659  002812  C01B  F00B         	movff	?___flmul+1,___fladd@b+1
  3660  002816  C01C  F00C         	movff	?___flmul+2,___fladd@b+2
  3661  00281A  C01D  F00D         	movff	?___flmul+3,___fladd@b+3
  3662  00281E  C15C  F01E         	movff	powf@s,___flmul@a
  3663  002822  C15D  F01F         	movff	powf@s+1,___flmul@a+1
  3664  002826  C15E  F020         	movff	powf@s+2,___flmul@a+2
  3665  00282A  C15F  F021         	movff	powf@s+3,___flmul@a+3
  3666  00282E  C134  F01A         	movff	powf@t_l,___flmul@b
  3667  002832  C135  F01B         	movff	powf@t_l+1,___flmul@b+1
  3668  002836  C136  F01C         	movff	powf@t_l+2,___flmul@b+2
  3669  00283A  C137  F01D         	movff	powf@t_l+3,___flmul@b+3
  3670  00283E  EC19  F022         	call	___flmul	;wreg free
  3671  002842  C01A  F00E         	movff	?___flmul,___fladd@a
  3672  002846  C01B  F00F         	movff	?___flmul+1,___fladd@a+1
  3673  00284A  C01C  F010         	movff	?___flmul+2,___fladd@a+2
  3674  00284E  C01D  F011         	movff	?___flmul+3,___fladd@a+3
  3675  002852  ECB9  F01F         	call	___fladd	;wreg free
  3676  002856  C00A  F178         	movff	?___fladd,powf@v
  3677  00285A  C00B  F179         	movff	?___fladd+1,powf@v+1
  3678  00285E  C00C  F17A         	movff	?___fladd+2,powf@v+2
  3679  002862  C00D  F17B         	movff	?___fladd+3,powf@v+3
  3680  002866  C174  F00A         	movff	powf@u,___fladd@b
  3681  00286A  C175  F00B         	movff	powf@u+1,___fladd@b+1
  3682  00286E  C176  F00C         	movff	powf@u+2,___fladd@b+2
  3683  002872  C177  F00D         	movff	powf@u+3,___fladd@b+3
  3684  002876  C178  F00E         	movff	powf@v,___fladd@a
  3685  00287A  C179  F00F         	movff	powf@v+1,___fladd@a+1
  3686  00287E  C17A  F010         	movff	powf@v+2,___fladd@a+2
  3687  002882  C17B  F011         	movff	powf@v+3,___fladd@a+3
  3688  002886  ECB9  F01F         	call	___fladd	;wreg free
  3689  00288A  C00A  F19C         	movff	?___fladd,powf@p_h
  3690  00288E  C00B  F19D         	movff	?___fladd+1,powf@p_h+1
  3691  002892  C00C  F19E         	movff	?___fladd+2,powf@p_h+2
  3692  002896  C00D  F19F         	movff	?___fladd+3,powf@p_h+3
  3693  00289A  C19C  F1B8         	movff	powf@p_h,powf@__xc8_float_word
  3694  00289E  C19D  F1B9         	movff	powf@p_h+1,powf@__xc8_float_word+1
  3695  0028A2  C19E  F1BA         	movff	powf@p_h+2,powf@__xc8_float_word+2
  3696  0028A6  C19F  F1BB         	movff	powf@p_h+3,powf@__xc8_float_word+3
  3697  0028AA  C1B8  F194         	movff	powf@__xc8_float_word,powf@is
  3698  0028AE  C1B9  F195         	movff	powf@__xc8_float_word+1,powf@is+1
  3699  0028B2  C1BA  F196         	movff	powf@__xc8_float_word+2,powf@is+2
  3700  0028B6  C1BB  F197         	movff	powf@__xc8_float_word+3,powf@is+3
  3701  0028BA  0E00               	movlw	0
  3702  0028BC  0101               	movlb	1	; () banked
  3703  0028BE  1594               	andwf	powf@is& (0+255),w,b
  3704  0028C0  6FB8               	movwf	powf@__xc8_float_word& (0+255),b
  3705  0028C2  0EF0               	movlw	240
  3706  0028C4  1595               	andwf	(powf@is+1)& (0+255),w,b
  3707  0028C6  6FB9               	movwf	(powf@__xc8_float_word+1)& (0+255),b
  3708  0028C8  0EFF               	movlw	255
  3709  0028CA  1596               	andwf	(powf@is+2)& (0+255),w,b
  3710  0028CC  6FBA               	movwf	(powf@__xc8_float_word+2)& (0+255),b
  3711  0028CE  0EFF               	movlw	255
  3712  0028D0  1597               	andwf	(powf@is+3)& (0+255),w,b
  3713  0028D2  6FBB               	movwf	(powf@__xc8_float_word+3)& (0+255),b
  3714  0028D4                     
  3715                           ; BSR set to: 1
  3716  0028D4  C1B8  F19C         	movff	powf@__xc8_float_word,powf@p_h
  3717  0028D8  C1B9  F19D         	movff	powf@__xc8_float_word+1,powf@p_h+1
  3718  0028DC  C1BA  F19E         	movff	powf@__xc8_float_word+2,powf@p_h+2
  3719  0028E0  C1BB  F19F         	movff	powf@__xc8_float_word+3,powf@p_h+3
  3720  0028E4                     
  3721                           ; BSR set to: 1
  3722  0028E4  C174  F037         	movff	powf@u,___flsub@a
  3723  0028E8  C175  F038         	movff	powf@u+1,___flsub@a+1
  3724  0028EC  C176  F039         	movff	powf@u+2,___flsub@a+2
  3725  0028F0  C177  F03A         	movff	powf@u+3,___flsub@a+3
  3726  0028F4  C19C  F033         	movff	powf@p_h,___flsub@b
  3727  0028F8  C19D  F034         	movff	powf@p_h+1,___flsub@b+1
  3728  0028FC  C19E  F035         	movff	powf@p_h+2,___flsub@b+2
  3729  002900  C19F  F036         	movff	powf@p_h+3,___flsub@b+3
  3730  002904  EC57  F02C         	call	___flsub	;wreg free
  3731  002908  C033  F198         	movff	?___flsub,_powf$1393
  3732  00290C  C034  F199         	movff	?___flsub+1,_powf$1393+1
  3733  002910  C035  F19A         	movff	?___flsub+2,_powf$1393+2
  3734  002914  C036  F19B         	movff	?___flsub+3,_powf$1393+3
  3735  002918  C178  F033         	movff	powf@v,___flsub@b
  3736  00291C  C179  F034         	movff	powf@v+1,___flsub@b+1
  3737  002920  C17A  F035         	movff	powf@v+2,___flsub@b+2
  3738  002924  C17B  F036         	movff	powf@v+3,___flsub@b+3
  3739  002928  C198  F037         	movff	_powf$1393,___flsub@a
  3740  00292C  C199  F038         	movff	_powf$1393+1,___flsub@a+1
  3741  002930  C19A  F039         	movff	_powf$1393+2,___flsub@a+2
  3742  002934  C19B  F03A         	movff	_powf$1393+3,___flsub@a+3
  3743  002938  EC57  F02C         	call	___flsub	;wreg free
  3744  00293C  C033  F164         	movff	?___flsub,powf@p_l
  3745  002940  C034  F165         	movff	?___flsub+1,powf@p_l+1
  3746  002944  C035  F166         	movff	?___flsub+2,powf@p_l+2
  3747  002948  C036  F167         	movff	?___flsub+3,powf@p_l+3
  3748  00294C  C19C  F01A         	movff	powf@p_h,___flmul@b
  3749  002950  C19D  F01B         	movff	powf@p_h+1,___flmul@b+1
  3750  002954  C19E  F01C         	movff	powf@p_h+2,___flmul@b+2
  3751  002958  C19F  F01D         	movff	powf@p_h+3,___flmul@b+3
  3752  00295C  0E00               	movlw	0
  3753  00295E  6E1E               	movwf	___flmul@a^0,c
  3754  002960  0E40               	movlw	64
  3755  002962  6E1F               	movwf	(___flmul@a+1)^0,c
  3756  002964  0E76               	movlw	118
  3757  002966  6E20               	movwf	(___flmul@a+2)^0,c
  3758  002968  0E3F               	movlw	63
  3759  00296A  6E21               	movwf	(___flmul@a+3)^0,c
  3760  00296C  EC19  F022         	call	___flmul	;wreg free
  3761  002970  C01A  F120         	movff	?___flmul,powf@z_h
  3762  002974  C01B  F121         	movff	?___flmul+1,powf@z_h+1
  3763  002978  C01C  F122         	movff	?___flmul+2,powf@z_h+2
  3764  00297C  C01D  F123         	movff	?___flmul+3,powf@z_h+3
  3765  002980  0E4F               	movlw	79
  3766  002982  6E1E               	movwf	___flmul@a^0,c
  3767  002984  0E38               	movlw	56
  3768  002986  6E1F               	movwf	(___flmul@a+1)^0,c
  3769  002988  0E76               	movlw	118
  3770  00298A  6E20               	movwf	(___flmul@a+2)^0,c
  3771  00298C  0E3F               	movlw	63
  3772  00298E  6E21               	movwf	(___flmul@a+3)^0,c
  3773  002990  C164  F01A         	movff	powf@p_l,___flmul@b
  3774  002994  C165  F01B         	movff	powf@p_l+1,___flmul@b+1
  3775  002998  C166  F01C         	movff	powf@p_l+2,___flmul@b+2
  3776  00299C  C167  F01D         	movff	powf@p_l+3,___flmul@b+3
  3777  0029A0  EC19  F022         	call	___flmul	;wreg free
  3778  0029A4  C01A  F00E         	movff	?___flmul,___fladd@a
  3779  0029A8  C01B  F00F         	movff	?___flmul+1,___fladd@a+1
  3780  0029AC  C01C  F010         	movff	?___flmul+2,___fladd@a+2
  3781  0029B0  C01D  F011         	movff	?___flmul+3,___fladd@a+3
  3782  0029B4  0EC6               	movlw	198
  3783  0029B6  6E1E               	movwf	___flmul@a^0,c
  3784  0029B8  0E23               	movlw	35
  3785  0029BA  6E1F               	movwf	(___flmul@a+1)^0,c
  3786  0029BC  0EF6               	movlw	246
  3787  0029BE  6E20               	movwf	(___flmul@a+2)^0,c
  3788  0029C0  0EB8               	movlw	184
  3789  0029C2  6E21               	movwf	(___flmul@a+3)^0,c
  3790  0029C4  C19C  F01A         	movff	powf@p_h,___flmul@b
  3791  0029C8  C19D  F01B         	movff	powf@p_h+1,___flmul@b+1
  3792  0029CC  C19E  F01C         	movff	powf@p_h+2,___flmul@b+2
  3793  0029D0  C19F  F01D         	movff	powf@p_h+3,___flmul@b+3
  3794  0029D4  EC19  F022         	call	___flmul	;wreg free
  3795  0029D8  C01A  F00A         	movff	?___flmul,___fladd@b
  3796  0029DC  C01B  F00B         	movff	?___flmul+1,___fladd@b+1
  3797  0029E0  C01C  F00C         	movff	?___flmul+2,___fladd@b+2
  3798  0029E4  C01D  F00D         	movff	?___flmul+3,___fladd@b+3
  3799  0029E8  ECB9  F01F         	call	___fladd	;wreg free
  3800  0029EC  C00A  F158         	movff	?___fladd,_powf$1397
  3801  0029F0  C00B  F159         	movff	?___fladd+1,_powf$1397+1
  3802  0029F4  C00C  F15A         	movff	?___fladd+2,_powf$1397+2
  3803  0029F8  C00D  F15B         	movff	?___fladd+3,_powf$1397+3
  3804  0029FC  C158  F00A         	movff	_powf$1397,___fladd@b
  3805  002A00  C159  F00B         	movff	_powf$1397+1,___fladd@b+1
  3806  002A04  C15A  F00C         	movff	_powf$1397+2,___fladd@b+2
  3807  002A08  C15B  F00D         	movff	_powf$1397+3,___fladd@b+3
  3808  002A0C  C1A0  F095         	movff	powf@k,??_powf
  3809  002A10  C1A1  F096         	movff	powf@k+1,??_powf+1
  3810  002A14  0100               	movlb	0	; () banked
  3811  002A16  90D8               	bcf	status,0,c
  3812  002A18  3795               	rlcf	??_powf& (0+255),f,b
  3813  002A1A  3796               	rlcf	(??_powf+1)& (0+255),f,b
  3814  002A1C  90D8               	bcf	status,0,c
  3815  002A1E  3795               	rlcf	??_powf& (0+255),f,b
  3816  002A20  3796               	rlcf	(??_powf+1)& (0+255),f,b
  3817  002A22  0E01               	movlw	low _dp_l
  3818  002A24  2595               	addwf	??_powf& (0+255),w,b
  3819  002A26  6EF6               	movwf	tblptrl,c
  3820  002A28  0E10               	movlw	high _dp_l
  3821  002A2A  2196               	addwfc	(??_powf+1)& (0+255),w,b
  3822  002A2C  6EF7               	movwf	tblptrh,c
  3823  002A2E                     	if	1	;There are 3 active tblptr bytes
  3824  002A2E  6AF8               	clrf	tblptru,c
  3825  002A30  0E00               	movlw	low (__mediumconst shr (0+16))
  3826  002A32  22F8               	addwfc	tblptru,f,c
  3827  002A34                     	endif
  3828  002A34  0009               	tblrd		*+
  3829  002A36  CFF5 F00E          	movff	tablat,___fladd@a
  3830  002A3A  0009               	tblrd		*+
  3831  002A3C  CFF5 F00F          	movff	tablat,___fladd@a+1
  3832  002A40  0009               	tblrd		*+
  3833  002A42  CFF5 F010          	movff	tablat,___fladd@a+2
  3834  002A46  000A               	tblrd		*-
  3835  002A48  CFF5 F011          	movff	tablat,___fladd@a+3
  3836  002A4C  ECB9  F01F         	call	___fladd	;wreg free
  3837  002A50  C00A  F124         	movff	?___fladd,powf@z_l
  3838  002A54  C00B  F125         	movff	?___fladd+1,powf@z_l+1
  3839  002A58  C00C  F126         	movff	?___fladd+2,powf@z_l+2
  3840  002A5C  C00D  F127         	movff	?___fladd+3,powf@z_l+3
  3841  002A60  C180  F00A         	movff	powf@n,___xxtofl@val
  3842  002A64  C181  F00B         	movff	powf@n+1,___xxtofl@val+1
  3843  002A68  C182  F00C         	movff	powf@n+2,___xxtofl@val+2
  3844  002A6C  C183  F00D         	movff	powf@n+3,___xxtofl@val+3
  3845  002A70  0E01               	movlw	1
  3846  002A72  EC48  F028         	call	___xxtofl
  3847  002A76  C00A  F1B0         	movff	?___xxtofl,powf@t
  3848  002A7A  C00B  F1B1         	movff	?___xxtofl+1,powf@t+1
  3849  002A7E  C00C  F1B2         	movff	?___xxtofl+2,powf@t+2
  3850  002A82  C00D  F1B3         	movff	?___xxtofl+3,powf@t+3
  3851  002A86  C124  F00E         	movff	powf@z_l,___fladd@a
  3852  002A8A  C125  F00F         	movff	powf@z_l+1,___fladd@a+1
  3853  002A8E  C126  F010         	movff	powf@z_l+2,___fladd@a+2
  3854  002A92  C127  F011         	movff	powf@z_l+3,___fladd@a+3
  3855  002A96  C120  F00A         	movff	powf@z_h,___fladd@b
  3856  002A9A  C121  F00B         	movff	powf@z_h+1,___fladd@b+1
  3857  002A9E  C122  F00C         	movff	powf@z_h+2,___fladd@b+2
  3858  002AA2  C123  F00D         	movff	powf@z_h+3,___fladd@b+3
  3859  002AA6  ECB9  F01F         	call	___fladd	;wreg free
  3860  002AAA  C00A  F158         	movff	?___fladd,_powf$1397
  3861  002AAE  C00B  F159         	movff	?___fladd+1,_powf$1397+1
  3862  002AB2  C00C  F15A         	movff	?___fladd+2,_powf$1397+2
  3863  002AB6  C00D  F15B         	movff	?___fladd+3,_powf$1397+3
  3864  002ABA  C1A0  F095         	movff	powf@k,??_powf
  3865  002ABE  C1A1  F096         	movff	powf@k+1,??_powf+1
  3866  002AC2  0100               	movlb	0	; () banked
  3867  002AC4  90D8               	bcf	status,0,c
  3868  002AC6  3795               	rlcf	??_powf& (0+255),f,b
  3869  002AC8  3796               	rlcf	(??_powf+1)& (0+255),f,b
  3870  002ACA  90D8               	bcf	status,0,c
  3871  002ACC  3795               	rlcf	??_powf& (0+255),f,b
  3872  002ACE  3796               	rlcf	(??_powf+1)& (0+255),f,b
  3873  002AD0  0E09               	movlw	low _dp_h
  3874  002AD2  2595               	addwf	??_powf& (0+255),w,b
  3875  002AD4  6EF6               	movwf	tblptrl,c
  3876  002AD6  0E10               	movlw	high _dp_h
  3877  002AD8  2196               	addwfc	(??_powf+1)& (0+255),w,b
  3878  002ADA  6EF7               	movwf	tblptrh,c
  3879  002ADC                     	if	1	;There are 3 active tblptr bytes
  3880  002ADC  6AF8               	clrf	tblptru,c
  3881  002ADE  0E00               	movlw	low (__mediumconst shr (0+16))
  3882  002AE0  22F8               	addwfc	tblptru,f,c
  3883  002AE2                     	endif
  3884  002AE2  0009               	tblrd		*+
  3885  002AE4  CFF5 F00E          	movff	tablat,___fladd@a
  3886  002AE8  0009               	tblrd		*+
  3887  002AEA  CFF5 F00F          	movff	tablat,___fladd@a+1
  3888  002AEE  0009               	tblrd		*+
  3889  002AF0  CFF5 F010          	movff	tablat,___fladd@a+2
  3890  002AF4  000A               	tblrd		*-
  3891  002AF6  CFF5 F011          	movff	tablat,___fladd@a+3
  3892  002AFA  C158  F00A         	movff	_powf$1397,___fladd@b
  3893  002AFE  C159  F00B         	movff	_powf$1397+1,___fladd@b+1
  3894  002B02  C15A  F00C         	movff	_powf$1397+2,___fladd@b+2
  3895  002B06  C15B  F00D         	movff	_powf$1397+3,___fladd@b+3
  3896  002B0A  ECB9  F01F         	call	___fladd	;wreg free
  3897  002B0E  C00A  F108         	movff	?___fladd,_powf$1400
  3898  002B12  C00B  F109         	movff	?___fladd+1,_powf$1400+1
  3899  002B16  C00C  F10A         	movff	?___fladd+2,_powf$1400+2
  3900  002B1A  C00D  F10B         	movff	?___fladd+3,_powf$1400+3
  3901  002B1E  C108  F00A         	movff	_powf$1400,___fladd@b
  3902  002B22  C109  F00B         	movff	_powf$1400+1,___fladd@b+1
  3903  002B26  C10A  F00C         	movff	_powf$1400+2,___fladd@b+2
  3904  002B2A  C10B  F00D         	movff	_powf$1400+3,___fladd@b+3
  3905  002B2E  C1B0  F00E         	movff	powf@t,___fladd@a
  3906  002B32  C1B1  F00F         	movff	powf@t+1,___fladd@a+1
  3907  002B36  C1B2  F010         	movff	powf@t+2,___fladd@a+2
  3908  002B3A  C1B3  F011         	movff	powf@t+3,___fladd@a+3
  3909  002B3E  ECB9  F01F         	call	___fladd	;wreg free
  3910  002B42  C00A  F184         	movff	?___fladd,powf@t1
  3911  002B46  C00B  F185         	movff	?___fladd+1,powf@t1+1
  3912  002B4A  C00C  F186         	movff	?___fladd+2,powf@t1+2
  3913  002B4E  C00D  F187         	movff	?___fladd+3,powf@t1+3
  3914  002B52  C184  F1B8         	movff	powf@t1,powf@__xc8_float_word
  3915  002B56  C185  F1B9         	movff	powf@t1+1,powf@__xc8_float_word+1
  3916  002B5A  C186  F1BA         	movff	powf@t1+2,powf@__xc8_float_word+2
  3917  002B5E  C187  F1BB         	movff	powf@t1+3,powf@__xc8_float_word+3
  3918  002B62  C1B8  F194         	movff	powf@__xc8_float_word,powf@is
  3919  002B66  C1B9  F195         	movff	powf@__xc8_float_word+1,powf@is+1
  3920  002B6A  C1BA  F196         	movff	powf@__xc8_float_word+2,powf@is+2
  3921  002B6E  C1BB  F197         	movff	powf@__xc8_float_word+3,powf@is+3
  3922  002B72  0E00               	movlw	0
  3923  002B74  0101               	movlb	1	; () banked
  3924  002B76  1594               	andwf	powf@is& (0+255),w,b
  3925  002B78  6FB8               	movwf	powf@__xc8_float_word& (0+255),b
  3926  002B7A  0EF0               	movlw	240
  3927  002B7C  1595               	andwf	(powf@is+1)& (0+255),w,b
  3928  002B7E  6FB9               	movwf	(powf@__xc8_float_word+1)& (0+255),b
  3929  002B80  0EFF               	movlw	255
  3930  002B82  1596               	andwf	(powf@is+2)& (0+255),w,b
  3931  002B84  6FBA               	movwf	(powf@__xc8_float_word+2)& (0+255),b
  3932  002B86  0EFF               	movlw	255
  3933  002B88  1597               	andwf	(powf@is+3)& (0+255),w,b
  3934  002B8A  6FBB               	movwf	(powf@__xc8_float_word+3)& (0+255),b
  3935  002B8C                     
  3936                           ; BSR set to: 1
  3937  002B8C  C1B8  F184         	movff	powf@__xc8_float_word,powf@t1
  3938  002B90  C1B9  F185         	movff	powf@__xc8_float_word+1,powf@t1+1
  3939  002B94  C1BA  F186         	movff	powf@__xc8_float_word+2,powf@t1+2
  3940  002B98  C1BB  F187         	movff	powf@__xc8_float_word+3,powf@t1+3
  3941  002B9C                     
  3942                           ; BSR set to: 1
  3943  002B9C  C1B0  F037         	movff	powf@t,___flsub@a
  3944  002BA0  C1B1  F038         	movff	powf@t+1,___flsub@a+1
  3945  002BA4  C1B2  F039         	movff	powf@t+2,___flsub@a+2
  3946  002BA8  C1B3  F03A         	movff	powf@t+3,___flsub@a+3
  3947  002BAC  C184  F033         	movff	powf@t1,___flsub@b
  3948  002BB0  C185  F034         	movff	powf@t1+1,___flsub@b+1
  3949  002BB4  C186  F035         	movff	powf@t1+2,___flsub@b+2
  3950  002BB8  C187  F036         	movff	powf@t1+3,___flsub@b+3
  3951  002BBC  EC57  F02C         	call	___flsub	;wreg free
  3952  002BC0  C033  F198         	movff	?___flsub,_powf$1393
  3953  002BC4  C034  F199         	movff	?___flsub+1,_powf$1393+1
  3954  002BC8  C035  F19A         	movff	?___flsub+2,_powf$1393+2
  3955  002BCC  C036  F19B         	movff	?___flsub+3,_powf$1393+3
  3956  002BD0  C1A0  F095         	movff	powf@k,??_powf
  3957  002BD4  C1A1  F096         	movff	powf@k+1,??_powf+1
  3958  002BD8  0100               	movlb	0	; () banked
  3959  002BDA  90D8               	bcf	status,0,c
  3960  002BDC  3795               	rlcf	??_powf& (0+255),f,b
  3961  002BDE  3796               	rlcf	(??_powf+1)& (0+255),f,b
  3962  002BE0  90D8               	bcf	status,0,c
  3963  002BE2  3795               	rlcf	??_powf& (0+255),f,b
  3964  002BE4  3796               	rlcf	(??_powf+1)& (0+255),f,b
  3965  002BE6  0E09               	movlw	low _dp_h
  3966  002BE8  2595               	addwf	??_powf& (0+255),w,b
  3967  002BEA  6EF6               	movwf	tblptrl,c
  3968  002BEC  0E10               	movlw	high _dp_h
  3969  002BEE  2196               	addwfc	(??_powf+1)& (0+255),w,b
  3970  002BF0  6EF7               	movwf	tblptrh,c
  3971  002BF2                     	if	1	;There are 3 active tblptr bytes
  3972  002BF2  6AF8               	clrf	tblptru,c
  3973  002BF4  0E00               	movlw	low (__mediumconst shr (0+16))
  3974  002BF6  22F8               	addwfc	tblptru,f,c
  3975  002BF8                     	endif
  3976  002BF8  0009               	tblrd		*+
  3977  002BFA  CFF5 F037          	movff	tablat,___flsub@a
  3978  002BFE  0009               	tblrd		*+
  3979  002C00  CFF5 F038          	movff	tablat,___flsub@a+1
  3980  002C04  0009               	tblrd		*+
  3981  002C06  CFF5 F039          	movff	tablat,___flsub@a+2
  3982  002C0A  000A               	tblrd		*-
  3983  002C0C  CFF5 F03A          	movff	tablat,___flsub@a+3
  3984  002C10  C198  F033         	movff	_powf$1393,___flsub@b
  3985  002C14  C199  F034         	movff	_powf$1393+1,___flsub@b+1
  3986  002C18  C19A  F035         	movff	_powf$1393+2,___flsub@b+2
  3987  002C1C  C19B  F036         	movff	_powf$1393+3,___flsub@b+3
  3988  002C20  EC57  F02C         	call	___flsub	;wreg free
  3989  002C24  C033  F140         	movff	?___flsub,_powf$1399
  3990  002C28  C034  F141         	movff	?___flsub+1,_powf$1399+1
  3991  002C2C  C035  F142         	movff	?___flsub+2,_powf$1399+2
  3992  002C30  C036  F143         	movff	?___flsub+3,_powf$1399+3
  3993  002C34  C120  F037         	movff	powf@z_h,___flsub@a
  3994  002C38  C121  F038         	movff	powf@z_h+1,___flsub@a+1
  3995  002C3C  C122  F039         	movff	powf@z_h+2,___flsub@a+2
  3996  002C40  C123  F03A         	movff	powf@z_h+3,___flsub@a+3
  3997  002C44  C140  F033         	movff	_powf$1399,___flsub@b
  3998  002C48  C141  F034         	movff	_powf$1399+1,___flsub@b+1
  3999  002C4C  C142  F035         	movff	_powf$1399+2,___flsub@b+2
  4000  002C50  C143  F036         	movff	_powf$1399+3,___flsub@b+3
  4001  002C54  EC57  F02C         	call	___flsub	;wreg free
  4002  002C58  C033  F10C         	movff	?___flsub,_powf$1401
  4003  002C5C  C034  F10D         	movff	?___flsub+1,_powf$1401+1
  4004  002C60  C035  F10E         	movff	?___flsub+2,_powf$1401+2
  4005  002C64  C036  F10F         	movff	?___flsub+3,_powf$1401+3
  4006  002C68  C124  F033         	movff	powf@z_l,___flsub@b
  4007  002C6C  C125  F034         	movff	powf@z_l+1,___flsub@b+1
  4008  002C70  C126  F035         	movff	powf@z_l+2,___flsub@b+2
  4009  002C74  C127  F036         	movff	powf@z_l+3,___flsub@b+3
  4010  002C78  C10C  F037         	movff	_powf$1401,___flsub@a
  4011  002C7C  C10D  F038         	movff	_powf$1401+1,___flsub@a+1
  4012  002C80  C10E  F039         	movff	_powf$1401+2,___flsub@a+2
  4013  002C84  C10F  F03A         	movff	_powf$1401+3,___flsub@a+3
  4014  002C88  EC57  F02C         	call	___flsub	;wreg free
  4015  002C8C  C033  F11C         	movff	?___flsub,powf@t2
  4016  002C90  C034  F11D         	movff	?___flsub+1,powf@t2+1
  4017  002C94  C035  F11E         	movff	?___flsub+2,powf@t2+2
  4018  002C98  C036  F11F         	movff	?___flsub+3,powf@t2+3
  4019  002C9C                     l4847:
  4020  002C9C  C091  F1B8         	movff	powf@y,powf@__xc8_float_word
  4021  002CA0  C092  F1B9         	movff	powf@y+1,powf@__xc8_float_word+1
  4022  002CA4  C093  F1BA         	movff	powf@y+2,powf@__xc8_float_word+2
  4023  002CA8  C094  F1BB         	movff	powf@y+3,powf@__xc8_float_word+3
  4024  002CAC  C1B8  F194         	movff	powf@__xc8_float_word,powf@is
  4025  002CB0  C1B9  F195         	movff	powf@__xc8_float_word+1,powf@is+1
  4026  002CB4  C1BA  F196         	movff	powf@__xc8_float_word+2,powf@is+2
  4027  002CB8  C1BB  F197         	movff	powf@__xc8_float_word+3,powf@is+3
  4028  002CBC  0E00               	movlw	0
  4029  002CBE  0101               	movlb	1	; () banked
  4030  002CC0  1594               	andwf	powf@is& (0+255),w,b
  4031  002CC2  6FB8               	movwf	powf@__xc8_float_word& (0+255),b
  4032  002CC4  0EF0               	movlw	240
  4033  002CC6  1595               	andwf	(powf@is+1)& (0+255),w,b
  4034  002CC8  6FB9               	movwf	(powf@__xc8_float_word+1)& (0+255),b
  4035  002CCA  0EFF               	movlw	255
  4036  002CCC  1596               	andwf	(powf@is+2)& (0+255),w,b
  4037  002CCE  6FBA               	movwf	(powf@__xc8_float_word+2)& (0+255),b
  4038  002CD0  0EFF               	movlw	255
  4039  002CD2  1597               	andwf	(powf@is+3)& (0+255),w,b
  4040  002CD4  6FBB               	movwf	(powf@__xc8_float_word+3)& (0+255),b
  4041  002CD6                     
  4042                           ; BSR set to: 1
  4043  002CD6  C1B8  F128         	movff	powf@__xc8_float_word,powf@y1
  4044  002CDA  C1B9  F129         	movff	powf@__xc8_float_word+1,powf@y1+1
  4045  002CDE  C1BA  F12A         	movff	powf@__xc8_float_word+2,powf@y1+2
  4046  002CE2  C1BB  F12B         	movff	powf@__xc8_float_word+3,powf@y1+3
  4047  002CE6                     
  4048                           ; BSR set to: 1
  4049  002CE6  C184  F01E         	movff	powf@t1,___flmul@a
  4050  002CEA  C185  F01F         	movff	powf@t1+1,___flmul@a+1
  4051  002CEE  C186  F020         	movff	powf@t1+2,___flmul@a+2
  4052  002CF2  C187  F021         	movff	powf@t1+3,___flmul@a+3
  4053  002CF6  C128  F037         	movff	powf@y1,___flsub@a
  4054  002CFA  C129  F038         	movff	powf@y1+1,___flsub@a+1
  4055  002CFE  C12A  F039         	movff	powf@y1+2,___flsub@a+2
  4056  002D02  C12B  F03A         	movff	powf@y1+3,___flsub@a+3
  4057  002D06  C091  F033         	movff	powf@y,___flsub@b
  4058  002D0A  C092  F034         	movff	powf@y+1,___flsub@b+1
  4059  002D0E  C093  F035         	movff	powf@y+2,___flsub@b+2
  4060  002D12  C094  F036         	movff	powf@y+3,___flsub@b+3
  4061  002D16  EC57  F02C         	call	___flsub	;wreg free
  4062  002D1A  C033  F01A         	movff	?___flsub,___flmul@b
  4063  002D1E  C034  F01B         	movff	?___flsub+1,___flmul@b+1
  4064  002D22  C035  F01C         	movff	?___flsub+2,___flmul@b+2
  4065  002D26  C036  F01D         	movff	?___flsub+3,___flmul@b+3
  4066  002D2A  EC19  F022         	call	___flmul	;wreg free
  4067  002D2E  C01A  F110         	movff	?___flmul,_powf$1402
  4068  002D32  C01B  F111         	movff	?___flmul+1,_powf$1402+1
  4069  002D36  C01C  F112         	movff	?___flmul+2,_powf$1402+2
  4070  002D3A  C01D  F113         	movff	?___flmul+3,_powf$1402+3
  4071  002D3E  C110  F00A         	movff	_powf$1402,___fladd@b
  4072  002D42  C111  F00B         	movff	_powf$1402+1,___fladd@b+1
  4073  002D46  C112  F00C         	movff	_powf$1402+2,___fladd@b+2
  4074  002D4A  C113  F00D         	movff	_powf$1402+3,___fladd@b+3
  4075  002D4E  C11C  F01E         	movff	powf@t2,___flmul@a
  4076  002D52  C11D  F01F         	movff	powf@t2+1,___flmul@a+1
  4077  002D56  C11E  F020         	movff	powf@t2+2,___flmul@a+2
  4078  002D5A  C11F  F021         	movff	powf@t2+3,___flmul@a+3
  4079  002D5E  C091  F01A         	movff	powf@y,___flmul@b
  4080  002D62  C092  F01B         	movff	powf@y+1,___flmul@b+1
  4081  002D66  C093  F01C         	movff	powf@y+2,___flmul@b+2
  4082  002D6A  C094  F01D         	movff	powf@y+3,___flmul@b+3
  4083  002D6E  EC19  F022         	call	___flmul	;wreg free
  4084  002D72  C01A  F00E         	movff	?___flmul,___fladd@a
  4085  002D76  C01B  F00F         	movff	?___flmul+1,___fladd@a+1
  4086  002D7A  C01C  F010         	movff	?___flmul+2,___fladd@a+2
  4087  002D7E  C01D  F011         	movff	?___flmul+3,___fladd@a+3
  4088  002D82  ECB9  F01F         	call	___fladd	;wreg free
  4089  002D86  C00A  F164         	movff	?___fladd,powf@p_l
  4090  002D8A  C00B  F165         	movff	?___fladd+1,powf@p_l+1
  4091  002D8E  C00C  F166         	movff	?___fladd+2,powf@p_l+2
  4092  002D92  C00D  F167         	movff	?___fladd+3,powf@p_l+3
  4093  002D96  C128  F01A         	movff	powf@y1,___flmul@b
  4094  002D9A  C129  F01B         	movff	powf@y1+1,___flmul@b+1
  4095  002D9E  C12A  F01C         	movff	powf@y1+2,___flmul@b+2
  4096  002DA2  C12B  F01D         	movff	powf@y1+3,___flmul@b+3
  4097  002DA6  C184  F01E         	movff	powf@t1,___flmul@a
  4098  002DAA  C185  F01F         	movff	powf@t1+1,___flmul@a+1
  4099  002DAE  C186  F020         	movff	powf@t1+2,___flmul@a+2
  4100  002DB2  C187  F021         	movff	powf@t1+3,___flmul@a+3
  4101  002DB6  EC19  F022         	call	___flmul	;wreg free
  4102  002DBA  C01A  F19C         	movff	?___flmul,powf@p_h
  4103  002DBE  C01B  F19D         	movff	?___flmul+1,powf@p_h+1
  4104  002DC2  C01C  F19E         	movff	?___flmul+2,powf@p_h+2
  4105  002DC6  C01D  F19F         	movff	?___flmul+3,powf@p_h+3
  4106  002DCA  C164  F00A         	movff	powf@p_l,___fladd@b
  4107  002DCE  C165  F00B         	movff	powf@p_l+1,___fladd@b+1
  4108  002DD2  C166  F00C         	movff	powf@p_l+2,___fladd@b+2
  4109  002DD6  C167  F00D         	movff	powf@p_l+3,___fladd@b+3
  4110  002DDA  C19C  F00E         	movff	powf@p_h,___fladd@a
  4111  002DDE  C19D  F00F         	movff	powf@p_h+1,___fladd@a+1
  4112  002DE2  C19E  F010         	movff	powf@p_h+2,___fladd@a+2
  4113  002DE6  C19F  F011         	movff	powf@p_h+3,___fladd@a+3
  4114  002DEA  ECB9  F01F         	call	___fladd	;wreg free
  4115  002DEE  C00A  F1B4         	movff	?___fladd,powf@z
  4116  002DF2  C00B  F1B5         	movff	?___fladd+1,powf@z+1
  4117  002DF6  C00C  F1B6         	movff	?___fladd+2,powf@z+2
  4118  002DFA  C00D  F1B7         	movff	?___fladd+3,powf@z+3
  4119  002DFE  C1B4  F1B8         	movff	powf@z,powf@__xc8_float_word
  4120  002E02  C1B5  F1B9         	movff	powf@z+1,powf@__xc8_float_word+1
  4121  002E06  C1B6  F1BA         	movff	powf@z+2,powf@__xc8_float_word+2
  4122  002E0A  C1B7  F1BB         	movff	powf@z+3,powf@__xc8_float_word+3
  4123  002E0E  C1B8  F1AC         	movff	powf@__xc8_float_word,powf@j
  4124  002E12  C1B9  F1AD         	movff	powf@__xc8_float_word+1,powf@j+1
  4125  002E16  C1BA  F1AE         	movff	powf@__xc8_float_word+2,powf@j+2
  4126  002E1A  C1BB  F1AF         	movff	powf@__xc8_float_word+3,powf@j+3
  4127  002E1E  0101               	movlb	1	; () banked
  4128  002E20  BFAF               	btfsc	(powf@j+3)& (0+255),7,b
  4129  002E22  EF1F  F017         	goto	u5351
  4130  002E26  05AC               	decf	powf@j& (0+255),w,b
  4131  002E28  0E00               	movlw	0
  4132  002E2A  59AD               	subwfb	(powf@j+1)& (0+255),w,b
  4133  002E2C  0E00               	movlw	0
  4134  002E2E  59AE               	subwfb	(powf@j+2)& (0+255),w,b
  4135  002E30  0E43               	movlw	67
  4136  002E32  59AF               	subwfb	(powf@j+3)& (0+255),w,b
  4137  002E34  A0D8               	btfss	status,0,c
  4138  002E36  EF1F  F017         	goto	u5351
  4139  002E3A  EF21  F017         	goto	u5350
  4140  002E3E                     u5351:
  4141  002E3E  EF57  F017         	goto	l4875
  4142  002E42                     u5350:
  4143  002E42                     
  4144                           ; BSR set to: 1
  4145  002E42  0ECA               	movlw	202
  4146  002E44  6E1E               	movwf	___flmul@a^0,c
  4147  002E46  0EF2               	movlw	242
  4148  002E48  6E1F               	movwf	(___flmul@a+1)^0,c
  4149  002E4A  0E49               	movlw	73
  4150  002E4C  6E20               	movwf	(___flmul@a+2)^0,c
  4151  002E4E  0E71               	movlw	113
  4152  002E50  6E21               	movwf	(___flmul@a+3)^0,c
  4153  002E52  C188  F01A         	movff	powf@sn,___flmul@b
  4154  002E56  C189  F01B         	movff	powf@sn+1,___flmul@b+1
  4155  002E5A  C18A  F01C         	movff	powf@sn+2,___flmul@b+2
  4156  002E5E  C18B  F01D         	movff	powf@sn+3,___flmul@b+3
  4157  002E62  EC19  F022         	call	___flmul	;wreg free
  4158  002E66  C01A  F1A4         	movff	?___flmul,_powf$1390
  4159  002E6A  C01B  F1A5         	movff	?___flmul+1,_powf$1390+1
  4160  002E6E  C01C  F1A6         	movff	?___flmul+2,_powf$1390+2
  4161  002E72  C01D  F1A7         	movff	?___flmul+3,_powf$1390+3
  4162  002E76  C1A4  F01A         	movff	_powf$1390,___flmul@b
  4163  002E7A  C1A5  F01B         	movff	_powf$1390+1,___flmul@b+1
  4164  002E7E  C1A6  F01C         	movff	_powf$1390+2,___flmul@b+2
  4165  002E82  C1A7  F01D         	movff	_powf$1390+3,___flmul@b+3
  4166  002E86  0ECA               	movlw	202
  4167  002E88  6E1E               	movwf	___flmul@a^0,c
  4168  002E8A  0EF2               	movlw	242
  4169  002E8C  6E1F               	movwf	(___flmul@a+1)^0,c
  4170  002E8E  0E49               	movlw	73
  4171  002E90  6E20               	movwf	(___flmul@a+2)^0,c
  4172  002E92  0E71               	movlw	113
  4173  002E94  6E21               	movwf	(___flmul@a+3)^0,c
  4174  002E96  EC19  F022         	call	___flmul	;wreg free
  4175  002E9A  C01A  F08D         	movff	?___flmul,?_powf
  4176  002E9E  C01B  F08E         	movff	?___flmul+1,?_powf+1
  4177  002EA2  C01C  F08F         	movff	?___flmul+2,?_powf+2
  4178  002EA6  C01D  F090         	movff	?___flmul+3,?_powf+3
  4179  002EAA  EF58  F01D         	goto	l1176
  4180  002EAE                     l4875:
  4181                           
  4182                           ; BSR set to: 1
  4183  002EAE  0E43               	movlw	67
  4184  002EB0  19AF               	xorwf	(powf@j+3)& (0+255),w,b
  4185  002EB2  11AC               	iorwf	powf@j& (0+255),w,b
  4186  002EB4  11AD               	iorwf	(powf@j+1)& (0+255),w,b
  4187  002EB6  11AE               	iorwf	(powf@j+2)& (0+255),w,b
  4188  002EB8  A4D8               	btfss	status,2,c
  4189  002EBA  EF61  F017         	goto	u5361
  4190  002EBE  EF63  F017         	goto	u5360
  4191  002EC2                     u5361:
  4192  002EC2  EFD6  F017         	goto	l4883
  4193  002EC6                     u5360:
  4194  002EC6                     
  4195                           ; BSR set to: 1
  4196  002EC6  C19C  F037         	movff	powf@p_h,___flsub@a
  4197  002ECA  C19D  F038         	movff	powf@p_h+1,___flsub@a+1
  4198  002ECE  C19E  F039         	movff	powf@p_h+2,___flsub@a+2
  4199  002ED2  C19F  F03A         	movff	powf@p_h+3,___flsub@a+3
  4200  002ED6  C1B4  F033         	movff	powf@z,___flsub@b
  4201  002EDA  C1B5  F034         	movff	powf@z+1,___flsub@b+1
  4202  002EDE  C1B6  F035         	movff	powf@z+2,___flsub@b+2
  4203  002EE2  C1B7  F036         	movff	powf@z+3,___flsub@b+3
  4204  002EE6  EC57  F02C         	call	___flsub	;wreg free
  4205  002EEA  C033  F03B         	movff	?___flsub,___flge@ff1
  4206  002EEE  C034  F03C         	movff	?___flsub+1,___flge@ff1+1
  4207  002EF2  C035  F03D         	movff	?___flsub+2,___flge@ff1+2
  4208  002EF6  C036  F03E         	movff	?___flsub+3,___flge@ff1+3
  4209  002EFA  0E3C               	movlw	60
  4210  002EFC  6E0E               	movwf	___fladd@a^0,c
  4211  002EFE  0EAA               	movlw	170
  4212  002F00  6E0F               	movwf	(___fladd@a+1)^0,c
  4213  002F02  0E38               	movlw	56
  4214  002F04  6E10               	movwf	(___fladd@a+2)^0,c
  4215  002F06  0E33               	movlw	51
  4216  002F08  6E11               	movwf	(___fladd@a+3)^0,c
  4217  002F0A  C164  F00A         	movff	powf@p_l,___fladd@b
  4218  002F0E  C165  F00B         	movff	powf@p_l+1,___fladd@b+1
  4219  002F12  C166  F00C         	movff	powf@p_l+2,___fladd@b+2
  4220  002F16  C167  F00D         	movff	powf@p_l+3,___fladd@b+3
  4221  002F1A  ECB9  F01F         	call	___fladd	;wreg free
  4222  002F1E  C00A  F03F         	movff	?___fladd,___flge@ff2
  4223  002F22  C00B  F040         	movff	?___fladd+1,___flge@ff2+1
  4224  002F26  C00C  F041         	movff	?___fladd+2,___flge@ff2+2
  4225  002F2A  C00D  F042         	movff	?___fladd+3,___flge@ff2+3
  4226  002F2E  EC49  F02A         	call	___flge	;wreg free
  4227  002F32  B0D8               	btfsc	status,0,c
  4228  002F34  EF9E  F017         	goto	u5371
  4229  002F38  EFA0  F017         	goto	u5370
  4230  002F3C                     u5371:
  4231  002F3C  EFA0  F018         	goto	l4899
  4232  002F40                     u5370:
  4233  002F40  0ECA               	movlw	202
  4234  002F42  6E1E               	movwf	___flmul@a^0,c
  4235  002F44  0EF2               	movlw	242
  4236  002F46  6E1F               	movwf	(___flmul@a+1)^0,c
  4237  002F48  0E49               	movlw	73
  4238  002F4A  6E20               	movwf	(___flmul@a+2)^0,c
  4239  002F4C  0E71               	movlw	113
  4240  002F4E  6E21               	movwf	(___flmul@a+3)^0,c
  4241  002F50  C188  F01A         	movff	powf@sn,___flmul@b
  4242  002F54  C189  F01B         	movff	powf@sn+1,___flmul@b+1
  4243  002F58  C18A  F01C         	movff	powf@sn+2,___flmul@b+2
  4244  002F5C  C18B  F01D         	movff	powf@sn+3,___flmul@b+3
  4245  002F60  EC19  F022         	call	___flmul	;wreg free
  4246  002F64  C01A  F1A4         	movff	?___flmul,_powf$1390
  4247  002F68  C01B  F1A5         	movff	?___flmul+1,_powf$1390+1
  4248  002F6C  C01C  F1A6         	movff	?___flmul+2,_powf$1390+2
  4249  002F70  C01D  F1A7         	movff	?___flmul+3,_powf$1390+3
  4250  002F74  C1A4  F01A         	movff	_powf$1390,___flmul@b
  4251  002F78  C1A5  F01B         	movff	_powf$1390+1,___flmul@b+1
  4252  002F7C  C1A6  F01C         	movff	_powf$1390+2,___flmul@b+2
  4253  002F80  C1A7  F01D         	movff	_powf$1390+3,___flmul@b+3
  4254  002F84  0ECA               	movlw	202
  4255  002F86  6E1E               	movwf	___flmul@a^0,c
  4256  002F88  0EF2               	movlw	242
  4257  002F8A  6E1F               	movwf	(___flmul@a+1)^0,c
  4258  002F8C  0E49               	movlw	73
  4259  002F8E  6E20               	movwf	(___flmul@a+2)^0,c
  4260  002F90  0E71               	movlw	113
  4261  002F92  6E21               	movwf	(___flmul@a+3)^0,c
  4262  002F94  EC19  F022         	call	___flmul	;wreg free
  4263  002F98  C01A  F08D         	movff	?___flmul,?_powf
  4264  002F9C  C01B  F08E         	movff	?___flmul+1,?_powf+1
  4265  002FA0  C01C  F08F         	movff	?___flmul+2,?_powf+2
  4266  002FA4  C01D  F090         	movff	?___flmul+3,?_powf+3
  4267  002FA8  EF58  F01D         	goto	l1176
  4268  002FAC                     l4883:
  4269                           
  4270                           ; BSR set to: 1
  4271  002FAC  0EFF               	movlw	255
  4272  002FAE  15AC               	andwf	powf@j& (0+255),w,b
  4273  002FB0  0100               	movlb	0	; () banked
  4274  002FB2  6F95               	movwf	??_powf& (0+255),b
  4275  002FB4  0EFF               	movlw	255
  4276  002FB6  0101               	movlb	1	; () banked
  4277  002FB8  15AD               	andwf	(powf@j+1)& (0+255),w,b
  4278  002FBA  0100               	movlb	0	; () banked
  4279  002FBC  6F96               	movwf	(??_powf+1)& (0+255),b
  4280  002FBE  0EFF               	movlw	255
  4281  002FC0  0101               	movlb	1	; () banked
  4282  002FC2  15AE               	andwf	(powf@j+2)& (0+255),w,b
  4283  002FC4  0100               	movlb	0	; () banked
  4284  002FC6  6F97               	movwf	(??_powf+2)& (0+255),b
  4285  002FC8  0E7F               	movlw	127
  4286  002FCA  0101               	movlb	1	; () banked
  4287  002FCC  15AF               	andwf	(powf@j+3)& (0+255),w,b
  4288  002FCE  0100               	movlb	0	; () banked
  4289  002FD0  6F98               	movwf	(??_powf+3)& (0+255),b
  4290  002FD2  BF98               	btfsc	(??_powf+3)& (0+255),7,b
  4291  002FD4  EFF8  F017         	goto	u5381
  4292  002FD8  0595               	decf	??_powf& (0+255),w,b
  4293  002FDA  0E00               	movlw	0
  4294  002FDC  5996               	subwfb	(??_powf+1)& (0+255),w,b
  4295  002FDE  0E16               	movlw	22
  4296  002FE0  5997               	subwfb	(??_powf+2)& (0+255),w,b
  4297  002FE2  0E43               	movlw	67
  4298  002FE4  5998               	subwfb	(??_powf+3)& (0+255),w,b
  4299  002FE6  A0D8               	btfss	status,0,c
  4300  002FE8  EFF8  F017         	goto	u5381
  4301  002FEC  EFFA  F017         	goto	u5380
  4302  002FF0                     u5381:
  4303  002FF0  EF30  F018         	goto	l4891
  4304  002FF4                     u5380:
  4305  002FF4                     
  4306                           ; BSR set to: 0
  4307  002FF4  0E60               	movlw	96
  4308  002FF6  6E1E               	movwf	___flmul@a^0,c
  4309  002FF8  0E42               	movlw	66
  4310  002FFA  6E1F               	movwf	(___flmul@a+1)^0,c
  4311  002FFC  0EA2               	movlw	162
  4312  002FFE  6E20               	movwf	(___flmul@a+2)^0,c
  4313  003000  0E0D               	movlw	13
  4314  003002  6E21               	movwf	(___flmul@a+3)^0,c
  4315  003004  C188  F01A         	movff	powf@sn,___flmul@b
  4316  003008  C189  F01B         	movff	powf@sn+1,___flmul@b+1
  4317  00300C  C18A  F01C         	movff	powf@sn+2,___flmul@b+2
  4318  003010  C18B  F01D         	movff	powf@sn+3,___flmul@b+3
  4319  003014  EC19  F022         	call	___flmul	;wreg free
  4320  003018  C01A  F1A4         	movff	?___flmul,_powf$1390
  4321  00301C  C01B  F1A5         	movff	?___flmul+1,_powf$1390+1
  4322  003020  C01C  F1A6         	movff	?___flmul+2,_powf$1390+2
  4323  003024  C01D  F1A7         	movff	?___flmul+3,_powf$1390+3
  4324  003028  C1A4  F01A         	movff	_powf$1390,___flmul@b
  4325  00302C  C1A5  F01B         	movff	_powf$1390+1,___flmul@b+1
  4326  003030  C1A6  F01C         	movff	_powf$1390+2,___flmul@b+2
  4327  003034  C1A7  F01D         	movff	_powf$1390+3,___flmul@b+3
  4328  003038  0E60               	movlw	96
  4329  00303A  6E1E               	movwf	___flmul@a^0,c
  4330  00303C  0E42               	movlw	66
  4331  00303E  6E1F               	movwf	(___flmul@a+1)^0,c
  4332  003040  0EA2               	movlw	162
  4333  003042  6E20               	movwf	(___flmul@a+2)^0,c
  4334  003044  0E0D               	movlw	13
  4335  003046  6E21               	movwf	(___flmul@a+3)^0,c
  4336  003048  EC19  F022         	call	___flmul	;wreg free
  4337  00304C  C01A  F08D         	movff	?___flmul,?_powf
  4338  003050  C01B  F08E         	movff	?___flmul+1,?_powf+1
  4339  003054  C01C  F08F         	movff	?___flmul+2,?_powf+2
  4340  003058  C01D  F090         	movff	?___flmul+3,?_powf+3
  4341  00305C  EF58  F01D         	goto	l1176
  4342  003060                     l4891:
  4343                           
  4344                           ; BSR set to: 0
  4345  003060  0E16               	movlw	22
  4346  003062  0101               	movlb	1	; () banked
  4347  003064  19AE               	xorwf	(powf@j+2)& (0+255),w,b
  4348  003066  E109               	bnz	u5391
  4349  003068  0EC3               	movlw	195
  4350  00306A  19AF               	xorwf	(powf@j+3)& (0+255),w,b
  4351  00306C  11AC               	iorwf	powf@j& (0+255),w,b
  4352  00306E  11AD               	iorwf	(powf@j+1)& (0+255),w,b
  4353  003070  A4D8               	btfss	status,2,c
  4354  003072  EF3D  F018         	goto	u5391
  4355  003076  EF3F  F018         	goto	u5390
  4356  00307A                     u5391:
  4357  00307A  EFA0  F018         	goto	l4899
  4358  00307E                     u5390:
  4359  00307E                     
  4360                           ; BSR set to: 1
  4361  00307E  C19C  F037         	movff	powf@p_h,___flsub@a
  4362  003082  C19D  F038         	movff	powf@p_h+1,___flsub@a+1
  4363  003086  C19E  F039         	movff	powf@p_h+2,___flsub@a+2
  4364  00308A  C19F  F03A         	movff	powf@p_h+3,___flsub@a+3
  4365  00308E  C1B4  F033         	movff	powf@z,___flsub@b
  4366  003092  C1B5  F034         	movff	powf@z+1,___flsub@b+1
  4367  003096  C1B6  F035         	movff	powf@z+2,___flsub@b+2
  4368  00309A  C1B7  F036         	movff	powf@z+3,___flsub@b+3
  4369  00309E  EC57  F02C         	call	___flsub	;wreg free
  4370  0030A2  C033  F03B         	movff	?___flsub,___flge@ff1
  4371  0030A6  C034  F03C         	movff	?___flsub+1,___flge@ff1+1
  4372  0030AA  C035  F03D         	movff	?___flsub+2,___flge@ff1+2
  4373  0030AE  C036  F03E         	movff	?___flsub+3,___flge@ff1+3
  4374  0030B2  C164  F03F         	movff	powf@p_l,___flge@ff2
  4375  0030B6  C165  F040         	movff	powf@p_l+1,___flge@ff2+1
  4376  0030BA  C166  F041         	movff	powf@p_l+2,___flge@ff2+2
  4377  0030BE  C167  F042         	movff	powf@p_l+3,___flge@ff2+3
  4378  0030C2  EC49  F02A         	call	___flge	;wreg free
  4379  0030C6  A0D8               	btfss	status,0,c
  4380  0030C8  EF68  F018         	goto	u5401
  4381  0030CC  EF6A  F018         	goto	u5400
  4382  0030D0                     u5401:
  4383  0030D0  EFA0  F018         	goto	l4899
  4384  0030D4                     u5400:
  4385  0030D4  0E60               	movlw	96
  4386  0030D6  6E1E               	movwf	___flmul@a^0,c
  4387  0030D8  0E42               	movlw	66
  4388  0030DA  6E1F               	movwf	(___flmul@a+1)^0,c
  4389  0030DC  0EA2               	movlw	162
  4390  0030DE  6E20               	movwf	(___flmul@a+2)^0,c
  4391  0030E0  0E0D               	movlw	13
  4392  0030E2  6E21               	movwf	(___flmul@a+3)^0,c
  4393  0030E4  C188  F01A         	movff	powf@sn,___flmul@b
  4394  0030E8  C189  F01B         	movff	powf@sn+1,___flmul@b+1
  4395  0030EC  C18A  F01C         	movff	powf@sn+2,___flmul@b+2
  4396  0030F0  C18B  F01D         	movff	powf@sn+3,___flmul@b+3
  4397  0030F4  EC19  F022         	call	___flmul	;wreg free
  4398  0030F8  C01A  F1A4         	movff	?___flmul,_powf$1390
  4399  0030FC  C01B  F1A5         	movff	?___flmul+1,_powf$1390+1
  4400  003100  C01C  F1A6         	movff	?___flmul+2,_powf$1390+2
  4401  003104  C01D  F1A7         	movff	?___flmul+3,_powf$1390+3
  4402  003108  C1A4  F01A         	movff	_powf$1390,___flmul@b
  4403  00310C  C1A5  F01B         	movff	_powf$1390+1,___flmul@b+1
  4404  003110  C1A6  F01C         	movff	_powf$1390+2,___flmul@b+2
  4405  003114  C1A7  F01D         	movff	_powf$1390+3,___flmul@b+3
  4406  003118  0E60               	movlw	96
  4407  00311A  6E1E               	movwf	___flmul@a^0,c
  4408  00311C  0E42               	movlw	66
  4409  00311E  6E1F               	movwf	(___flmul@a+1)^0,c
  4410  003120  0EA2               	movlw	162
  4411  003122  6E20               	movwf	(___flmul@a+2)^0,c
  4412  003124  0E0D               	movlw	13
  4413  003126  6E21               	movwf	(___flmul@a+3)^0,c
  4414  003128  EC19  F022         	call	___flmul	;wreg free
  4415  00312C  C01A  F08D         	movff	?___flmul,?_powf
  4416  003130  C01B  F08E         	movff	?___flmul+1,?_powf+1
  4417  003134  C01C  F08F         	movff	?___flmul+2,?_powf+2
  4418  003138  C01D  F090         	movff	?___flmul+3,?_powf+3
  4419  00313C  EF58  F01D         	goto	l1176
  4420  003140                     l4899:
  4421  003140  0EFF               	movlw	255
  4422  003142  0101               	movlb	1	; () banked
  4423  003144  15AC               	andwf	powf@j& (0+255),w,b
  4424  003146  6F2C               	movwf	powf@i& (0+255),b
  4425  003148  0EFF               	movlw	255
  4426  00314A  15AD               	andwf	(powf@j+1)& (0+255),w,b
  4427  00314C  6F2D               	movwf	(powf@i+1)& (0+255),b
  4428  00314E  0EFF               	movlw	255
  4429  003150  15AE               	andwf	(powf@j+2)& (0+255),w,b
  4430  003152  6F2E               	movwf	(powf@i+2)& (0+255),b
  4431  003154  0E7F               	movlw	127
  4432  003156  15AF               	andwf	(powf@j+3)& (0+255),w,b
  4433  003158  6F2F               	movwf	(powf@i+3)& (0+255),b
  4434  00315A  0E17               	movlw	23
  4435  00315C  0100               	movlb	0	; () banked
  4436  00315E  6F95               	movwf	??_powf& (0+255),b
  4437  003160  C12C  F096         	movff	powf@i,??_powf+1
  4438  003164  C12D  F097         	movff	powf@i+1,??_powf+2
  4439  003168  C12E  F098         	movff	powf@i+2,??_powf+3
  4440  00316C  C12F  F099         	movff	powf@i+3,??_powf+4
  4441  003170                     u5415:
  4442  003170  6795               	tstfsz	??_powf& (0+255),b
  4443  003172  EFBD  F018         	goto	u5416
  4444  003176  EFC5  F018         	goto	u5417
  4445  00317A                     u5416:
  4446  00317A  3599               	rlcf	(??_powf+4)& (0+255),w,b
  4447  00317C  3399               	rrcf	(??_powf+4)& (0+255),f,b
  4448  00317E  3398               	rrcf	(??_powf+3)& (0+255),f,b
  4449  003180  3397               	rrcf	(??_powf+2)& (0+255),f,b
  4450  003182  3396               	rrcf	(??_powf+1)& (0+255),f,b
  4451  003184  2F95               	decfsz	??_powf& (0+255),f,b
  4452  003186  EFB8  F018         	goto	u5415
  4453  00318A                     u5417:
  4454  00318A  0E81               	movlw	129
  4455  00318C  0100               	movlb	0	; () banked
  4456  00318E  2596               	addwf	(??_powf+1)& (0+255),w,b
  4457  003190  0101               	movlb	1	; () banked
  4458  003192  6FA0               	movwf	powf@k& (0+255),b
  4459  003194  0EFF               	movlw	255
  4460  003196  0100               	movlb	0	; () banked
  4461  003198  2197               	addwfc	(??_powf+2)& (0+255),w,b
  4462  00319A  0101               	movlb	1	; () banked
  4463  00319C  6FA1               	movwf	(powf@k+1)& (0+255),b
  4464  00319E  0EFF               	movlw	255
  4465  0031A0  0100               	movlb	0	; () banked
  4466  0031A2  2198               	addwfc	(??_powf+3)& (0+255),w,b
  4467  0031A4  0101               	movlb	1	; () banked
  4468  0031A6  6FA2               	movwf	(powf@k+2)& (0+255),b
  4469  0031A8  0EFF               	movlw	255
  4470  0031AA  0100               	movlb	0	; () banked
  4471  0031AC  2199               	addwfc	(??_powf+4)& (0+255),w,b
  4472  0031AE  0101               	movlb	1	; () banked
  4473  0031B0  6FA3               	movwf	(powf@k+3)& (0+255),b
  4474  0031B2                     
  4475                           ; BSR set to: 1
  4476  0031B2  0E00               	movlw	0
  4477  0031B4  6F80               	movwf	powf@n& (0+255),b
  4478  0031B6  0E00               	movlw	0
  4479  0031B8  6F81               	movwf	(powf@n+1)& (0+255),b
  4480  0031BA  0E00               	movlw	0
  4481  0031BC  6F82               	movwf	(powf@n+2)& (0+255),b
  4482  0031BE  0E00               	movlw	0
  4483  0031C0  6F83               	movwf	(powf@n+3)& (0+255),b
  4484  0031C2                     
  4485                           ; BSR set to: 1
  4486  0031C2  BF2F               	btfsc	(powf@i+3)& (0+255),7,b
  4487  0031C4  EFF0  F018         	goto	u5421
  4488  0031C8  052C               	decf	powf@i& (0+255),w,b
  4489  0031CA  0E00               	movlw	0
  4490  0031CC  592D               	subwfb	(powf@i+1)& (0+255),w,b
  4491  0031CE  0E00               	movlw	0
  4492  0031D0  592E               	subwfb	(powf@i+2)& (0+255),w,b
  4493  0031D2  0E3F               	movlw	63
  4494  0031D4  592F               	subwfb	(powf@i+3)& (0+255),w,b
  4495  0031D6  A0D8               	btfss	status,0,c
  4496  0031D8  EFF0  F018         	goto	u5421
  4497  0031DC  EFF2  F018         	goto	u5420
  4498  0031E0                     u5421:
  4499  0031E0  EFF6  F019         	goto	l4913
  4500  0031E4                     u5420:
  4501  0031E4                     
  4502                           ; BSR set to: 1
  4503  0031E4  C1A0  F095         	movff	powf@k,??_powf
  4504  0031E8  0E01               	movlw	1
  4505  0031EA  0100               	movlb	0	; () banked
  4506  0031EC  2795               	addwf	??_powf& (0+255),f,b
  4507  0031EE  0E00               	movlw	0
  4508  0031F0  6F96               	movwf	(??_powf+1)& (0+255),b
  4509  0031F2  0E00               	movlw	0
  4510  0031F4  6F97               	movwf	(??_powf+2)& (0+255),b
  4511  0031F6  0E80               	movlw	128
  4512  0031F8  6F98               	movwf	(??_powf+3)& (0+255),b
  4513  0031FA  0E00               	movlw	0
  4514  0031FC  6F99               	movwf	(??_powf+4)& (0+255),b
  4515  0031FE                     u5435:
  4516  0031FE  6795               	tstfsz	??_powf& (0+255),b
  4517  003200  EF04  F019         	goto	u5436
  4518  003204  EF0C  F019         	goto	u5437
  4519  003208                     u5436:
  4520  003208  3599               	rlcf	(??_powf+4)& (0+255),w,b
  4521  00320A  3399               	rrcf	(??_powf+4)& (0+255),f,b
  4522  00320C  3398               	rrcf	(??_powf+3)& (0+255),f,b
  4523  00320E  3397               	rrcf	(??_powf+2)& (0+255),f,b
  4524  003210  3396               	rrcf	(??_powf+1)& (0+255),f,b
  4525  003212  2F95               	decfsz	??_powf& (0+255),f,b
  4526  003214  EFFF  F018         	goto	u5435
  4527  003218                     u5437:
  4528  003218  0101               	movlb	1	; () banked
  4529  00321A  51AC               	movf	powf@j& (0+255),w,b
  4530  00321C  0100               	movlb	0	; () banked
  4531  00321E  2596               	addwf	(??_powf+1)& (0+255),w,b
  4532  003220  0101               	movlb	1	; () banked
  4533  003222  6F80               	movwf	powf@n& (0+255),b
  4534  003224  51AD               	movf	(powf@j+1)& (0+255),w,b
  4535  003226  0100               	movlb	0	; () banked
  4536  003228  2197               	addwfc	(??_powf+2)& (0+255),w,b
  4537  00322A  0101               	movlb	1	; () banked
  4538  00322C  6F81               	movwf	(powf@n+1)& (0+255),b
  4539  00322E  51AE               	movf	(powf@j+2)& (0+255),w,b
  4540  003230  0100               	movlb	0	; () banked
  4541  003232  2198               	addwfc	(??_powf+3)& (0+255),w,b
  4542  003234  0101               	movlb	1	; () banked
  4543  003236  6F82               	movwf	(powf@n+2)& (0+255),b
  4544  003238  51AF               	movf	(powf@j+3)& (0+255),w,b
  4545  00323A  0100               	movlb	0	; () banked
  4546  00323C  2199               	addwfc	(??_powf+4)& (0+255),w,b
  4547  00323E  0101               	movlb	1	; () banked
  4548  003240  6F83               	movwf	(powf@n+3)& (0+255),b
  4549  003242  0E81               	movlw	129
  4550  003244  0100               	movlb	0	; () banked
  4551  003246  6F95               	movwf	??_powf& (0+255),b
  4552  003248  0EFF               	movlw	255
  4553  00324A  6F96               	movwf	(??_powf+1)& (0+255),b
  4554  00324C  0EFF               	movlw	255
  4555  00324E  6F97               	movwf	(??_powf+2)& (0+255),b
  4556  003250  0EFF               	movlw	255
  4557  003252  6F98               	movwf	(??_powf+3)& (0+255),b
  4558  003254  0E17               	movlw	23
  4559  003256  6F99               	movwf	(??_powf+4)& (0+255),b
  4560  003258  C180  F09A         	movff	powf@n,??_powf+5
  4561  00325C  C181  F09B         	movff	powf@n+1,??_powf+6
  4562  003260  C182  F09C         	movff	powf@n+2,??_powf+7
  4563  003264  C183  F09D         	movff	powf@n+3,??_powf+8
  4564  003268                     u5445:
  4565  003268  6799               	tstfsz	(??_powf+4)& (0+255),b
  4566  00326A  EF39  F019         	goto	u5446
  4567  00326E  EF41  F019         	goto	u5447
  4568  003272                     u5446:
  4569  003272  359D               	rlcf	(??_powf+8)& (0+255),w,b
  4570  003274  339D               	rrcf	(??_powf+8)& (0+255),f,b
  4571  003276  339C               	rrcf	(??_powf+7)& (0+255),f,b
  4572  003278  339B               	rrcf	(??_powf+6)& (0+255),f,b
  4573  00327A  339A               	rrcf	(??_powf+5)& (0+255),f,b
  4574  00327C  2F99               	decfsz	(??_powf+4)& (0+255),f,b
  4575  00327E  EF34  F019         	goto	u5445
  4576  003282                     u5447:
  4577  003282  0100               	movlb	0	; () banked
  4578  003284  519A               	movf	(??_powf+5)& (0+255),w,b
  4579  003286  2595               	addwf	??_powf& (0+255),w,b
  4580  003288  0101               	movlb	1	; () banked
  4581  00328A  6FA0               	movwf	powf@k& (0+255),b
  4582  00328C  0E00               	movlw	0
  4583  00328E  0100               	movlb	0	; () banked
  4584  003290  2196               	addwfc	(??_powf+1)& (0+255),w,b
  4585  003292  0101               	movlb	1	; () banked
  4586  003294  6FA1               	movwf	(powf@k+1)& (0+255),b
  4587  003296  0E00               	movlw	0
  4588  003298  0100               	movlb	0	; () banked
  4589  00329A  2197               	addwfc	(??_powf+2)& (0+255),w,b
  4590  00329C  0101               	movlb	1	; () banked
  4591  00329E  6FA2               	movwf	(powf@k+2)& (0+255),b
  4592  0032A0  0E00               	movlw	0
  4593  0032A2  0100               	movlb	0	; () banked
  4594  0032A4  2198               	addwfc	(??_powf+3)& (0+255),w,b
  4595  0032A6  0101               	movlb	1	; () banked
  4596  0032A8  6FA3               	movwf	(powf@k+3)& (0+255),b
  4597  0032AA                     
  4598                           ; BSR set to: 1
  4599  0032AA  C1A0  F095         	movff	powf@k,??_powf
  4600  0032AE  0EFF               	movlw	255
  4601  0032B0  0100               	movlb	0	; () banked
  4602  0032B2  6F96               	movwf	(??_powf+1)& (0+255),b
  4603  0032B4  0EFF               	movlw	255
  4604  0032B6  6F97               	movwf	(??_powf+2)& (0+255),b
  4605  0032B8  0E7F               	movlw	127
  4606  0032BA  6F98               	movwf	(??_powf+3)& (0+255),b
  4607  0032BC  0E00               	movlw	0
  4608  0032BE  6F99               	movwf	(??_powf+4)& (0+255),b
  4609  0032C0                     u5455:
  4610  0032C0  6795               	tstfsz	??_powf& (0+255),b
  4611  0032C2  EF65  F019         	goto	u5456
  4612  0032C6  EF6D  F019         	goto	u5457
  4613  0032CA                     u5456:
  4614  0032CA  3599               	rlcf	(??_powf+4)& (0+255),w,b
  4615  0032CC  3399               	rrcf	(??_powf+4)& (0+255),f,b
  4616  0032CE  3398               	rrcf	(??_powf+3)& (0+255),f,b
  4617  0032D0  3397               	rrcf	(??_powf+2)& (0+255),f,b
  4618  0032D2  3396               	rrcf	(??_powf+1)& (0+255),f,b
  4619  0032D4  2F95               	decfsz	??_powf& (0+255),f,b
  4620  0032D6  EF60  F019         	goto	u5455
  4621  0032DA                     u5457:
  4622  0032DA  0100               	movlb	0	; () banked
  4623  0032DC  1D96               	comf	(??_powf+1)& (0+255),w,b
  4624  0032DE  6F9A               	movwf	(??_powf+5)& (0+255),b
  4625  0032E0  1D97               	comf	(??_powf+2)& (0+255),w,b
  4626  0032E2  6F9B               	movwf	(??_powf+6)& (0+255),b
  4627  0032E4  1D98               	comf	(??_powf+3)& (0+255),w,b
  4628  0032E6  6F9C               	movwf	(??_powf+7)& (0+255),b
  4629  0032E8  1D99               	comf	(??_powf+4)& (0+255),w,b
  4630  0032EA  6F9D               	movwf	(??_powf+8)& (0+255),b
  4631  0032EC  0101               	movlb	1	; () banked
  4632  0032EE  5180               	movf	powf@n& (0+255),w,b
  4633  0032F0  0100               	movlb	0	; () banked
  4634  0032F2  159A               	andwf	(??_powf+5)& (0+255),w,b
  4635  0032F4  0101               	movlb	1	; () banked
  4636  0032F6  6FB8               	movwf	powf@__xc8_float_word& (0+255),b
  4637  0032F8  5181               	movf	(powf@n+1)& (0+255),w,b
  4638  0032FA  0100               	movlb	0	; () banked
  4639  0032FC  159B               	andwf	(??_powf+6)& (0+255),w,b
  4640  0032FE  0101               	movlb	1	; () banked
  4641  003300  6FB9               	movwf	(powf@__xc8_float_word+1)& (0+255),b
  4642  003302  5182               	movf	(powf@n+2)& (0+255),w,b
  4643  003304  0100               	movlb	0	; () banked
  4644  003306  159C               	andwf	(??_powf+7)& (0+255),w,b
  4645  003308  0101               	movlb	1	; () banked
  4646  00330A  6FBA               	movwf	(powf@__xc8_float_word+2)& (0+255),b
  4647  00330C  5183               	movf	(powf@n+3)& (0+255),w,b
  4648  00330E  0100               	movlb	0	; () banked
  4649  003310  159D               	andwf	(??_powf+8)& (0+255),w,b
  4650  003312  0101               	movlb	1	; () banked
  4651  003314  6FBB               	movwf	(powf@__xc8_float_word+3)& (0+255),b
  4652  003316                     
  4653                           ; BSR set to: 1
  4654  003316  C1B8  F1B0         	movff	powf@__xc8_float_word,powf@t
  4655  00331A  C1B9  F1B1         	movff	powf@__xc8_float_word+1,powf@t+1
  4656  00331E  C1BA  F1B2         	movff	powf@__xc8_float_word+2,powf@t+2
  4657  003322  C1BB  F1B3         	movff	powf@__xc8_float_word+3,powf@t+3
  4658  003326                     
  4659                           ; BSR set to: 1
  4660  003326  51A0               	movf	powf@k& (0+255),w,b
  4661  003328  0817               	sublw	23
  4662  00332A  0100               	movlb	0	; () banked
  4663  00332C  6F95               	movwf	??_powf& (0+255),b
  4664  00332E  0EFF               	movlw	255
  4665  003330  0101               	movlb	1	; () banked
  4666  003332  1580               	andwf	powf@n& (0+255),w,b
  4667  003334  0100               	movlb	0	; () banked
  4668  003336  6F96               	movwf	(??_powf+1)& (0+255),b
  4669  003338  0EFF               	movlw	255
  4670  00333A  0101               	movlb	1	; () banked
  4671  00333C  1581               	andwf	(powf@n+1)& (0+255),w,b
  4672  00333E  0100               	movlb	0	; () banked
  4673  003340  6F97               	movwf	(??_powf+2)& (0+255),b
  4674  003342  0E7F               	movlw	127
  4675  003344  0101               	movlb	1	; () banked
  4676  003346  1582               	andwf	(powf@n+2)& (0+255),w,b
  4677  003348  0100               	movlb	0	; () banked
  4678  00334A  6F98               	movwf	(??_powf+3)& (0+255),b
  4679  00334C  0E00               	movlw	0
  4680  00334E  0101               	movlb	1	; () banked
  4681  003350  1583               	andwf	(powf@n+3)& (0+255),w,b
  4682  003352  0100               	movlb	0	; () banked
  4683  003354  6F99               	movwf	(??_powf+4)& (0+255),b
  4684  003356  0E00               	movlw	0
  4685  003358  1196               	iorwf	(??_powf+1)& (0+255),w,b
  4686  00335A  6F9A               	movwf	(??_powf+5)& (0+255),b
  4687  00335C  0E00               	movlw	0
  4688  00335E  1197               	iorwf	(??_powf+2)& (0+255),w,b
  4689  003360  6F9B               	movwf	(??_powf+6)& (0+255),b
  4690  003362  0E80               	movlw	128
  4691  003364  1198               	iorwf	(??_powf+3)& (0+255),w,b
  4692  003366  6F9C               	movwf	(??_powf+7)& (0+255),b
  4693  003368  0E00               	movlw	0
  4694  00336A  1199               	iorwf	(??_powf+4)& (0+255),w,b
  4695  00336C  6F9D               	movwf	(??_powf+8)& (0+255),b
  4696  00336E                     u5465:
  4697  00336E  6795               	tstfsz	??_powf& (0+255),b
  4698  003370  EFBC  F019         	goto	u5466
  4699  003374  EFC4  F019         	goto	u5467
  4700  003378                     u5466:
  4701  003378  359D               	rlcf	(??_powf+8)& (0+255),w,b
  4702  00337A  339D               	rrcf	(??_powf+8)& (0+255),f,b
  4703  00337C  339C               	rrcf	(??_powf+7)& (0+255),f,b
  4704  00337E  339B               	rrcf	(??_powf+6)& (0+255),f,b
  4705  003380  339A               	rrcf	(??_powf+5)& (0+255),f,b
  4706  003382  2F95               	decfsz	??_powf& (0+255),f,b
  4707  003384  EFB7  F019         	goto	u5465
  4708  003388                     u5467:
  4709  003388  C09A  F180         	movff	??_powf+5,powf@n
  4710  00338C  C09B  F181         	movff	??_powf+6,powf@n+1
  4711  003390  C09C  F182         	movff	??_powf+7,powf@n+2
  4712  003394  C09D  F183         	movff	??_powf+8,powf@n+3
  4713  003398  0101               	movlb	1	; () banked
  4714  00339A  BFAF               	btfsc	(powf@j+3)& (0+255),7,b
  4715  00339C  EFD4  F019         	goto	u5470
  4716  0033A0  EFD2  F019         	goto	u5471
  4717  0033A4                     u5471:
  4718  0033A4  EFDC  F019         	goto	l4911
  4719  0033A8                     u5470:
  4720  0033A8                     
  4721                           ; BSR set to: 1
  4722  0033A8  1F83               	comf	(powf@n+3)& (0+255),f,b
  4723  0033AA  1F82               	comf	(powf@n+2)& (0+255),f,b
  4724  0033AC  1F81               	comf	(powf@n+1)& (0+255),f,b
  4725  0033AE  6D80               	negf	powf@n& (0+255),b
  4726  0033B0  0E00               	movlw	0
  4727  0033B2  2381               	addwfc	(powf@n+1)& (0+255),f,b
  4728  0033B4  2382               	addwfc	(powf@n+2)& (0+255),f,b
  4729  0033B6  2383               	addwfc	(powf@n+3)& (0+255),f,b
  4730  0033B8                     l4911:
  4731                           
  4732                           ; BSR set to: 1
  4733  0033B8  C19C  F033         	movff	powf@p_h,___flsub@b
  4734  0033BC  C19D  F034         	movff	powf@p_h+1,___flsub@b+1
  4735  0033C0  C19E  F035         	movff	powf@p_h+2,___flsub@b+2
  4736  0033C4  C19F  F036         	movff	powf@p_h+3,___flsub@b+3
  4737  0033C8  C1B0  F037         	movff	powf@t,___flsub@a
  4738  0033CC  C1B1  F038         	movff	powf@t+1,___flsub@a+1
  4739  0033D0  C1B2  F039         	movff	powf@t+2,___flsub@a+2
  4740  0033D4  C1B3  F03A         	movff	powf@t+3,___flsub@a+3
  4741  0033D8  EC57  F02C         	call	___flsub	;wreg free
  4742  0033DC  C033  F19C         	movff	?___flsub,powf@p_h
  4743  0033E0  C034  F19D         	movff	?___flsub+1,powf@p_h+1
  4744  0033E4  C035  F19E         	movff	?___flsub+2,powf@p_h+2
  4745  0033E8  C036  F19F         	movff	?___flsub+3,powf@p_h+3
  4746  0033EC                     l4913:
  4747  0033EC  C164  F00A         	movff	powf@p_l,___fladd@b
  4748  0033F0  C165  F00B         	movff	powf@p_l+1,___fladd@b+1
  4749  0033F4  C166  F00C         	movff	powf@p_l+2,___fladd@b+2
  4750  0033F8  C167  F00D         	movff	powf@p_l+3,___fladd@b+3
  4751  0033FC  C19C  F00E         	movff	powf@p_h,___fladd@a
  4752  003400  C19D  F00F         	movff	powf@p_h+1,___fladd@a+1
  4753  003404  C19E  F010         	movff	powf@p_h+2,___fladd@a+2
  4754  003408  C19F  F011         	movff	powf@p_h+3,___fladd@a+3
  4755  00340C  ECB9  F01F         	call	___fladd	;wreg free
  4756  003410  C00A  F1B0         	movff	?___fladd,powf@t
  4757  003414  C00B  F1B1         	movff	?___fladd+1,powf@t+1
  4758  003418  C00C  F1B2         	movff	?___fladd+2,powf@t+2
  4759  00341C  C00D  F1B3         	movff	?___fladd+3,powf@t+3
  4760  003420  C1B0  F1B8         	movff	powf@t,powf@__xc8_float_word
  4761  003424  C1B1  F1B9         	movff	powf@t+1,powf@__xc8_float_word+1
  4762  003428  C1B2  F1BA         	movff	powf@t+2,powf@__xc8_float_word+2
  4763  00342C  C1B3  F1BB         	movff	powf@t+3,powf@__xc8_float_word+3
  4764  003430  C1B8  F194         	movff	powf@__xc8_float_word,powf@is
  4765  003434  C1B9  F195         	movff	powf@__xc8_float_word+1,powf@is+1
  4766  003438  C1BA  F196         	movff	powf@__xc8_float_word+2,powf@is+2
  4767  00343C  C1BB  F197         	movff	powf@__xc8_float_word+3,powf@is+3
  4768  003440  0E00               	movlw	0
  4769  003442  0101               	movlb	1	; () banked
  4770  003444  1594               	andwf	powf@is& (0+255),w,b
  4771  003446  6FB8               	movwf	powf@__xc8_float_word& (0+255),b
  4772  003448  0E80               	movlw	128
  4773  00344A  1595               	andwf	(powf@is+1)& (0+255),w,b
  4774  00344C  6FB9               	movwf	(powf@__xc8_float_word+1)& (0+255),b
  4775  00344E  0EFF               	movlw	255
  4776  003450  1596               	andwf	(powf@is+2)& (0+255),w,b
  4777  003452  6FBA               	movwf	(powf@__xc8_float_word+2)& (0+255),b
  4778  003454  0EFF               	movlw	255
  4779  003456  1597               	andwf	(powf@is+3)& (0+255),w,b
  4780  003458  6FBB               	movwf	(powf@__xc8_float_word+3)& (0+255),b
  4781  00345A                     
  4782                           ; BSR set to: 1
  4783  00345A  C1B8  F1B0         	movff	powf@__xc8_float_word,powf@t
  4784  00345E  C1B9  F1B1         	movff	powf@__xc8_float_word+1,powf@t+1
  4785  003462  C1BA  F1B2         	movff	powf@__xc8_float_word+2,powf@t+2
  4786  003466  C1BB  F1B3         	movff	powf@__xc8_float_word+3,powf@t+3
  4787  00346A                     
  4788                           ; BSR set to: 1
  4789  00346A  C1B0  F01A         	movff	powf@t,___flmul@b
  4790  00346E  C1B1  F01B         	movff	powf@t+1,___flmul@b+1
  4791  003472  C1B2  F01C         	movff	powf@t+2,___flmul@b+2
  4792  003476  C1B3  F01D         	movff	powf@t+3,___flmul@b+3
  4793  00347A  0E00               	movlw	0
  4794  00347C  6E1E               	movwf	___flmul@a^0,c
  4795  00347E  0E72               	movlw	114
  4796  003480  6E1F               	movwf	(___flmul@a+1)^0,c
  4797  003482  0E31               	movlw	49
  4798  003484  6E20               	movwf	(___flmul@a+2)^0,c
  4799  003486  0E3F               	movlw	63
  4800  003488  6E21               	movwf	(___flmul@a+3)^0,c
  4801  00348A  EC19  F022         	call	___flmul	;wreg free
  4802  00348E  C01A  F174         	movff	?___flmul,powf@u
  4803  003492  C01B  F175         	movff	?___flmul+1,powf@u+1
  4804  003496  C01C  F176         	movff	?___flmul+2,powf@u+2
  4805  00349A  C01D  F177         	movff	?___flmul+3,powf@u+3
  4806  00349E  C19C  F037         	movff	powf@p_h,___flsub@a
  4807  0034A2  C19D  F038         	movff	powf@p_h+1,___flsub@a+1
  4808  0034A6  C19E  F039         	movff	powf@p_h+2,___flsub@a+2
  4809  0034AA  C19F  F03A         	movff	powf@p_h+3,___flsub@a+3
  4810  0034AE  C1B0  F033         	movff	powf@t,___flsub@b
  4811  0034B2  C1B1  F034         	movff	powf@t+1,___flsub@b+1
  4812  0034B6  C1B2  F035         	movff	powf@t+2,___flsub@b+2
  4813  0034BA  C1B3  F036         	movff	powf@t+3,___flsub@b+3
  4814  0034BE  EC57  F02C         	call	___flsub	;wreg free
  4815  0034C2  C033  F198         	movff	?___flsub,_powf$1393
  4816  0034C6  C034  F199         	movff	?___flsub+1,_powf$1393+1
  4817  0034CA  C035  F19A         	movff	?___flsub+2,_powf$1393+2
  4818  0034CE  C036  F19B         	movff	?___flsub+3,_powf$1393+3
  4819  0034D2  0E18               	movlw	24
  4820  0034D4  6E1E               	movwf	___flmul@a^0,c
  4821  0034D6  0E72               	movlw	114
  4822  0034D8  6E1F               	movwf	(___flmul@a+1)^0,c
  4823  0034DA  0E31               	movlw	49
  4824  0034DC  6E20               	movwf	(___flmul@a+2)^0,c
  4825  0034DE  0E3F               	movlw	63
  4826  0034E0  6E21               	movwf	(___flmul@a+3)^0,c
  4827  0034E2  C198  F037         	movff	_powf$1393,___flsub@a
  4828  0034E6  C199  F038         	movff	_powf$1393+1,___flsub@a+1
  4829  0034EA  C19A  F039         	movff	_powf$1393+2,___flsub@a+2
  4830  0034EE  C19B  F03A         	movff	_powf$1393+3,___flsub@a+3
  4831  0034F2  C164  F033         	movff	powf@p_l,___flsub@b
  4832  0034F6  C165  F034         	movff	powf@p_l+1,___flsub@b+1
  4833  0034FA  C166  F035         	movff	powf@p_l+2,___flsub@b+2
  4834  0034FE  C167  F036         	movff	powf@p_l+3,___flsub@b+3
  4835  003502  EC57  F02C         	call	___flsub	;wreg free
  4836  003506  C033  F01A         	movff	?___flsub,___flmul@b
  4837  00350A  C034  F01B         	movff	?___flsub+1,___flmul@b+1
  4838  00350E  C035  F01C         	movff	?___flsub+2,___flmul@b+2
  4839  003512  C036  F01D         	movff	?___flsub+3,___flmul@b+3
  4840  003516  EC19  F022         	call	___flmul	;wreg free
  4841  00351A  C01A  F114         	movff	?___flmul,_powf$1403
  4842  00351E  C01B  F115         	movff	?___flmul+1,_powf$1403+1
  4843  003522  C01C  F116         	movff	?___flmul+2,_powf$1403+2
  4844  003526  C01D  F117         	movff	?___flmul+3,_powf$1403+3
  4845  00352A  C114  F00A         	movff	_powf$1403,___fladd@b
  4846  00352E  C115  F00B         	movff	_powf$1403+1,___fladd@b+1
  4847  003532  C116  F00C         	movff	_powf$1403+2,___fladd@b+2
  4848  003536  C117  F00D         	movff	_powf$1403+3,___fladd@b+3
  4849  00353A  0E8C               	movlw	140
  4850  00353C  6E1E               	movwf	___flmul@a^0,c
  4851  00353E  0EBE               	movlw	190
  4852  003540  6E1F               	movwf	(___flmul@a+1)^0,c
  4853  003542  0EBF               	movlw	191
  4854  003544  6E20               	movwf	(___flmul@a+2)^0,c
  4855  003546  0E35               	movlw	53
  4856  003548  6E21               	movwf	(___flmul@a+3)^0,c
  4857  00354A  C1B0  F01A         	movff	powf@t,___flmul@b
  4858  00354E  C1B1  F01B         	movff	powf@t+1,___flmul@b+1
  4859  003552  C1B2  F01C         	movff	powf@t+2,___flmul@b+2
  4860  003556  C1B3  F01D         	movff	powf@t+3,___flmul@b+3
  4861  00355A  EC19  F022         	call	___flmul	;wreg free
  4862  00355E  C01A  F00E         	movff	?___flmul,___fladd@a
  4863  003562  C01B  F00F         	movff	?___flmul+1,___fladd@a+1
  4864  003566  C01C  F010         	movff	?___flmul+2,___fladd@a+2
  4865  00356A  C01D  F011         	movff	?___flmul+3,___fladd@a+3
  4866  00356E  ECB9  F01F         	call	___fladd	;wreg free
  4867  003572  C00A  F178         	movff	?___fladd,powf@v
  4868  003576  C00B  F179         	movff	?___fladd+1,powf@v+1
  4869  00357A  C00C  F17A         	movff	?___fladd+2,powf@v+2
  4870  00357E  C00D  F17B         	movff	?___fladd+3,powf@v+3
  4871  003582  C174  F00A         	movff	powf@u,___fladd@b
  4872  003586  C175  F00B         	movff	powf@u+1,___fladd@b+1
  4873  00358A  C176  F00C         	movff	powf@u+2,___fladd@b+2
  4874  00358E  C177  F00D         	movff	powf@u+3,___fladd@b+3
  4875  003592  C178  F00E         	movff	powf@v,___fladd@a
  4876  003596  C179  F00F         	movff	powf@v+1,___fladd@a+1
  4877  00359A  C17A  F010         	movff	powf@v+2,___fladd@a+2
  4878  00359E  C17B  F011         	movff	powf@v+3,___fladd@a+3
  4879  0035A2  ECB9  F01F         	call	___fladd	;wreg free
  4880  0035A6  C00A  F1B4         	movff	?___fladd,powf@z
  4881  0035AA  C00B  F1B5         	movff	?___fladd+1,powf@z+1
  4882  0035AE  C00C  F1B6         	movff	?___fladd+2,powf@z+2
  4883  0035B2  C00D  F1B7         	movff	?___fladd+3,powf@z+3
  4884  0035B6  C174  F037         	movff	powf@u,___flsub@a
  4885  0035BA  C175  F038         	movff	powf@u+1,___flsub@a+1
  4886  0035BE  C176  F039         	movff	powf@u+2,___flsub@a+2
  4887  0035C2  C177  F03A         	movff	powf@u+3,___flsub@a+3
  4888  0035C6  C1B4  F033         	movff	powf@z,___flsub@b
  4889  0035CA  C1B5  F034         	movff	powf@z+1,___flsub@b+1
  4890  0035CE  C1B6  F035         	movff	powf@z+2,___flsub@b+2
  4891  0035D2  C1B7  F036         	movff	powf@z+3,___flsub@b+3
  4892  0035D6  EC57  F02C         	call	___flsub	;wreg free
  4893  0035DA  C033  F198         	movff	?___flsub,_powf$1393
  4894  0035DE  C034  F199         	movff	?___flsub+1,_powf$1393+1
  4895  0035E2  C035  F19A         	movff	?___flsub+2,_powf$1393+2
  4896  0035E6  C036  F19B         	movff	?___flsub+3,_powf$1393+3
  4897  0035EA  C178  F033         	movff	powf@v,___flsub@b
  4898  0035EE  C179  F034         	movff	powf@v+1,___flsub@b+1
  4899  0035F2  C17A  F035         	movff	powf@v+2,___flsub@b+2
  4900  0035F6  C17B  F036         	movff	powf@v+3,___flsub@b+3
  4901  0035FA  C198  F037         	movff	_powf$1393,___flsub@a
  4902  0035FE  C199  F038         	movff	_powf$1393+1,___flsub@a+1
  4903  003602  C19A  F039         	movff	_powf$1393+2,___flsub@a+2
  4904  003606  C19B  F03A         	movff	_powf$1393+3,___flsub@a+3
  4905  00360A  EC57  F02C         	call	___flsub	;wreg free
  4906  00360E  C033  F144         	movff	?___flsub,powf@w
  4907  003612  C034  F145         	movff	?___flsub+1,powf@w+1
  4908  003616  C035  F146         	movff	?___flsub+2,powf@w+2
  4909  00361A  C036  F147         	movff	?___flsub+3,powf@w+3
  4910  00361E  C1B4  F01A         	movff	powf@z,___flmul@b
  4911  003622  C1B5  F01B         	movff	powf@z+1,___flmul@b+1
  4912  003626  C1B6  F01C         	movff	powf@z+2,___flmul@b+2
  4913  00362A  C1B7  F01D         	movff	powf@z+3,___flmul@b+3
  4914  00362E  C1B4  F01E         	movff	powf@z,___flmul@a
  4915  003632  C1B5  F01F         	movff	powf@z+1,___flmul@a+1
  4916  003636  C1B6  F020         	movff	powf@z+2,___flmul@a+2
  4917  00363A  C1B7  F021         	movff	powf@z+3,___flmul@a+3
  4918  00363E  EC19  F022         	call	___flmul	;wreg free
  4919  003642  C01A  F1B0         	movff	?___flmul,powf@t
  4920  003646  C01B  F1B1         	movff	?___flmul+1,powf@t+1
  4921  00364A  C01C  F1B2         	movff	?___flmul+2,powf@t+2
  4922  00364E  C01D  F1B3         	movff	?___flmul+3,powf@t+3
  4923  003652  0E0E               	movlw	14
  4924  003654  6E0E               	movwf	___fladd@a^0,c
  4925  003656  0EEA               	movlw	234
  4926  003658  6E0F               	movwf	(___fladd@a+1)^0,c
  4927  00365A  0EDD               	movlw	221
  4928  00365C  6E10               	movwf	(___fladd@a+2)^0,c
  4929  00365E  0EB5               	movlw	181
  4930  003660  6E11               	movwf	(___fladd@a+3)^0,c
  4931  003662  0E4C               	movlw	76
  4932  003664  6E1E               	movwf	___flmul@a^0,c
  4933  003666  0EBB               	movlw	187
  4934  003668  6E1F               	movwf	(___flmul@a+1)^0,c
  4935  00366A  0E31               	movlw	49
  4936  00366C  6E20               	movwf	(___flmul@a+2)^0,c
  4937  00366E  0E33               	movlw	51
  4938  003670  6E21               	movwf	(___flmul@a+3)^0,c
  4939  003672  C1B0  F01A         	movff	powf@t,___flmul@b
  4940  003676  C1B1  F01B         	movff	powf@t+1,___flmul@b+1
  4941  00367A  C1B2  F01C         	movff	powf@t+2,___flmul@b+2
  4942  00367E  C1B3  F01D         	movff	powf@t+3,___flmul@b+3
  4943  003682  EC19  F022         	call	___flmul	;wreg free
  4944  003686  C01A  F00A         	movff	?___flmul,___fladd@b
  4945  00368A  C01B  F00B         	movff	?___flmul+1,___fladd@b+1
  4946  00368E  C01C  F00C         	movff	?___flmul+2,___fladd@b+2
  4947  003692  C01D  F00D         	movff	?___flmul+3,___fladd@b+3
  4948  003696  ECB9  F01F         	call	___fladd	;wreg free
  4949  00369A  C00A  F1A4         	movff	?___fladd,_powf$1390
  4950  00369E  C00B  F1A5         	movff	?___fladd+1,_powf$1390+1
  4951  0036A2  C00C  F1A6         	movff	?___fladd+2,_powf$1390+2
  4952  0036A6  C00D  F1A7         	movff	?___fladd+3,_powf$1390+3
  4953  0036AA  0E55               	movlw	85
  4954  0036AC  6E0E               	movwf	___fladd@a^0,c
  4955  0036AE  0EB3               	movlw	179
  4956  0036B0  6E0F               	movwf	(___fladd@a+1)^0,c
  4957  0036B2  0E8A               	movlw	138
  4958  0036B4  6E10               	movwf	(___fladd@a+2)^0,c
  4959  0036B6  0E38               	movlw	56
  4960  0036B8  6E11               	movwf	(___fladd@a+3)^0,c
  4961  0036BA  C1B0  F01E         	movff	powf@t,___flmul@a
  4962  0036BE  C1B1  F01F         	movff	powf@t+1,___flmul@a+1
  4963  0036C2  C1B2  F020         	movff	powf@t+2,___flmul@a+2
  4964  0036C6  C1B3  F021         	movff	powf@t+3,___flmul@a+3
  4965  0036CA  C1A4  F01A         	movff	_powf$1390,___flmul@b
  4966  0036CE  C1A5  F01B         	movff	_powf$1390+1,___flmul@b+1
  4967  0036D2  C1A6  F01C         	movff	_powf$1390+2,___flmul@b+2
  4968  0036D6  C1A7  F01D         	movff	_powf$1390+3,___flmul@b+3
  4969  0036DA  EC19  F022         	call	___flmul	;wreg free
  4970  0036DE  C01A  F00A         	movff	?___flmul,___fladd@b
  4971  0036E2  C01B  F00B         	movff	?___flmul+1,___fladd@b+1
  4972  0036E6  C01C  F00C         	movff	?___flmul+2,___fladd@b+2
  4973  0036EA  C01D  F00D         	movff	?___flmul+3,___fladd@b+3
  4974  0036EE  ECB9  F01F         	call	___fladd	;wreg free
  4975  0036F2  C00A  F154         	movff	?___fladd,_powf$1391
  4976  0036F6  C00B  F155         	movff	?___fladd+1,_powf$1391+1
  4977  0036FA  C00C  F156         	movff	?___fladd+2,_powf$1391+2
  4978  0036FE  C00D  F157         	movff	?___fladd+3,_powf$1391+3
  4979  003702  0E61               	movlw	97
  4980  003704  6E0E               	movwf	___fladd@a^0,c
  4981  003706  0E0B               	movlw	11
  4982  003708  6E0F               	movwf	(___fladd@a+1)^0,c
  4983  00370A  0E36               	movlw	54
  4984  00370C  6E10               	movwf	(___fladd@a+2)^0,c
  4985  00370E  0EBB               	movlw	187
  4986  003710  6E11               	movwf	(___fladd@a+3)^0,c
  4987  003712  C1B0  F01E         	movff	powf@t,___flmul@a
  4988  003716  C1B1  F01F         	movff	powf@t+1,___flmul@a+1
  4989  00371A  C1B2  F020         	movff	powf@t+2,___flmul@a+2
  4990  00371E  C1B3  F021         	movff	powf@t+3,___flmul@a+3
  4991  003722  C154  F01A         	movff	_powf$1391,___flmul@b
  4992  003726  C155  F01B         	movff	_powf$1391+1,___flmul@b+1
  4993  00372A  C156  F01C         	movff	_powf$1391+2,___flmul@b+2
  4994  00372E  C157  F01D         	movff	_powf$1391+3,___flmul@b+3
  4995  003732  EC19  F022         	call	___flmul	;wreg free
  4996  003736  C01A  F00A         	movff	?___flmul,___fladd@b
  4997  00373A  C01B  F00B         	movff	?___flmul+1,___fladd@b+1
  4998  00373E  C01C  F00C         	movff	?___flmul+2,___fladd@b+2
  4999  003742  C01D  F00D         	movff	?___flmul+3,___fladd@b+3
  5000  003746  ECB9  F01F         	call	___fladd	;wreg free
  5001  00374A  C00A  F148         	movff	?___fladd,_powf$1392
  5002  00374E  C00B  F149         	movff	?___fladd+1,_powf$1392+1
  5003  003752  C00C  F14A         	movff	?___fladd+2,_powf$1392+2
  5004  003756  C00D  F14B         	movff	?___fladd+3,_powf$1392+3
  5005  00375A  0EAB               	movlw	171
  5006  00375C  6E0E               	movwf	___fladd@a^0,c
  5007  00375E  0EAA               	movlw	170
  5008  003760  6E0F               	movwf	(___fladd@a+1)^0,c
  5009  003762  0E2A               	movlw	42
  5010  003764  6E10               	movwf	(___fladd@a+2)^0,c
  5011  003766  0E3E               	movlw	62
  5012  003768  6E11               	movwf	(___fladd@a+3)^0,c
  5013  00376A  C1B0  F01E         	movff	powf@t,___flmul@a
  5014  00376E  C1B1  F01F         	movff	powf@t+1,___flmul@a+1
  5015  003772  C1B2  F020         	movff	powf@t+2,___flmul@a+2
  5016  003776  C1B3  F021         	movff	powf@t+3,___flmul@a+3
  5017  00377A  C148  F01A         	movff	_powf$1392,___flmul@b
  5018  00377E  C149  F01B         	movff	_powf$1392+1,___flmul@b+1
  5019  003782  C14A  F01C         	movff	_powf$1392+2,___flmul@b+2
  5020  003786  C14B  F01D         	movff	_powf$1392+3,___flmul@b+3
  5021  00378A  EC19  F022         	call	___flmul	;wreg free
  5022  00378E  C01A  F00A         	movff	?___flmul,___fladd@b
  5023  003792  C01B  F00B         	movff	?___flmul+1,___fladd@b+1
  5024  003796  C01C  F00C         	movff	?___flmul+2,___fladd@b+2
  5025  00379A  C01D  F00D         	movff	?___flmul+3,___fladd@b+3
  5026  00379E  ECB9  F01F         	call	___fladd	;wreg free
  5027  0037A2  C00A  F138         	movff	?___fladd,_powf$1394
  5028  0037A6  C00B  F139         	movff	?___fladd+1,_powf$1394+1
  5029  0037AA  C00C  F13A         	movff	?___fladd+2,_powf$1394+2
  5030  0037AE  C00D  F13B         	movff	?___fladd+3,_powf$1394+3
  5031  0037B2  C1B4  F033         	movff	powf@z,___flsub@b
  5032  0037B6  C1B5  F034         	movff	powf@z+1,___flsub@b+1
  5033  0037BA  C1B6  F035         	movff	powf@z+2,___flsub@b+2
  5034  0037BE  C1B7  F036         	movff	powf@z+3,___flsub@b+3
  5035  0037C2  C1B0  F01E         	movff	powf@t,___flmul@a
  5036  0037C6  C1B1  F01F         	movff	powf@t+1,___flmul@a+1
  5037  0037CA  C1B2  F020         	movff	powf@t+2,___flmul@a+2
  5038  0037CE  C1B3  F021         	movff	powf@t+3,___flmul@a+3
  5039  0037D2  C138  F01A         	movff	_powf$1394,___flmul@b
  5040  0037D6  C139  F01B         	movff	_powf$1394+1,___flmul@b+1
  5041  0037DA  C13A  F01C         	movff	_powf$1394+2,___flmul@b+2
  5042  0037DE  C13B  F01D         	movff	_powf$1394+3,___flmul@b+3
  5043  0037E2  EC19  F022         	call	___flmul	;wreg free
  5044  0037E6  C01A  F037         	movff	?___flmul,___flsub@a
  5045  0037EA  C01B  F038         	movff	?___flmul+1,___flsub@a+1
  5046  0037EE  C01C  F039         	movff	?___flmul+2,___flsub@a+2
  5047  0037F2  C01D  F03A         	movff	?___flmul+3,___flsub@a+3
  5048  0037F6  EC57  F02C         	call	___flsub	;wreg free
  5049  0037FA  C033  F184         	movff	?___flsub,powf@t1
  5050  0037FE  C034  F185         	movff	?___flsub+1,powf@t1+1
  5051  003802  C035  F186         	movff	?___flsub+2,powf@t1+2
  5052  003806  C036  F187         	movff	?___flsub+3,powf@t1+3
  5053  00380A  0E00               	movlw	0
  5054  00380C  6E0E               	movwf	___fladd@a^0,c
  5055  00380E  0E00               	movlw	0
  5056  003810  6E0F               	movwf	(___fladd@a+1)^0,c
  5057  003812  0E00               	movlw	0
  5058  003814  6E10               	movwf	(___fladd@a+2)^0,c
  5059  003816  0EC0               	movlw	192
  5060  003818  6E11               	movwf	(___fladd@a+3)^0,c
  5061  00381A  C184  F00A         	movff	powf@t1,___fladd@b
  5062  00381E  C185  F00B         	movff	powf@t1+1,___fladd@b+1
  5063  003822  C186  F00C         	movff	powf@t1+2,___fladd@b+2
  5064  003826  C187  F00D         	movff	powf@t1+3,___fladd@b+3
  5065  00382A  ECB9  F01F         	call	___fladd	;wreg free
  5066  00382E  C00A  F03F         	movff	?___fladd,___fldiv@a
  5067  003832  C00B  F040         	movff	?___fladd+1,___fldiv@a+1
  5068  003836  C00C  F041         	movff	?___fladd+2,___fldiv@a+2
  5069  00383A  C00D  F042         	movff	?___fladd+3,___fldiv@a+3
  5070  00383E  C184  F01E         	movff	powf@t1,___flmul@a
  5071  003842  C185  F01F         	movff	powf@t1+1,___flmul@a+1
  5072  003846  C186  F020         	movff	powf@t1+2,___flmul@a+2
  5073  00384A  C187  F021         	movff	powf@t1+3,___flmul@a+3
  5074  00384E  C1B4  F01A         	movff	powf@z,___flmul@b
  5075  003852  C1B5  F01B         	movff	powf@z+1,___flmul@b+1
  5076  003856  C1B6  F01C         	movff	powf@z+2,___flmul@b+2
  5077  00385A  C1B7  F01D         	movff	powf@z+3,___flmul@b+3
  5078  00385E  EC19  F022         	call	___flmul	;wreg free
  5079  003862  C01A  F03B         	movff	?___flmul,___fldiv@b
  5080  003866  C01B  F03C         	movff	?___flmul+1,___fldiv@b+1
  5081  00386A  C01C  F03D         	movff	?___flmul+2,___fldiv@b+2
  5082  00386E  C01D  F03E         	movff	?___flmul+3,___fldiv@b+3
  5083  003872  EC2E  F024         	call	___fldiv	;wreg free
  5084  003876  C03B  F13C         	movff	?___fldiv,_powf$1398
  5085  00387A  C03C  F13D         	movff	?___fldiv+1,_powf$1398+1
  5086  00387E  C03D  F13E         	movff	?___fldiv+2,_powf$1398+2
  5087  003882  C03E  F13F         	movff	?___fldiv+3,_powf$1398+3
  5088  003886  C144  F00E         	movff	powf@w,___fladd@a
  5089  00388A  C145  F00F         	movff	powf@w+1,___fladd@a+1
  5090  00388E  C146  F010         	movff	powf@w+2,___fladd@a+2
  5091  003892  C147  F011         	movff	powf@w+3,___fladd@a+3
  5092  003896  C144  F01E         	movff	powf@w,___flmul@a
  5093  00389A  C145  F01F         	movff	powf@w+1,___flmul@a+1
  5094  00389E  C146  F020         	movff	powf@w+2,___flmul@a+2
  5095  0038A2  C147  F021         	movff	powf@w+3,___flmul@a+3
  5096  0038A6  C1B4  F01A         	movff	powf@z,___flmul@b
  5097  0038AA  C1B5  F01B         	movff	powf@z+1,___flmul@b+1
  5098  0038AE  C1B6  F01C         	movff	powf@z+2,___flmul@b+2
  5099  0038B2  C1B7  F01D         	movff	powf@z+3,___flmul@b+3
  5100  0038B6  EC19  F022         	call	___flmul	;wreg free
  5101  0038BA  C01A  F00A         	movff	?___flmul,___fladd@b
  5102  0038BE  C01B  F00B         	movff	?___flmul+1,___fladd@b+1
  5103  0038C2  C01C  F00C         	movff	?___flmul+2,___fladd@b+2
  5104  0038C6  C01D  F00D         	movff	?___flmul+3,___fladd@b+3
  5105  0038CA  ECB9  F01F         	call	___fladd	;wreg free
  5106  0038CE  C00A  F118         	movff	?___fladd,_powf$1404
  5107  0038D2  C00B  F119         	movff	?___fladd+1,_powf$1404+1
  5108  0038D6  C00C  F11A         	movff	?___fladd+2,_powf$1404+2
  5109  0038DA  C00D  F11B         	movff	?___fladd+3,_powf$1404+3
  5110  0038DE  C13C  F033         	movff	_powf$1398,___flsub@b
  5111  0038E2  C13D  F034         	movff	_powf$1398+1,___flsub@b+1
  5112  0038E6  C13E  F035         	movff	_powf$1398+2,___flsub@b+2
  5113  0038EA  C13F  F036         	movff	_powf$1398+3,___flsub@b+3
  5114  0038EE  C118  F037         	movff	_powf$1404,___flsub@a
  5115  0038F2  C119  F038         	movff	_powf$1404+1,___flsub@a+1
  5116  0038F6  C11A  F039         	movff	_powf$1404+2,___flsub@a+2
  5117  0038FA  C11B  F03A         	movff	_powf$1404+3,___flsub@a+3
  5118  0038FE  EC57  F02C         	call	___flsub	;wreg free
  5119  003902  C033  F14C         	movff	?___flsub,powf@r
  5120  003906  C034  F14D         	movff	?___flsub+1,powf@r+1
  5121  00390A  C035  F14E         	movff	?___flsub+2,powf@r+2
  5122  00390E  C036  F14F         	movff	?___flsub+3,powf@r+3
  5123  003912  C1B4  F037         	movff	powf@z,___flsub@a
  5124  003916  C1B5  F038         	movff	powf@z+1,___flsub@a+1
  5125  00391A  C1B6  F039         	movff	powf@z+2,___flsub@a+2
  5126  00391E  C1B7  F03A         	movff	powf@z+3,___flsub@a+3
  5127  003922  C14C  F033         	movff	powf@r,___flsub@b
  5128  003926  C14D  F034         	movff	powf@r+1,___flsub@b+1
  5129  00392A  C14E  F035         	movff	powf@r+2,___flsub@b+2
  5130  00392E  C14F  F036         	movff	powf@r+3,___flsub@b+3
  5131  003932  EC57  F02C         	call	___flsub	;wreg free
  5132  003936  C033  F198         	movff	?___flsub,_powf$1393
  5133  00393A  C034  F199         	movff	?___flsub+1,_powf$1393+1
  5134  00393E  C035  F19A         	movff	?___flsub+2,_powf$1393+2
  5135  003942  C036  F19B         	movff	?___flsub+3,_powf$1393+3
  5136  003946  0E00               	movlw	0
  5137  003948  6E33               	movwf	___flsub@b^0,c
  5138  00394A  0E00               	movlw	0
  5139  00394C  6E34               	movwf	(___flsub@b+1)^0,c
  5140  00394E  0E80               	movlw	128
  5141  003950  6E35               	movwf	(___flsub@b+2)^0,c
  5142  003952  0E3F               	movlw	63
  5143  003954  6E36               	movwf	(___flsub@b+3)^0,c
  5144  003956  C198  F037         	movff	_powf$1393,___flsub@a
  5145  00395A  C199  F038         	movff	_powf$1393+1,___flsub@a+1
  5146  00395E  C19A  F039         	movff	_powf$1393+2,___flsub@a+2
  5147  003962  C19B  F03A         	movff	_powf$1393+3,___flsub@a+3
  5148  003966  EC57  F02C         	call	___flsub	;wreg free
  5149  00396A  C033  F1B4         	movff	?___flsub,powf@z
  5150  00396E  C034  F1B5         	movff	?___flsub+1,powf@z+1
  5151  003972  C035  F1B6         	movff	?___flsub+2,powf@z+2
  5152  003976  C036  F1B7         	movff	?___flsub+3,powf@z+3
  5153  00397A  C1B4  F1B8         	movff	powf@z,powf@__xc8_float_word
  5154  00397E  C1B5  F1B9         	movff	powf@z+1,powf@__xc8_float_word+1
  5155  003982  C1B6  F1BA         	movff	powf@z+2,powf@__xc8_float_word+2
  5156  003986  C1B7  F1BB         	movff	powf@z+3,powf@__xc8_float_word+3
  5157  00398A  C1B8  F1AC         	movff	powf@__xc8_float_word,powf@j
  5158  00398E  C1B9  F1AD         	movff	powf@__xc8_float_word+1,powf@j+1
  5159  003992  C1BA  F1AE         	movff	powf@__xc8_float_word+2,powf@j+2
  5160  003996  C1BB  F1AF         	movff	powf@__xc8_float_word+3,powf@j+3
  5161  00399A  C180  F095         	movff	powf@n,??_powf
  5162  00399E  C181  F096         	movff	powf@n+1,??_powf+1
  5163  0039A2  C182  F097         	movff	powf@n+2,??_powf+2
  5164  0039A6  C183  F098         	movff	powf@n+3,??_powf+3
  5165  0039AA  0E17               	movlw	23
  5166  0039AC                     u5485:
  5167  0039AC  90D8               	bcf	status,0,c
  5168  0039AE  0100               	movlb	0	; () banked
  5169  0039B0  3795               	rlcf	??_powf& (0+255),f,b
  5170  0039B2  3796               	rlcf	(??_powf+1)& (0+255),f,b
  5171  0039B4  3797               	rlcf	(??_powf+2)& (0+255),f,b
  5172  0039B6  3798               	rlcf	(??_powf+3)& (0+255),f,b
  5173  0039B8  2EE8               	decfsz	wreg,f,c
  5174  0039BA  EFD6  F01C         	goto	u5485
  5175  0039BE  5195               	movf	??_powf& (0+255),w,b
  5176  0039C0  0101               	movlb	1	; () banked
  5177  0039C2  27AC               	addwf	powf@j& (0+255),f,b
  5178  0039C4  0100               	movlb	0	; () banked
  5179  0039C6  5196               	movf	(??_powf+1)& (0+255),w,b
  5180  0039C8  0101               	movlb	1	; () banked
  5181  0039CA  23AD               	addwfc	(powf@j+1)& (0+255),f,b
  5182  0039CC  0100               	movlb	0	; () banked
  5183  0039CE  5197               	movf	(??_powf+2)& (0+255),w,b
  5184  0039D0  0101               	movlb	1	; () banked
  5185  0039D2  23AE               	addwfc	(powf@j+2)& (0+255),f,b
  5186  0039D4  0100               	movlb	0	; () banked
  5187  0039D6  5198               	movf	(??_powf+3)& (0+255),w,b
  5188  0039D8  0101               	movlb	1	; () banked
  5189  0039DA  23AF               	addwfc	(powf@j+3)& (0+255),f,b
  5190  0039DC                     
  5191                           ; BSR set to: 1
  5192  0039DC  0E17               	movlw	23
  5193  0039DE  0100               	movlb	0	; () banked
  5194  0039E0  6F95               	movwf	??_powf& (0+255),b
  5195  0039E2  C1AC  F096         	movff	powf@j,??_powf+1
  5196  0039E6  C1AD  F097         	movff	powf@j+1,??_powf+2
  5197  0039EA  C1AE  F098         	movff	powf@j+2,??_powf+3
  5198  0039EE  C1AF  F099         	movff	powf@j+3,??_powf+4
  5199  0039F2                     u5495:
  5200  0039F2  6795               	tstfsz	??_powf& (0+255),b
  5201  0039F4  EFFE  F01C         	goto	u5496
  5202  0039F8  EF06  F01D         	goto	u5497
  5203  0039FC                     u5496:
  5204  0039FC  3599               	rlcf	(??_powf+4)& (0+255),w,b
  5205  0039FE  3399               	rrcf	(??_powf+4)& (0+255),f,b
  5206  003A00  3398               	rrcf	(??_powf+3)& (0+255),f,b
  5207  003A02  3397               	rrcf	(??_powf+2)& (0+255),f,b
  5208  003A04  3396               	rrcf	(??_powf+1)& (0+255),f,b
  5209  003A06  2F95               	decfsz	??_powf& (0+255),f,b
  5210  003A08  EFF9  F01C         	goto	u5495
  5211  003A0C                     u5497:
  5212  003A0C  0100               	movlb	0	; () banked
  5213  003A0E  BF99               	btfsc	(??_powf+4)& (0+255),7,b
  5214  003A10  EF16  F01D         	goto	u5500
  5215  003A14  5199               	movf	(??_powf+4)& (0+255),w,b
  5216  003A16  1198               	iorwf	(??_powf+3)& (0+255),w,b
  5217  003A18  1197               	iorwf	(??_powf+2)& (0+255),w,b
  5218  003A1A  E106               	bnz	u5501
  5219  003A1C  0596               	decf	(??_powf+1)& (0+255),w,b
  5220  003A1E  B0D8               	btfsc	status,0,c
  5221  003A20  EF14  F01D         	goto	u5501
  5222  003A24  EF16  F01D         	goto	u5500
  5223  003A28                     u5501:
  5224  003A28  EF2E  F01D         	goto	l1288
  5225  003A2C                     u5500:
  5226  003A2C                     
  5227                           ; BSR set to: 0
  5228  003A2C  C1B4  F033         	movff	powf@z,scalbnf@x
  5229  003A30  C1B5  F034         	movff	powf@z+1,scalbnf@x+1
  5230  003A34  C1B6  F035         	movff	powf@z+2,scalbnf@x+2
  5231  003A38  C1B7  F036         	movff	powf@z+3,scalbnf@x+3
  5232  003A3C  C180  F037         	movff	powf@n,scalbnf@n
  5233  003A40  C181  F038         	movff	powf@n+1,scalbnf@n+1
  5234  003A44  EC2E  F027         	call	_scalbnf	;wreg free
  5235  003A48  C033  F1B4         	movff	?_scalbnf,powf@z
  5236  003A4C  C034  F1B5         	movff	?_scalbnf+1,powf@z+1
  5237  003A50  C035  F1B6         	movff	?_scalbnf+2,powf@z+2
  5238  003A54  C036  F1B7         	movff	?_scalbnf+3,powf@z+3
  5239  003A58  EF3E  F01D         	goto	l4969
  5240  003A5C                     l1288:
  5241                           
  5242                           ; BSR set to: 0
  5243  003A5C  C1AC  F1B8         	movff	powf@j,powf@__xc8_float_word
  5244  003A60  C1AD  F1B9         	movff	powf@j+1,powf@__xc8_float_word+1
  5245  003A64  C1AE  F1BA         	movff	powf@j+2,powf@__xc8_float_word+2
  5246  003A68  C1AF  F1BB         	movff	powf@j+3,powf@__xc8_float_word+3
  5247  003A6C  C1B8  F1B4         	movff	powf@__xc8_float_word,powf@z
  5248  003A70  C1B9  F1B5         	movff	powf@__xc8_float_word+1,powf@z+1
  5249  003A74  C1BA  F1B6         	movff	powf@__xc8_float_word+2,powf@z+2
  5250  003A78  C1BB  F1B7         	movff	powf@__xc8_float_word+3,powf@z+3
  5251  003A7C                     l4969:
  5252  003A7C  C188  F01A         	movff	powf@sn,___flmul@b
  5253  003A80  C189  F01B         	movff	powf@sn+1,___flmul@b+1
  5254  003A84  C18A  F01C         	movff	powf@sn+2,___flmul@b+2
  5255  003A88  C18B  F01D         	movff	powf@sn+3,___flmul@b+3
  5256  003A8C  C1B4  F01E         	movff	powf@z,___flmul@a
  5257  003A90  C1B5  F01F         	movff	powf@z+1,___flmul@a+1
  5258  003A94  C1B6  F020         	movff	powf@z+2,___flmul@a+2
  5259  003A98  C1B7  F021         	movff	powf@z+3,___flmul@a+3
  5260  003A9C  EC19  F022         	call	___flmul	;wreg free
  5261  003AA0  C01A  F08D         	movff	?___flmul,?_powf
  5262  003AA4  C01B  F08E         	movff	?___flmul+1,?_powf+1
  5263  003AA8  C01C  F08F         	movff	?___flmul+2,?_powf+2
  5264  003AAC  C01D  F090         	movff	?___flmul+3,?_powf+3
  5265  003AB0                     l1176:
  5266  003AB0  0012               	return		;funcret
  5267  003AB2                     __end_of_powf:
  5268                           	opt callstack 0
  5269                           
  5270 ;; *************** function _sqrtf *****************
  5271 ;; Defined at:
  5272 ;;		line 22 in file "C:\Program Files (x86)\Microchip\xc8\v2.10\pic\sources\c99\common\sqrtf.c"
  5273 ;; Parameters:    Size  Location     Type
  5274 ;;  x               4   70[COMRAM] float 
  5275 ;; Auto vars:     Size  Location     Type
  5276 ;;  ix              4   41[BANK0 ] long 
  5277 ;;  r               4   37[BANK0 ] unsigned long 
  5278 ;;  m               4   33[BANK0 ] long 
  5279 ;;  z               4   29[BANK0 ] float 
  5280 ;;  t               4   25[BANK0 ] long 
  5281 ;;  q               4   21[BANK0 ] long 
  5282 ;;  __xc8_float_    4   17[BANK0 ] struct .
  5283 ;;  i               4   13[BANK0 ] long 
  5284 ;;  s               4    9[BANK0 ] long 
  5285 ;;  sign            4    0        long 
  5286 ;; Return value:  Size  Location     Type
  5287 ;;                  4   70[COMRAM] float 
  5288 ;; Registers used:
  5289 ;;		wreg, status,2, status,0, prodl, prodh, cstack
  5290 ;; Tracked objects:
  5291 ;;		On entry : 0/0
  5292 ;;		On exit  : 0/0
  5293 ;;		Unchanged: 0/0
  5294 ;; Data sizes:     COMRAM   BANK0   BANK1   BANK2   BANK3   BANK4   BANK5   BANK6   BANK7   BANK8   BANK9  BANK10  BANK1
      +1  BANK12  BANK13  BANK14  BANK15
  5295 ;;      Params:         4       0       0       0       0       0       0       0       0       0       0       0       
      +0       0       0       0       0
  5296 ;;      Locals:         0      40       0       0       0       0       0       0       0       0       0       0       
      +0       0       0       0       0
  5297 ;;      Temps:          0       5       0       0       0       0       0       0       0       0       0       0       
      +0       0       0       0       0
  5298 ;;      Totals:         4      45       0       0       0       0       0       0       0       0       0       0       
      +0       0       0       0       0
  5299 ;;Total ram usage:       49 bytes
  5300 ;; Hardware stack levels used:    1
  5301 ;; Hardware stack levels required when called:    4
  5302 ;; This function calls:
  5303 ;;		___fladd
  5304 ;;		___flge
  5305 ;;		___flmul
  5306 ;;		_nanf
  5307 ;; This function is called by:
  5308 ;;		_powf
  5309 ;; This function uses a non-reentrant model
  5310 ;;
  5311                           
  5312                           	psect	text4
  5313  003AB2                     __ptext4:
  5314                           	opt callstack 0
  5315  003AB2                     _sqrtf:
  5316                           	opt callstack 23
  5317  003AB2  C047  F071         	movff	sqrtf@x,sqrtf@__xc8_float_word
  5318  003AB6  C048  F072         	movff	sqrtf@x+1,sqrtf@__xc8_float_word+1
  5319  003ABA  C049  F073         	movff	sqrtf@x+2,sqrtf@__xc8_float_word+2
  5320  003ABE  C04A  F074         	movff	sqrtf@x+3,sqrtf@__xc8_float_word+3
  5321  003AC2  C071  F089         	movff	sqrtf@__xc8_float_word,sqrtf@ix
  5322  003AC6  C072  F08A         	movff	sqrtf@__xc8_float_word+1,sqrtf@ix+1
  5323  003ACA  C073  F08B         	movff	sqrtf@__xc8_float_word+2,sqrtf@ix+2
  5324  003ACE  C074  F08C         	movff	sqrtf@__xc8_float_word+3,sqrtf@ix+3
  5325  003AD2  0E00               	movlw	0
  5326  003AD4  0100               	movlb	0	; () banked
  5327  003AD6  1589               	andwf	sqrtf@ix& (0+255),w,b
  5328  003AD8  6F60               	movwf	??_sqrtf& (0+255),b
  5329  003ADA  0E00               	movlw	0
  5330  003ADC  158A               	andwf	(sqrtf@ix+1)& (0+255),w,b
  5331  003ADE  6F61               	movwf	(??_sqrtf+1)& (0+255),b
  5332  003AE0  0E80               	movlw	128
  5333  003AE2  158B               	andwf	(sqrtf@ix+2)& (0+255),w,b
  5334  003AE4  6F62               	movwf	(??_sqrtf+2)& (0+255),b
  5335  003AE6  0E7F               	movlw	127
  5336  003AE8  158C               	andwf	(sqrtf@ix+3)& (0+255),w,b
  5337  003AEA  6F63               	movwf	(??_sqrtf+3)& (0+255),b
  5338  003AEC  0E80               	movlw	128
  5339  003AEE  1962               	xorwf	(??_sqrtf+2)& (0+255),w,b
  5340  003AF0  E109               	bnz	u4801
  5341  003AF2  0E7F               	movlw	127
  5342  003AF4  1963               	xorwf	(??_sqrtf+3)& (0+255),w,b
  5343  003AF6  1160               	iorwf	??_sqrtf& (0+255),w,b
  5344  003AF8  1161               	iorwf	(??_sqrtf+1)& (0+255),w,b
  5345  003AFA  A4D8               	btfss	status,2,c
  5346  003AFC  EF82  F01D         	goto	u4801
  5347  003B00  EF84  F01D         	goto	u4800
  5348  003B04                     u4801:
  5349  003B04  EFB2  F01D         	goto	l4461
  5350  003B08                     u4800:
  5351  003B08                     
  5352                           ; BSR set to: 0
  5353  003B08  C047  F01E         	movff	sqrtf@x,___flmul@a
  5354  003B0C  C048  F01F         	movff	sqrtf@x+1,___flmul@a+1
  5355  003B10  C049  F020         	movff	sqrtf@x+2,___flmul@a+2
  5356  003B14  C04A  F021         	movff	sqrtf@x+3,___flmul@a+3
  5357  003B18  C047  F01A         	movff	sqrtf@x,___flmul@b
  5358  003B1C  C048  F01B         	movff	sqrtf@x+1,___flmul@b+1
  5359  003B20  C049  F01C         	movff	sqrtf@x+2,___flmul@b+2
  5360  003B24  C04A  F01D         	movff	sqrtf@x+3,___flmul@b+3
  5361  003B28  EC19  F022         	call	___flmul	;wreg free
  5362  003B2C  C01A  F00A         	movff	?___flmul,___fladd@b
  5363  003B30  C01B  F00B         	movff	?___flmul+1,___fladd@b+1
  5364  003B34  C01C  F00C         	movff	?___flmul+2,___fladd@b+2
  5365  003B38  C01D  F00D         	movff	?___flmul+3,___fladd@b+3
  5366  003B3C  C047  F00E         	movff	sqrtf@x,___fladd@a
  5367  003B40  C048  F00F         	movff	sqrtf@x+1,___fladd@a+1
  5368  003B44  C049  F010         	movff	sqrtf@x+2,___fladd@a+2
  5369  003B48  C04A  F011         	movff	sqrtf@x+3,___fladd@a+3
  5370  003B4C  ECB9  F01F         	call	___fladd	;wreg free
  5371  003B50  C00A  F047         	movff	?___fladd,?_sqrtf
  5372  003B54  C00B  F048         	movff	?___fladd+1,?_sqrtf+1
  5373  003B58  C00C  F049         	movff	?___fladd+2,?_sqrtf+2
  5374  003B5C  C00D  F04A         	movff	?___fladd+3,?_sqrtf+3
  5375  003B60  EFB8  F01F         	goto	l1311
  5376  003B64                     l4461:
  5377                           
  5378                           ; BSR set to: 0
  5379  003B64  BF8C               	btfsc	(sqrtf@ix+3)& (0+255),7,b
  5380  003B66  EFC1  F01D         	goto	u4810
  5381  003B6A  518C               	movf	(sqrtf@ix+3)& (0+255),w,b
  5382  003B6C  118B               	iorwf	(sqrtf@ix+2)& (0+255),w,b
  5383  003B6E  118A               	iorwf	(sqrtf@ix+1)& (0+255),w,b
  5384  003B70  E106               	bnz	u4811
  5385  003B72  0589               	decf	sqrtf@ix& (0+255),w,b
  5386  003B74  B0D8               	btfsc	status,0,c
  5387  003B76  EFBF  F01D         	goto	u4811
  5388  003B7A  EFC1  F01D         	goto	u4810
  5389  003B7E                     u4811:
  5390  003B7E  EFFD  F01D         	goto	l4475
  5391  003B82                     u4810:
  5392  003B82                     
  5393                           ; BSR set to: 0
  5394  003B82  0EFF               	movlw	255
  5395  003B84  1589               	andwf	sqrtf@ix& (0+255),w,b
  5396  003B86  6F60               	movwf	??_sqrtf& (0+255),b
  5397  003B88  0EFF               	movlw	255
  5398  003B8A  158A               	andwf	(sqrtf@ix+1)& (0+255),w,b
  5399  003B8C  6F61               	movwf	(??_sqrtf+1)& (0+255),b
  5400  003B8E  0EFF               	movlw	255
  5401  003B90  158B               	andwf	(sqrtf@ix+2)& (0+255),w,b
  5402  003B92  6F62               	movwf	(??_sqrtf+2)& (0+255),b
  5403  003B94  0E7F               	movlw	127
  5404  003B96  158C               	andwf	(sqrtf@ix+3)& (0+255),w,b
  5405  003B98  6F63               	movwf	(??_sqrtf+3)& (0+255),b
  5406  003B9A  5160               	movf	??_sqrtf& (0+255),w,b
  5407  003B9C  1161               	iorwf	(??_sqrtf+1)& (0+255),w,b
  5408  003B9E  1162               	iorwf	(??_sqrtf+2)& (0+255),w,b
  5409  003BA0  1163               	iorwf	(??_sqrtf+3)& (0+255),w,b
  5410  003BA2  A4D8               	btfss	status,2,c
  5411  003BA4  EFD6  F01D         	goto	u4821
  5412  003BA8  EFD8  F01D         	goto	u4820
  5413  003BAC                     u4821:
  5414  003BAC  EFE2  F01D         	goto	l4467
  5415  003BB0                     u4820:
  5416  003BB0                     
  5417                           ; BSR set to: 0
  5418  003BB0  C047  F047         	movff	sqrtf@x,?_sqrtf
  5419  003BB4  C048  F048         	movff	sqrtf@x+1,?_sqrtf+1
  5420  003BB8  C049  F049         	movff	sqrtf@x+2,?_sqrtf+2
  5421  003BBC  C04A  F04A         	movff	sqrtf@x+3,?_sqrtf+3
  5422  003BC0  EFB8  F01F         	goto	l1311
  5423  003BC4                     l4467:
  5424                           
  5425                           ; BSR set to: 0
  5426  003BC4  BF8C               	btfsc	(sqrtf@ix+3)& (0+255),7,b
  5427  003BC6  EFE9  F01D         	goto	u4830
  5428  003BCA  EFE7  F01D         	goto	u4831
  5429  003BCE                     u4831:
  5430  003BCE  EFFD  F01D         	goto	l4475
  5431  003BD2                     u4830:
  5432  003BD2                     
  5433                           ; BSR set to: 0
  5434  003BD2  0E00               	movlw	0
  5435  003BD4  6FB7               	movwf	(_errno+1)& (0+255),b
  5436  003BD6  0E21               	movlw	33
  5437  003BD8  6FB6               	movwf	_errno& (0+255),b
  5438  003BDA                     
  5439                           ; BSR set to: 0
  5440  003BDA  0E7D               	movlw	low STR_1
  5441  003BDC  6E0A               	movwf	nanf@s^0,c
  5442  003BDE  0E10               	movlw	high STR_1
  5443  003BE0  6E0B               	movwf	(nanf@s+1)^0,c
  5444  003BE2  ECC8  F02C         	call	_nanf	;wreg free
  5445  003BE6  C00A  F047         	movff	?_nanf,?_sqrtf
  5446  003BEA  C00B  F048         	movff	?_nanf+1,?_sqrtf+1
  5447  003BEE  C00C  F049         	movff	?_nanf+2,?_sqrtf+2
  5448  003BF2  C00D  F04A         	movff	?_nanf+3,?_sqrtf+3
  5449  003BF6  EFB8  F01F         	goto	l1311
  5450  003BFA                     l4475:
  5451                           
  5452                           ; BSR set to: 0
  5453  003BFA  0E17               	movlw	23
  5454  003BFC  6F60               	movwf	??_sqrtf& (0+255),b
  5455  003BFE  C089  F061         	movff	sqrtf@ix,??_sqrtf+1
  5456  003C02  C08A  F062         	movff	sqrtf@ix+1,??_sqrtf+2
  5457  003C06  C08B  F063         	movff	sqrtf@ix+2,??_sqrtf+3
  5458  003C0A  C08C  F064         	movff	sqrtf@ix+3,??_sqrtf+4
  5459  003C0E                     u4845:
  5460  003C0E  6760               	tstfsz	??_sqrtf& (0+255),b
  5461  003C10  EF0C  F01E         	goto	u4846
  5462  003C14  EF14  F01E         	goto	u4847
  5463  003C18                     u4846:
  5464  003C18  3564               	rlcf	(??_sqrtf+4)& (0+255),w,b
  5465  003C1A  3364               	rrcf	(??_sqrtf+4)& (0+255),f,b
  5466  003C1C  3363               	rrcf	(??_sqrtf+3)& (0+255),f,b
  5467  003C1E  3362               	rrcf	(??_sqrtf+2)& (0+255),f,b
  5468  003C20  3361               	rrcf	(??_sqrtf+1)& (0+255),f,b
  5469  003C22  2F60               	decfsz	??_sqrtf& (0+255),f,b
  5470  003C24  EF07  F01E         	goto	u4845
  5471  003C28                     u4847:
  5472  003C28  C061  F081         	movff	??_sqrtf+1,sqrtf@m
  5473  003C2C  C062  F082         	movff	??_sqrtf+2,sqrtf@m+1
  5474  003C30  C063  F083         	movff	??_sqrtf+3,sqrtf@m+2
  5475  003C34  C064  F084         	movff	??_sqrtf+4,sqrtf@m+3
  5476  003C38  0100               	movlb	0	; () banked
  5477  003C3A  5181               	movf	sqrtf@m& (0+255),w,b
  5478  003C3C  1182               	iorwf	(sqrtf@m+1)& (0+255),w,b
  5479  003C3E  1183               	iorwf	(sqrtf@m+2)& (0+255),w,b
  5480  003C40  1184               	iorwf	(sqrtf@m+3)& (0+255),w,b
  5481  003C42  A4D8               	btfss	status,2,c
  5482  003C44  EF26  F01E         	goto	u4851
  5483  003C48  EF28  F01E         	goto	u4850
  5484  003C4C                     u4851:
  5485  003C4C  EF58  F01E         	goto	l1315
  5486  003C50                     u4850:
  5487  003C50                     
  5488                           ; BSR set to: 0
  5489  003C50  0E00               	movlw	0
  5490  003C52  6F6D               	movwf	sqrtf@i& (0+255),b
  5491  003C54  0E00               	movlw	0
  5492  003C56  6F6E               	movwf	(sqrtf@i+1)& (0+255),b
  5493  003C58  0E00               	movlw	0
  5494  003C5A  6F6F               	movwf	(sqrtf@i+2)& (0+255),b
  5495  003C5C  0E00               	movlw	0
  5496  003C5E  6F70               	movwf	(sqrtf@i+3)& (0+255),b
  5497  003C60  EF3D  F01E         	goto	l4483
  5498  003C64                     l4479:
  5499                           
  5500                           ; BSR set to: 0
  5501  003C64  90D8               	bcf	status,0,c
  5502  003C66  3789               	rlcf	sqrtf@ix& (0+255),f,b
  5503  003C68  378A               	rlcf	(sqrtf@ix+1)& (0+255),f,b
  5504  003C6A  378B               	rlcf	(sqrtf@ix+2)& (0+255),f,b
  5505  003C6C  378C               	rlcf	(sqrtf@ix+3)& (0+255),f,b
  5506  003C6E                     
  5507                           ; BSR set to: 0
  5508  003C6E  0E01               	movlw	1
  5509  003C70  276D               	addwf	sqrtf@i& (0+255),f,b
  5510  003C72  0E00               	movlw	0
  5511  003C74  236E               	addwfc	(sqrtf@i+1)& (0+255),f,b
  5512  003C76  236F               	addwfc	(sqrtf@i+2)& (0+255),f,b
  5513  003C78  2370               	addwfc	(sqrtf@i+3)& (0+255),f,b
  5514  003C7A                     l4483:
  5515                           
  5516                           ; BSR set to: 0
  5517  003C7A  AF8B               	btfss	(sqrtf@ix+2)& (0+255),7,b
  5518  003C7C  EF42  F01E         	goto	u4861
  5519  003C80  EF44  F01E         	goto	u4860
  5520  003C84                     u4861:
  5521  003C84  EF32  F01E         	goto	l4479
  5522  003C88                     u4860:
  5523  003C88                     
  5524                           ; BSR set to: 0
  5525  003C88  0EFF               	movlw	255
  5526  003C8A  256D               	addwf	sqrtf@i& (0+255),w,b
  5527  003C8C  6F60               	movwf	??_sqrtf& (0+255),b
  5528  003C8E  0EFF               	movlw	255
  5529  003C90  216E               	addwfc	(sqrtf@i+1)& (0+255),w,b
  5530  003C92  6F61               	movwf	(??_sqrtf+1)& (0+255),b
  5531  003C94  0EFF               	movlw	255
  5532  003C96  216F               	addwfc	(sqrtf@i+2)& (0+255),w,b
  5533  003C98  6F62               	movwf	(??_sqrtf+2)& (0+255),b
  5534  003C9A  0EFF               	movlw	255
  5535  003C9C  2170               	addwfc	(sqrtf@i+3)& (0+255),w,b
  5536  003C9E  6F63               	movwf	(??_sqrtf+3)& (0+255),b
  5537  003CA0  5160               	movf	??_sqrtf& (0+255),w,b
  5538  003CA2  5F81               	subwf	sqrtf@m& (0+255),f,b
  5539  003CA4  5161               	movf	(??_sqrtf+1)& (0+255),w,b
  5540  003CA6  5B82               	subwfb	(sqrtf@m+1)& (0+255),f,b
  5541  003CA8  5162               	movf	(??_sqrtf+2)& (0+255),w,b
  5542  003CAA  5B83               	subwfb	(sqrtf@m+2)& (0+255),f,b
  5543  003CAC  5163               	movf	(??_sqrtf+3)& (0+255),w,b
  5544  003CAE  5B84               	subwfb	(sqrtf@m+3)& (0+255),f,b
  5545  003CB0                     l1315:
  5546                           
  5547                           ; BSR set to: 0
  5548  003CB0  0E81               	movlw	129
  5549  003CB2  2781               	addwf	sqrtf@m& (0+255),f,b
  5550  003CB4  0EFF               	movlw	255
  5551  003CB6  2382               	addwfc	(sqrtf@m+1)& (0+255),f,b
  5552  003CB8  0EFF               	movlw	255
  5553  003CBA  2383               	addwfc	(sqrtf@m+2)& (0+255),f,b
  5554  003CBC  0EFF               	movlw	255
  5555  003CBE  2384               	addwfc	(sqrtf@m+3)& (0+255),f,b
  5556  003CC0  0EFF               	movlw	255
  5557  003CC2  1589               	andwf	sqrtf@ix& (0+255),w,b
  5558  003CC4  6F60               	movwf	??_sqrtf& (0+255),b
  5559  003CC6  0EFF               	movlw	255
  5560  003CC8  158A               	andwf	(sqrtf@ix+1)& (0+255),w,b
  5561  003CCA  6F61               	movwf	(??_sqrtf+1)& (0+255),b
  5562  003CCC  0E7F               	movlw	127
  5563  003CCE  158B               	andwf	(sqrtf@ix+2)& (0+255),w,b
  5564  003CD0  6F62               	movwf	(??_sqrtf+2)& (0+255),b
  5565  003CD2  0E00               	movlw	0
  5566  003CD4  158C               	andwf	(sqrtf@ix+3)& (0+255),w,b
  5567  003CD6  6F63               	movwf	(??_sqrtf+3)& (0+255),b
  5568  003CD8  0E00               	movlw	0
  5569  003CDA  1160               	iorwf	??_sqrtf& (0+255),w,b
  5570  003CDC  6F89               	movwf	sqrtf@ix& (0+255),b
  5571  003CDE  0E00               	movlw	0
  5572  003CE0  1161               	iorwf	(??_sqrtf+1)& (0+255),w,b
  5573  003CE2  6F8A               	movwf	(sqrtf@ix+1)& (0+255),b
  5574  003CE4  0E80               	movlw	128
  5575  003CE6  1162               	iorwf	(??_sqrtf+2)& (0+255),w,b
  5576  003CE8  6F8B               	movwf	(sqrtf@ix+2)& (0+255),b
  5577  003CEA  0E00               	movlw	0
  5578  003CEC  1163               	iorwf	(??_sqrtf+3)& (0+255),w,b
  5579  003CEE  6F8C               	movwf	(sqrtf@ix+3)& (0+255),b
  5580  003CF0                     
  5581                           ; BSR set to: 0
  5582  003CF0  A181               	btfss	sqrtf@m& (0+255),0,b
  5583  003CF2  EF7D  F01E         	goto	u4871
  5584  003CF6  EF7F  F01E         	goto	u4870
  5585  003CFA                     u4871:
  5586  003CFA  EF87  F01E         	goto	l1319
  5587  003CFE                     u4870:
  5588  003CFE                     
  5589                           ; BSR set to: 0
  5590  003CFE  5189               	movf	sqrtf@ix& (0+255),w,b
  5591  003D00  2789               	addwf	sqrtf@ix& (0+255),f,b
  5592  003D02  518A               	movf	(sqrtf@ix+1)& (0+255),w,b
  5593  003D04  238A               	addwfc	(sqrtf@ix+1)& (0+255),f,b
  5594  003D06  518B               	movf	(sqrtf@ix+2)& (0+255),w,b
  5595  003D08  238B               	addwfc	(sqrtf@ix+2)& (0+255),f,b
  5596  003D0A  518C               	movf	(sqrtf@ix+3)& (0+255),w,b
  5597  003D0C  238C               	addwfc	(sqrtf@ix+3)& (0+255),f,b
  5598  003D0E                     l1319:
  5599                           
  5600                           ; BSR set to: 0
  5601  003D0E  3584               	rlcf	(sqrtf@m+3)& (0+255),w,b
  5602  003D10  3384               	rrcf	(sqrtf@m+3)& (0+255),f,b
  5603  003D12  3383               	rrcf	(sqrtf@m+2)& (0+255),f,b
  5604  003D14  3382               	rrcf	(sqrtf@m+1)& (0+255),f,b
  5605  003D16  3381               	rrcf	sqrtf@m& (0+255),f,b
  5606  003D18  5189               	movf	sqrtf@ix& (0+255),w,b
  5607  003D1A  2789               	addwf	sqrtf@ix& (0+255),f,b
  5608  003D1C  518A               	movf	(sqrtf@ix+1)& (0+255),w,b
  5609  003D1E  238A               	addwfc	(sqrtf@ix+1)& (0+255),f,b
  5610  003D20  518B               	movf	(sqrtf@ix+2)& (0+255),w,b
  5611  003D22  238B               	addwfc	(sqrtf@ix+2)& (0+255),f,b
  5612  003D24  518C               	movf	(sqrtf@ix+3)& (0+255),w,b
  5613  003D26  238C               	addwfc	(sqrtf@ix+3)& (0+255),f,b
  5614  003D28                     
  5615                           ; BSR set to: 0
  5616  003D28  0E00               	movlw	0
  5617  003D2A  6F69               	movwf	sqrtf@s& (0+255),b
  5618  003D2C  0E00               	movlw	0
  5619  003D2E  6F6A               	movwf	(sqrtf@s+1)& (0+255),b
  5620  003D30  0E00               	movlw	0
  5621  003D32  6F6B               	movwf	(sqrtf@s+2)& (0+255),b
  5622  003D34  0E00               	movlw	0
  5623  003D36  6F6C               	movwf	(sqrtf@s+3)& (0+255),b
  5624  003D38  C069  F075         	movff	sqrtf@s,sqrtf@q
  5625  003D3C  C06A  F076         	movff	sqrtf@s+1,sqrtf@q+1
  5626  003D40  C06B  F077         	movff	sqrtf@s+2,sqrtf@q+2
  5627  003D44  C06C  F078         	movff	sqrtf@s+3,sqrtf@q+3
  5628  003D48                     
  5629                           ; BSR set to: 0
  5630  003D48  0E00               	movlw	0
  5631  003D4A  6F85               	movwf	sqrtf@r& (0+255),b
  5632  003D4C  0E00               	movlw	0
  5633  003D4E  6F86               	movwf	(sqrtf@r+1)& (0+255),b
  5634  003D50  0E00               	movlw	0
  5635  003D52  6F87               	movwf	(sqrtf@r+2)& (0+255),b
  5636  003D54  0E01               	movlw	1
  5637  003D56  6F88               	movwf	(sqrtf@r+3)& (0+255),b
  5638  003D58  EFF6  F01E         	goto	l4501
  5639  003D5C                     l4495:
  5640                           
  5641                           ; BSR set to: 0
  5642  003D5C  5185               	movf	sqrtf@r& (0+255),w,b
  5643  003D5E  2569               	addwf	sqrtf@s& (0+255),w,b
  5644  003D60  6F79               	movwf	sqrtf@t& (0+255),b
  5645  003D62  5186               	movf	(sqrtf@r+1)& (0+255),w,b
  5646  003D64  216A               	addwfc	(sqrtf@s+1)& (0+255),w,b
  5647  003D66  6F7A               	movwf	(sqrtf@t+1)& (0+255),b
  5648  003D68  5187               	movf	(sqrtf@r+2)& (0+255),w,b
  5649  003D6A  216B               	addwfc	(sqrtf@s+2)& (0+255),w,b
  5650  003D6C  6F7B               	movwf	(sqrtf@t+2)& (0+255),b
  5651  003D6E  5188               	movf	(sqrtf@r+3)& (0+255),w,b
  5652  003D70  216C               	addwfc	(sqrtf@s+3)& (0+255),w,b
  5653  003D72  6F7C               	movwf	(sqrtf@t+3)& (0+255),b
  5654  003D74  5179               	movf	sqrtf@t& (0+255),w,b
  5655  003D76  5D89               	subwf	sqrtf@ix& (0+255),w,b
  5656  003D78  517A               	movf	(sqrtf@t+1)& (0+255),w,b
  5657  003D7A  598A               	subwfb	(sqrtf@ix+1)& (0+255),w,b
  5658  003D7C  517B               	movf	(sqrtf@t+2)& (0+255),w,b
  5659  003D7E  598B               	subwfb	(sqrtf@ix+2)& (0+255),w,b
  5660  003D80  518C               	movf	(sqrtf@ix+3)& (0+255),w,b
  5661  003D82  0A80               	xorlw	128
  5662  003D84  6F60               	movwf	??_sqrtf& (0+255),b
  5663  003D86  517C               	movf	(sqrtf@t+3)& (0+255),w,b
  5664  003D88  0A80               	xorlw	128
  5665  003D8A  5960               	subwfb	??_sqrtf& (0+255),w,b
  5666  003D8C  A0D8               	btfss	status,0,c
  5667  003D8E  EFCB  F01E         	goto	u4881
  5668  003D92  EFCD  F01E         	goto	u4880
  5669  003D96                     u4881:
  5670  003D96  EFE9  F01E         	goto	l1322
  5671  003D9A                     u4880:
  5672  003D9A                     
  5673                           ; BSR set to: 0
  5674  003D9A  5185               	movf	sqrtf@r& (0+255),w,b
  5675  003D9C  2579               	addwf	sqrtf@t& (0+255),w,b
  5676  003D9E  6F69               	movwf	sqrtf@s& (0+255),b
  5677  003DA0  5186               	movf	(sqrtf@r+1)& (0+255),w,b
  5678  003DA2  217A               	addwfc	(sqrtf@t+1)& (0+255),w,b
  5679  003DA4  6F6A               	movwf	(sqrtf@s+1)& (0+255),b
  5680  003DA6  5187               	movf	(sqrtf@r+2)& (0+255),w,b
  5681  003DA8  217B               	addwfc	(sqrtf@t+2)& (0+255),w,b
  5682  003DAA  6F6B               	movwf	(sqrtf@s+2)& (0+255),b
  5683  003DAC  5188               	movf	(sqrtf@r+3)& (0+255),w,b
  5684  003DAE  217C               	addwfc	(sqrtf@t+3)& (0+255),w,b
  5685  003DB0  6F6C               	movwf	(sqrtf@s+3)& (0+255),b
  5686  003DB2  5179               	movf	sqrtf@t& (0+255),w,b
  5687  003DB4  5F89               	subwf	sqrtf@ix& (0+255),f,b
  5688  003DB6  517A               	movf	(sqrtf@t+1)& (0+255),w,b
  5689  003DB8  5B8A               	subwfb	(sqrtf@ix+1)& (0+255),f,b
  5690  003DBA  517B               	movf	(sqrtf@t+2)& (0+255),w,b
  5691  003DBC  5B8B               	subwfb	(sqrtf@ix+2)& (0+255),f,b
  5692  003DBE  517C               	movf	(sqrtf@t+3)& (0+255),w,b
  5693  003DC0  5B8C               	subwfb	(sqrtf@ix+3)& (0+255),f,b
  5694  003DC2  5185               	movf	sqrtf@r& (0+255),w,b
  5695  003DC4  2775               	addwf	sqrtf@q& (0+255),f,b
  5696  003DC6  5186               	movf	(sqrtf@r+1)& (0+255),w,b
  5697  003DC8  2376               	addwfc	(sqrtf@q+1)& (0+255),f,b
  5698  003DCA  5187               	movf	(sqrtf@r+2)& (0+255),w,b
  5699  003DCC  2377               	addwfc	(sqrtf@q+2)& (0+255),f,b
  5700  003DCE  5188               	movf	(sqrtf@r+3)& (0+255),w,b
  5701  003DD0  2378               	addwfc	(sqrtf@q+3)& (0+255),f,b
  5702  003DD2                     l1322:
  5703                           
  5704                           ; BSR set to: 0
  5705  003DD2  5189               	movf	sqrtf@ix& (0+255),w,b
  5706  003DD4  2789               	addwf	sqrtf@ix& (0+255),f,b
  5707  003DD6  518A               	movf	(sqrtf@ix+1)& (0+255),w,b
  5708  003DD8  238A               	addwfc	(sqrtf@ix+1)& (0+255),f,b
  5709  003DDA  518B               	movf	(sqrtf@ix+2)& (0+255),w,b
  5710  003DDC  238B               	addwfc	(sqrtf@ix+2)& (0+255),f,b
  5711  003DDE  518C               	movf	(sqrtf@ix+3)& (0+255),w,b
  5712  003DE0  238C               	addwfc	(sqrtf@ix+3)& (0+255),f,b
  5713  003DE2                     
  5714                           ; BSR set to: 0
  5715  003DE2  90D8               	bcf	status,0,c
  5716  003DE4  3388               	rrcf	(sqrtf@r+3)& (0+255),f,b
  5717  003DE6  3387               	rrcf	(sqrtf@r+2)& (0+255),f,b
  5718  003DE8  3386               	rrcf	(sqrtf@r+1)& (0+255),f,b
  5719  003DEA  3385               	rrcf	sqrtf@r& (0+255),f,b
  5720  003DEC                     l4501:
  5721                           
  5722                           ; BSR set to: 0
  5723  003DEC  5185               	movf	sqrtf@r& (0+255),w,b
  5724  003DEE  1186               	iorwf	(sqrtf@r+1)& (0+255),w,b
  5725  003DF0  1187               	iorwf	(sqrtf@r+2)& (0+255),w,b
  5726  003DF2  1188               	iorwf	(sqrtf@r+3)& (0+255),w,b
  5727  003DF4  A4D8               	btfss	status,2,c
  5728  003DF6  EFFF  F01E         	goto	u4891
  5729  003DFA  EF01  F01F         	goto	u4890
  5730  003DFE                     u4891:
  5731  003DFE  EFAE  F01E         	goto	l4495
  5732  003E02                     u4890:
  5733  003E02                     
  5734                           ; BSR set to: 0
  5735  003E02  5189               	movf	sqrtf@ix& (0+255),w,b
  5736  003E04  118A               	iorwf	(sqrtf@ix+1)& (0+255),w,b
  5737  003E06  118B               	iorwf	(sqrtf@ix+2)& (0+255),w,b
  5738  003E08  118C               	iorwf	(sqrtf@ix+3)& (0+255),w,b
  5739  003E0A  B4D8               	btfsc	status,2,c
  5740  003E0C  EF0A  F01F         	goto	u4901
  5741  003E10  EF0C  F01F         	goto	u4900
  5742  003E14                     u4901:
  5743  003E14  EF6D  F01F         	goto	l1324
  5744  003E18                     u4900:
  5745  003E18                     
  5746                           ; BSR set to: 0
  5747  003E18  0E00               	movlw	0
  5748  003E1A  6F7D               	movwf	sqrtf@z& (0+255),b
  5749  003E1C  0E00               	movlw	0
  5750  003E1E  6F7E               	movwf	(sqrtf@z+1)& (0+255),b
  5751  003E20  0E80               	movlw	128
  5752  003E22  6F7F               	movwf	(sqrtf@z+2)& (0+255),b
  5753  003E24  0E3F               	movlw	63
  5754  003E26  6F80               	movwf	(sqrtf@z+3)& (0+255),b
  5755  003E28                     
  5756                           ; BSR set to: 0
  5757  003E28  C07D  F03B         	movff	sqrtf@z,___flge@ff1
  5758  003E2C  C07E  F03C         	movff	sqrtf@z+1,___flge@ff1+1
  5759  003E30  C07F  F03D         	movff	sqrtf@z+2,___flge@ff1+2
  5760  003E34  C080  F03E         	movff	sqrtf@z+3,___flge@ff1+3
  5761  003E38  0E00               	movlw	0
  5762  003E3A  6E3F               	movwf	___flge@ff2^0,c
  5763  003E3C  0E00               	movlw	0
  5764  003E3E  6E40               	movwf	(___flge@ff2+1)^0,c
  5765  003E40  0E80               	movlw	128
  5766  003E42  6E41               	movwf	(___flge@ff2+2)^0,c
  5767  003E44  0E3F               	movlw	63
  5768  003E46  6E42               	movwf	(___flge@ff2+3)^0,c
  5769  003E48  EC49  F02A         	call	___flge	;wreg free
  5770  003E4C  A0D8               	btfss	status,0,c
  5771  003E4E  EF2B  F01F         	goto	u4911
  5772  003E52  EF2D  F01F         	goto	u4910
  5773  003E56                     u4911:
  5774  003E56  EF6D  F01F         	goto	l1324
  5775  003E5A                     u4910:
  5776  003E5A  0E00               	movlw	0
  5777  003E5C  0100               	movlb	0	; () banked
  5778  003E5E  6F7D               	movwf	sqrtf@z& (0+255),b
  5779  003E60  0E00               	movlw	0
  5780  003E62  6F7E               	movwf	(sqrtf@z+1)& (0+255),b
  5781  003E64  0E80               	movlw	128
  5782  003E66  6F7F               	movwf	(sqrtf@z+2)& (0+255),b
  5783  003E68  0E3F               	movlw	63
  5784  003E6A  6F80               	movwf	(sqrtf@z+3)& (0+255),b
  5785  003E6C                     
  5786                           ; BSR set to: 0
  5787  003E6C  0E00               	movlw	0
  5788  003E6E  6E3B               	movwf	___flge@ff1^0,c
  5789  003E70  0E00               	movlw	0
  5790  003E72  6E3C               	movwf	(___flge@ff1+1)^0,c
  5791  003E74  0E80               	movlw	128
  5792  003E76  6E3D               	movwf	(___flge@ff1+2)^0,c
  5793  003E78  0E3F               	movlw	63
  5794  003E7A  6E3E               	movwf	(___flge@ff1+3)^0,c
  5795  003E7C  C07D  F03F         	movff	sqrtf@z,___flge@ff2
  5796  003E80  C07E  F040         	movff	sqrtf@z+1,___flge@ff2+1
  5797  003E84  C07F  F041         	movff	sqrtf@z+2,___flge@ff2+2
  5798  003E88  C080  F042         	movff	sqrtf@z+3,___flge@ff2+3
  5799  003E8C  EC49  F02A         	call	___flge	;wreg free
  5800  003E90  B0D8               	btfsc	status,0,c
  5801  003E92  EF4D  F01F         	goto	u4921
  5802  003E96  EF4F  F01F         	goto	u4920
  5803  003E9A                     u4921:
  5804  003E9A  EF58  F01F         	goto	l4515
  5805  003E9E                     u4920:
  5806  003E9E  0E02               	movlw	2
  5807  003EA0  0100               	movlb	0	; () banked
  5808  003EA2  2775               	addwf	sqrtf@q& (0+255),f,b
  5809  003EA4  0E00               	movlw	0
  5810  003EA6  2376               	addwfc	(sqrtf@q+1)& (0+255),f,b
  5811  003EA8  2377               	addwfc	(sqrtf@q+2)& (0+255),f,b
  5812  003EAA  2378               	addwfc	(sqrtf@q+3)& (0+255),f,b
  5813  003EAC  EF6D  F01F         	goto	l1324
  5814  003EB0                     l4515:
  5815  003EB0  0E01               	movlw	1
  5816  003EB2  0100               	movlb	0	; () banked
  5817  003EB4  1575               	andwf	sqrtf@q& (0+255),w,b
  5818  003EB6  6F60               	movwf	??_sqrtf& (0+255),b
  5819  003EB8  0E00               	movlw	0
  5820  003EBA  1576               	andwf	(sqrtf@q+1)& (0+255),w,b
  5821  003EBC  6F61               	movwf	(??_sqrtf+1)& (0+255),b
  5822  003EBE  0E00               	movlw	0
  5823  003EC0  1577               	andwf	(sqrtf@q+2)& (0+255),w,b
  5824  003EC2  6F62               	movwf	(??_sqrtf+2)& (0+255),b
  5825  003EC4  0E00               	movlw	0
  5826  003EC6  1578               	andwf	(sqrtf@q+3)& (0+255),w,b
  5827  003EC8  6F63               	movwf	(??_sqrtf+3)& (0+255),b
  5828  003ECA  5160               	movf	??_sqrtf& (0+255),w,b
  5829  003ECC  2775               	addwf	sqrtf@q& (0+255),f,b
  5830  003ECE  5161               	movf	(??_sqrtf+1)& (0+255),w,b
  5831  003ED0  2376               	addwfc	(sqrtf@q+1)& (0+255),f,b
  5832  003ED2  5162               	movf	(??_sqrtf+2)& (0+255),w,b
  5833  003ED4  2377               	addwfc	(sqrtf@q+2)& (0+255),f,b
  5834  003ED6  5163               	movf	(??_sqrtf+3)& (0+255),w,b
  5835  003ED8  2378               	addwfc	(sqrtf@q+3)& (0+255),f,b
  5836  003EDA                     l1324:
  5837  003EDA  C075  F060         	movff	sqrtf@q,??_sqrtf
  5838  003EDE  C076  F061         	movff	sqrtf@q+1,??_sqrtf+1
  5839  003EE2  C077  F062         	movff	sqrtf@q+2,??_sqrtf+2
  5840  003EE6  C078  F063         	movff	sqrtf@q+3,??_sqrtf+3
  5841  003EEA  0100               	movlb	0	; () banked
  5842  003EEC  3563               	rlcf	(??_sqrtf+3)& (0+255),w,b
  5843  003EEE  3363               	rrcf	(??_sqrtf+3)& (0+255),f,b
  5844  003EF0  3362               	rrcf	(??_sqrtf+2)& (0+255),f,b
  5845  003EF2  3361               	rrcf	(??_sqrtf+1)& (0+255),f,b
  5846  003EF4  3360               	rrcf	??_sqrtf& (0+255),f,b
  5847  003EF6  0E00               	movlw	0
  5848  003EF8  2560               	addwf	??_sqrtf& (0+255),w,b
  5849  003EFA  6F89               	movwf	sqrtf@ix& (0+255),b
  5850  003EFC  0E00               	movlw	0
  5851  003EFE  2161               	addwfc	(??_sqrtf+1)& (0+255),w,b
  5852  003F00  6F8A               	movwf	(sqrtf@ix+1)& (0+255),b
  5853  003F02  0E00               	movlw	0
  5854  003F04  2162               	addwfc	(??_sqrtf+2)& (0+255),w,b
  5855  003F06  6F8B               	movwf	(sqrtf@ix+2)& (0+255),b
  5856  003F08  0E3F               	movlw	63
  5857  003F0A  2163               	addwfc	(??_sqrtf+3)& (0+255),w,b
  5858  003F0C  6F8C               	movwf	(sqrtf@ix+3)& (0+255),b
  5859  003F0E  C081  F060         	movff	sqrtf@m,??_sqrtf
  5860  003F12  C082  F061         	movff	sqrtf@m+1,??_sqrtf+1
  5861  003F16  C083  F062         	movff	sqrtf@m+2,??_sqrtf+2
  5862  003F1A  C084  F063         	movff	sqrtf@m+3,??_sqrtf+3
  5863  003F1E  0E17               	movlw	23
  5864  003F20                     u4935:
  5865  003F20  90D8               	bcf	status,0,c
  5866  003F22  3760               	rlcf	??_sqrtf& (0+255),f,b
  5867  003F24  3761               	rlcf	(??_sqrtf+1)& (0+255),f,b
  5868  003F26  3762               	rlcf	(??_sqrtf+2)& (0+255),f,b
  5869  003F28  3763               	rlcf	(??_sqrtf+3)& (0+255),f,b
  5870  003F2A  2EE8               	decfsz	wreg,f,c
  5871  003F2C  EF90  F01F         	goto	u4935
  5872  003F30  5160               	movf	??_sqrtf& (0+255),w,b
  5873  003F32  2789               	addwf	sqrtf@ix& (0+255),f,b
  5874  003F34  5161               	movf	(??_sqrtf+1)& (0+255),w,b
  5875  003F36  238A               	addwfc	(sqrtf@ix+1)& (0+255),f,b
  5876  003F38  5162               	movf	(??_sqrtf+2)& (0+255),w,b
  5877  003F3A  238B               	addwfc	(sqrtf@ix+2)& (0+255),f,b
  5878  003F3C  5163               	movf	(??_sqrtf+3)& (0+255),w,b
  5879  003F3E  238C               	addwfc	(sqrtf@ix+3)& (0+255),f,b
  5880  003F40                     
  5881                           ; BSR set to: 0
  5882  003F40  C089  F071         	movff	sqrtf@ix,sqrtf@__xc8_float_word
  5883  003F44  C08A  F072         	movff	sqrtf@ix+1,sqrtf@__xc8_float_word+1
  5884  003F48  C08B  F073         	movff	sqrtf@ix+2,sqrtf@__xc8_float_word+2
  5885  003F4C  C08C  F074         	movff	sqrtf@ix+3,sqrtf@__xc8_float_word+3
  5886  003F50                     
  5887                           ; BSR set to: 0
  5888  003F50  C071  F07D         	movff	sqrtf@__xc8_float_word,sqrtf@z
  5889  003F54  C072  F07E         	movff	sqrtf@__xc8_float_word+1,sqrtf@z+1
  5890  003F58  C073  F07F         	movff	sqrtf@__xc8_float_word+2,sqrtf@z+2
  5891  003F5C  C074  F080         	movff	sqrtf@__xc8_float_word+3,sqrtf@z+3
  5892  003F60                     
  5893                           ; BSR set to: 0
  5894  003F60  C07D  F047         	movff	sqrtf@z,?_sqrtf
  5895  003F64  C07E  F048         	movff	sqrtf@z+1,?_sqrtf+1
  5896  003F68  C07F  F049         	movff	sqrtf@z+2,?_sqrtf+2
  5897  003F6C  C080  F04A         	movff	sqrtf@z+3,?_sqrtf+3
  5898  003F70                     l1311:
  5899  003F70  0012               	return		;funcret
  5900  003F72                     __end_of_sqrtf:
  5901                           	opt callstack 0
  5902                           
  5903 ;; *************** function _nanf *****************
  5904 ;; Defined at:
  5905 ;;		line 4 in file "C:\Program Files (x86)\Microchip\xc8\v2.10\pic\sources\c99\common\nanf.c"
  5906 ;; Parameters:    Size  Location     Type
  5907 ;;  s               2    9[COMRAM] PTR const unsigned char 
  5908 ;;		 -> STR_1(1), 
  5909 ;; Auto vars:     Size  Location     Type
  5910 ;;  u               4   13[COMRAM] struct .
  5911 ;; Return value:  Size  Location     Type
  5912 ;;                  4    9[COMRAM] float 
  5913 ;; Registers used:
  5914 ;;		wreg, status,2
  5915 ;; Tracked objects:
  5916 ;;		On entry : 0/0
  5917 ;;		On exit  : 0/0
  5918 ;;		Unchanged: 0/0
  5919 ;; Data sizes:     COMRAM   BANK0   BANK1   BANK2   BANK3   BANK4   BANK5   BANK6   BANK7   BANK8   BANK9  BANK10  BANK1
      +1  BANK12  BANK13  BANK14  BANK15
  5920 ;;      Params:         4       0       0       0       0       0       0       0       0       0       0       0       
      +0       0       0       0       0
  5921 ;;      Locals:         4       0       0       0       0       0       0       0       0       0       0       0       
      +0       0       0       0       0
  5922 ;;      Temps:          0       0       0       0       0       0       0       0       0       0       0       0       
      +0       0       0       0       0
  5923 ;;      Totals:         8       0       0       0       0       0       0       0       0       0       0       0       
      +0       0       0       0       0
  5924 ;;Total ram usage:        8 bytes
  5925 ;; Hardware stack levels used:    1
  5926 ;; Hardware stack levels required when called:    3
  5927 ;; This function calls:
  5928 ;;		Nothing
  5929 ;; This function is called by:
  5930 ;;		_sqrtf
  5931 ;; This function uses a non-reentrant model
  5932 ;;
  5933                           
  5934                           	psect	text5
  5935  005990                     __ptext5:
  5936                           	opt callstack 0
  5937  005990                     _nanf:
  5938                           	opt callstack 23
  5939  005990  0EFF               	movlw	255
  5940  005992  6E0E               	movwf	nanf@u^0,c
  5941  005994  0EFF               	movlw	255
  5942  005996  6E0F               	movwf	(nanf@u+1)^0,c
  5943  005998  0EFF               	movlw	255
  5944  00599A  6E10               	movwf	(nanf@u+2)^0,c
  5945  00599C  0E7F               	movlw	127
  5946  00599E  6E11               	movwf	(nanf@u+3)^0,c
  5947  0059A0  C00E  F00A         	movff	nanf@u,?_nanf
  5948  0059A4  C00F  F00B         	movff	nanf@u+1,?_nanf+1
  5949  0059A8  C010  F00C         	movff	nanf@u+2,?_nanf+2
  5950  0059AC  C011  F00D         	movff	nanf@u+3,?_nanf+3
  5951  0059B0  0012               	return		;funcret
  5952  0059B2                     __end_of_nanf:
  5953                           	opt callstack 0
  5954                           
  5955 ;; *************** function ___flge *****************
  5956 ;; Defined at:
  5957 ;;		line 4 in file "C:\Program Files (x86)\Microchip\xc8\v2.10\pic\sources\c99\common\flge.c"
  5958 ;; Parameters:    Size  Location     Type
  5959 ;;  ff1             4   58[COMRAM] float 
  5960 ;;  ff2             4   62[COMRAM] float 
  5961 ;; Auto vars:     Size  Location     Type
  5962 ;;		None
  5963 ;; Return value:  Size  Location     Type
  5964 ;;		None               void
  5965 ;; Registers used:
  5966 ;;		wreg, status,2, status,0
  5967 ;; Tracked objects:
  5968 ;;		On entry : 0/0
  5969 ;;		On exit  : 0/0
  5970 ;;		Unchanged: 0/0
  5971 ;; Data sizes:     COMRAM   BANK0   BANK1   BANK2   BANK3   BANK4   BANK5   BANK6   BANK7   BANK8   BANK9  BANK10  BANK1
      +1  BANK12  BANK13  BANK14  BANK15
  5972 ;;      Params:         8       0       0       0       0       0       0       0       0       0       0       0       
      +0       0       0       0       0
  5973 ;;      Locals:         0       0       0       0       0       0       0       0       0       0       0       0       
      +0       0       0       0       0
  5974 ;;      Temps:          4       0       0       0       0       0       0       0       0       0       0       0       
      +0       0       0       0       0
  5975 ;;      Totals:        12       0       0       0       0       0       0       0       0       0       0       0       
      +0       0       0       0       0
  5976 ;;Total ram usage:       12 bytes
  5977 ;; Hardware stack levels used:    1
  5978 ;; Hardware stack levels required when called:    3
  5979 ;; This function calls:
  5980 ;;		Nothing
  5981 ;; This function is called by:
  5982 ;;		_powf
  5983 ;;		_sqrtf
  5984 ;; This function uses a non-reentrant model
  5985 ;;
  5986                           
  5987                           	psect	text6
  5988  005492                     __ptext6:
  5989                           	opt callstack 0
  5990  005492                     ___flge:
  5991                           	opt callstack 23
  5992  005492  0E00               	movlw	0
  5993  005494  143B               	andwf	___flge@ff1^0,w,c
  5994  005496  6E43               	movwf	??___flge^0,c
  5995  005498  0E00               	movlw	0
  5996  00549A  143C               	andwf	(___flge@ff1+1)^0,w,c
  5997  00549C  6E44               	movwf	(??___flge+1)^0,c
  5998  00549E  0E80               	movlw	128
  5999  0054A0  143D               	andwf	(___flge@ff1+2)^0,w,c
  6000  0054A2  6E45               	movwf	(??___flge+2)^0,c
  6001  0054A4  0E7F               	movlw	127
  6002  0054A6  143E               	andwf	(___flge@ff1+3)^0,w,c
  6003  0054A8  6E46               	movwf	(??___flge+3)^0,c
  6004  0054AA  5043               	movf	??___flge^0,w,c
  6005  0054AC  1044               	iorwf	(??___flge+1)^0,w,c
  6006  0054AE  1045               	iorwf	(??___flge+2)^0,w,c
  6007  0054B0  1046               	iorwf	(??___flge+3)^0,w,c
  6008  0054B2  A4D8               	btfss	status,2,c
  6009  0054B4  EF5E  F02A         	goto	u2871
  6010  0054B8  EF60  F02A         	goto	u2870
  6011  0054BC                     u2871:
  6012  0054BC  EF68  F02A         	goto	l3167
  6013  0054C0                     u2870:
  6014  0054C0  0E00               	movlw	0
  6015  0054C2  6E3B               	movwf	___flge@ff1^0,c
  6016  0054C4  0E00               	movlw	0
  6017  0054C6  6E3C               	movwf	(___flge@ff1+1)^0,c
  6018  0054C8  0E00               	movlw	0
  6019  0054CA  6E3D               	movwf	(___flge@ff1+2)^0,c
  6020  0054CC  0E00               	movlw	0
  6021  0054CE  6E3E               	movwf	(___flge@ff1+3)^0,c
  6022  0054D0                     l3167:
  6023  0054D0  0E00               	movlw	0
  6024  0054D2  143F               	andwf	___flge@ff2^0,w,c
  6025  0054D4  6E43               	movwf	??___flge^0,c
  6026  0054D6  0E00               	movlw	0
  6027  0054D8  1440               	andwf	(___flge@ff2+1)^0,w,c
  6028  0054DA  6E44               	movwf	(??___flge+1)^0,c
  6029  0054DC  0E80               	movlw	128
  6030  0054DE  1441               	andwf	(___flge@ff2+2)^0,w,c
  6031  0054E0  6E45               	movwf	(??___flge+2)^0,c
  6032  0054E2  0E7F               	movlw	127
  6033  0054E4  1442               	andwf	(___flge@ff2+3)^0,w,c
  6034  0054E6  6E46               	movwf	(??___flge+3)^0,c
  6035  0054E8  5043               	movf	??___flge^0,w,c
  6036  0054EA  1044               	iorwf	(??___flge+1)^0,w,c
  6037  0054EC  1045               	iorwf	(??___flge+2)^0,w,c
  6038  0054EE  1046               	iorwf	(??___flge+3)^0,w,c
  6039  0054F0  A4D8               	btfss	status,2,c
  6040  0054F2  EF7D  F02A         	goto	u2881
  6041  0054F6  EF7F  F02A         	goto	u2880
  6042  0054FA                     u2881:
  6043  0054FA  EF87  F02A         	goto	l3171
  6044  0054FE                     u2880:
  6045  0054FE  0E00               	movlw	0
  6046  005500  6E3F               	movwf	___flge@ff2^0,c
  6047  005502  0E00               	movlw	0
  6048  005504  6E40               	movwf	(___flge@ff2+1)^0,c
  6049  005506  0E00               	movlw	0
  6050  005508  6E41               	movwf	(___flge@ff2+2)^0,c
  6051  00550A  0E00               	movlw	0
  6052  00550C  6E42               	movwf	(___flge@ff2+3)^0,c
  6053  00550E                     l3171:
  6054  00550E  AE3E               	btfss	(___flge@ff1+3)^0,7,c
  6055  005510  EF8C  F02A         	goto	u2891
  6056  005514  EF8E  F02A         	goto	u2890
  6057  005518                     u2891:
  6058  005518  EF97  F02A         	goto	l3175
  6059  00551C                     u2890:
  6060  00551C  6C3B               	negf	___flge@ff1^0,c
  6061  00551E  1E3C               	comf	(___flge@ff1+1)^0,f,c
  6062  005520  B0D8               	btfsc	status,0,c
  6063  005522  2A3C               	incf	(___flge@ff1+1)^0,f,c
  6064  005524  1E3D               	comf	(___flge@ff1+2)^0,f,c
  6065  005526  B0D8               	btfsc	status,0,c
  6066  005528  2A3D               	incf	(___flge@ff1+2)^0,f,c
  6067  00552A  0E80               	movlw	128
  6068  00552C  563E               	subfwb	(___flge@ff1+3)^0,f,c
  6069  00552E                     l3175:
  6070  00552E  AE42               	btfss	(___flge@ff2+3)^0,7,c
  6071  005530  EF9C  F02A         	goto	u2901
  6072  005534  EF9E  F02A         	goto	u2900
  6073  005538                     u2901:
  6074  005538  EFA7  F02A         	goto	l702
  6075  00553C                     u2900:
  6076  00553C  6C3F               	negf	___flge@ff2^0,c
  6077  00553E  1E40               	comf	(___flge@ff2+1)^0,f,c
  6078  005540  B0D8               	btfsc	status,0,c
  6079  005542  2A40               	incf	(___flge@ff2+1)^0,f,c
  6080  005544  1E41               	comf	(___flge@ff2+2)^0,f,c
  6081  005546  B0D8               	btfsc	status,0,c
  6082  005548  2A41               	incf	(___flge@ff2+2)^0,f,c
  6083  00554A  0E80               	movlw	128
  6084  00554C  5642               	subfwb	(___flge@ff2+3)^0,f,c
  6085  00554E                     l702:
  6086  00554E  0E00               	movlw	0
  6087  005550  1A3B               	xorwf	___flge@ff1^0,f,c
  6088  005552  0E00               	movlw	0
  6089  005554  1A3C               	xorwf	(___flge@ff1+1)^0,f,c
  6090  005556  0E00               	movlw	0
  6091  005558  1A3D               	xorwf	(___flge@ff1+2)^0,f,c
  6092  00555A  0E80               	movlw	128
  6093  00555C  1A3E               	xorwf	(___flge@ff1+3)^0,f,c
  6094  00555E  0E00               	movlw	0
  6095  005560  1A3F               	xorwf	___flge@ff2^0,f,c
  6096  005562  0E00               	movlw	0
  6097  005564  1A40               	xorwf	(___flge@ff2+1)^0,f,c
  6098  005566  0E00               	movlw	0
  6099  005568  1A41               	xorwf	(___flge@ff2+2)^0,f,c
  6100  00556A  0E80               	movlw	128
  6101  00556C  1A42               	xorwf	(___flge@ff2+3)^0,f,c
  6102  00556E  503F               	movf	___flge@ff2^0,w,c
  6103  005570  5C3B               	subwf	___flge@ff1^0,w,c
  6104  005572  5040               	movf	(___flge@ff2+1)^0,w,c
  6105  005574  583C               	subwfb	(___flge@ff1+1)^0,w,c
  6106  005576  5041               	movf	(___flge@ff2+2)^0,w,c
  6107  005578  583D               	subwfb	(___flge@ff1+2)^0,w,c
  6108  00557A  5042               	movf	(___flge@ff2+3)^0,w,c
  6109  00557C  583E               	subwfb	(___flge@ff1+3)^0,w,c
  6110  00557E  B0D8               	btfsc	status,0,c
  6111  005580  EFC4  F02A         	goto	u2911
  6112  005584  EFC6  F02A         	goto	u2910
  6113  005588                     u2911:
  6114  005588  EFC9  F02A         	goto	l3181
  6115  00558C                     u2910:
  6116  00558C  90D8               	bcf	status,0,c
  6117  00558E  EFCA  F02A         	goto	l707
  6118  005592                     l3181:
  6119  005592  80D8               	bsf	status,0,c
  6120  005594                     l707:
  6121  005594  0012               	return		;funcret
  6122  005596                     __end_of___flge:
  6123                           	opt callstack 0
  6124                           
  6125 ;; *************** function _scalbnf *****************
  6126 ;; Defined at:
  6127 ;;		line 4 in file "C:\Program Files (x86)\Microchip\xc8\v2.10\pic\sources\c99\common\scalbnf.c"
  6128 ;; Parameters:    Size  Location     Type
  6129 ;;  x               4   50[COMRAM] float 
  6130 ;;  n               2   54[COMRAM] int 
  6131 ;; Auto vars:     Size  Location     Type
  6132 ;;  y               4   64[COMRAM] float 
  6133 ;;  u               4   60[COMRAM] struct .
  6134 ;; Return value:  Size  Location     Type
  6135 ;;                  4   50[COMRAM] float 
  6136 ;; Registers used:
  6137 ;;		wreg, status,2, status,0, prodl, prodh, cstack
  6138 ;; Tracked objects:
  6139 ;;		On entry : 0/0
  6140 ;;		On exit  : 0/0
  6141 ;;		Unchanged: 0/0
  6142 ;; Data sizes:     COMRAM   BANK0   BANK1   BANK2   BANK3   BANK4   BANK5   BANK6   BANK7   BANK8   BANK9  BANK10  BANK1
      +1  BANK12  BANK13  BANK14  BANK15
  6143 ;;      Params:         6       0       0       0       0       0       0       0       0       0       0       0       
      +0       0       0       0       0
  6144 ;;      Locals:         8       0       0       0       0       0       0       0       0       0       0       0       
      +0       0       0       0       0
  6145 ;;      Temps:          4       0       0       0       0       0       0       0       0       0       0       0       
      +0       0       0       0       0
  6146 ;;      Totals:        18       0       0       0       0       0       0       0       0       0       0       0       
      +0       0       0       0       0
  6147 ;;Total ram usage:       18 bytes
  6148 ;; Hardware stack levels used:    1
  6149 ;; Hardware stack levels required when called:    4
  6150 ;; This function calls:
  6151 ;;		___flmul
  6152 ;; This function is called by:
  6153 ;;		_powf
  6154 ;; This function uses a non-reentrant model
  6155 ;;
  6156                           
  6157                           	psect	text7
  6158  004E5C                     __ptext7:
  6159                           	opt callstack 0
  6160  004E5C                     _scalbnf:
  6161                           	opt callstack 23
  6162  004E5C  C033  F041         	movff	scalbnf@x,scalbnf@y
  6163  004E60  C034  F042         	movff	scalbnf@x+1,scalbnf@y+1
  6164  004E64  C035  F043         	movff	scalbnf@x+2,scalbnf@y+2
  6165  004E68  C036  F044         	movff	scalbnf@x+3,scalbnf@y+3
  6166  004E6C  BE38               	btfsc	(scalbnf@n+1)^0,7,c
  6167  004E6E  EF42  F027         	goto	u3401
  6168  004E72  5038               	movf	(scalbnf@n+1)^0,w,c
  6169  004E74  E109               	bnz	u3400
  6170  004E76  0E80               	movlw	128
  6171  004E78  5C37               	subwf	scalbnf@n^0,w,c
  6172  004E7A  A0D8               	btfss	status,0,c
  6173  004E7C  EF42  F027         	goto	u3401
  6174  004E80  EF44  F027         	goto	u3400
  6175  004E84                     u3401:
  6176  004E84  EFA2  F027         	goto	l3491
  6177  004E88                     u3400:
  6178  004E88  C041  F01A         	movff	scalbnf@y,___flmul@b
  6179  004E8C  C042  F01B         	movff	scalbnf@y+1,___flmul@b+1
  6180  004E90  C043  F01C         	movff	scalbnf@y+2,___flmul@b+2
  6181  004E94  C044  F01D         	movff	scalbnf@y+3,___flmul@b+3
  6182  004E98  0E00               	movlw	0
  6183  004E9A  6E1E               	movwf	___flmul@a^0,c
  6184  004E9C  0E00               	movlw	0
  6185  004E9E  6E1F               	movwf	(___flmul@a+1)^0,c
  6186  004EA0  0E00               	movlw	0
  6187  004EA2  6E20               	movwf	(___flmul@a+2)^0,c
  6188  004EA4  0E7F               	movlw	127
  6189  004EA6  6E21               	movwf	(___flmul@a+3)^0,c
  6190  004EA8  EC19  F022         	call	___flmul	;wreg free
  6191  004EAC  C01A  F041         	movff	?___flmul,scalbnf@y
  6192  004EB0  C01B  F042         	movff	?___flmul+1,scalbnf@y+1
  6193  004EB4  C01C  F043         	movff	?___flmul+2,scalbnf@y+2
  6194  004EB8  C01D  F044         	movff	?___flmul+3,scalbnf@y+3
  6195  004EBC  0E81               	movlw	129
  6196  004EBE  2637               	addwf	scalbnf@n^0,f,c
  6197  004EC0  0EFF               	movlw	255
  6198  004EC2  2238               	addwfc	(scalbnf@n+1)^0,f,c
  6199  004EC4  BE38               	btfsc	(scalbnf@n+1)^0,7,c
  6200  004EC6  EF6E  F027         	goto	u3411
  6201  004ECA  5038               	movf	(scalbnf@n+1)^0,w,c
  6202  004ECC  E109               	bnz	u3410
  6203  004ECE  0E80               	movlw	128
  6204  004ED0  5C37               	subwf	scalbnf@n^0,w,c
  6205  004ED2  A0D8               	btfss	status,0,c
  6206  004ED4  EF6E  F027         	goto	u3411
  6207  004ED8  EF70  F027         	goto	u3410
  6208  004EDC                     u3411:
  6209  004EDC  EF0C  F028         	goto	l3507
  6210  004EE0                     u3410:
  6211  004EE0  C041  F01A         	movff	scalbnf@y,___flmul@b
  6212  004EE4  C042  F01B         	movff	scalbnf@y+1,___flmul@b+1
  6213  004EE8  C043  F01C         	movff	scalbnf@y+2,___flmul@b+2
  6214  004EEC  C044  F01D         	movff	scalbnf@y+3,___flmul@b+3
  6215  004EF0  0E00               	movlw	0
  6216  004EF2  6E1E               	movwf	___flmul@a^0,c
  6217  004EF4  0E00               	movlw	0
  6218  004EF6  6E1F               	movwf	(___flmul@a+1)^0,c
  6219  004EF8  0E00               	movlw	0
  6220  004EFA  6E20               	movwf	(___flmul@a+2)^0,c
  6221  004EFC  0E7F               	movlw	127
  6222  004EFE  6E21               	movwf	(___flmul@a+3)^0,c
  6223  004F00  EC19  F022         	call	___flmul	;wreg free
  6224  004F04  C01A  F041         	movff	?___flmul,scalbnf@y
  6225  004F08  C01B  F042         	movff	?___flmul+1,scalbnf@y+1
  6226  004F0C  C01C  F043         	movff	?___flmul+2,scalbnf@y+2
  6227  004F10  C01D  F044         	movff	?___flmul+3,scalbnf@y+3
  6228  004F14  0E81               	movlw	129
  6229  004F16  2637               	addwf	scalbnf@n^0,f,c
  6230  004F18  0EFF               	movlw	255
  6231  004F1A  2238               	addwfc	(scalbnf@n+1)^0,f,c
  6232  004F1C  BE38               	btfsc	(scalbnf@n+1)^0,7,c
  6233  004F1E  EF9A  F027         	goto	u3421
  6234  004F22  5038               	movf	(scalbnf@n+1)^0,w,c
  6235  004F24  E109               	bnz	u3420
  6236  004F26  0E80               	movlw	128
  6237  004F28  5C37               	subwf	scalbnf@n^0,w,c
  6238  004F2A  A0D8               	btfss	status,0,c
  6239  004F2C  EF9A  F027         	goto	u3421
  6240  004F30  EF9C  F027         	goto	u3420
  6241  004F34                     u3421:
  6242  004F34  EF0C  F028         	goto	l3507
  6243  004F38                     u3420:
  6244  004F38  0E00               	movlw	0
  6245  004F3A  6E38               	movwf	(scalbnf@n+1)^0,c
  6246  004F3C  0E7F               	movlw	127
  6247  004F3E  6E37               	movwf	scalbnf@n^0,c
  6248  004F40  EF0C  F028         	goto	l3507
  6249  004F44                     l3491:
  6250  004F44  AE38               	btfss	(scalbnf@n+1)^0,7,c
  6251  004F46  EFAE  F027         	goto	u3431
  6252  004F4A  0E82               	movlw	130
  6253  004F4C  5C37               	subwf	scalbnf@n^0,w,c
  6254  004F4E  0EFF               	movlw	255
  6255  004F50  5838               	subwfb	(scalbnf@n+1)^0,w,c
  6256  004F52  B0D8               	btfsc	status,0,c
  6257  004F54  EFAE  F027         	goto	u3431
  6258  004F58  EFB0  F027         	goto	u3430
  6259  004F5C                     u3431:
  6260  004F5C  EF0C  F028         	goto	l3507
  6261  004F60                     u3430:
  6262  004F60  C041  F01A         	movff	scalbnf@y,___flmul@b
  6263  004F64  C042  F01B         	movff	scalbnf@y+1,___flmul@b+1
  6264  004F68  C043  F01C         	movff	scalbnf@y+2,___flmul@b+2
  6265  004F6C  C044  F01D         	movff	scalbnf@y+3,___flmul@b+3
  6266  004F70  0E00               	movlw	0
  6267  004F72  6E1E               	movwf	___flmul@a^0,c
  6268  004F74  0E00               	movlw	0
  6269  004F76  6E1F               	movwf	(___flmul@a+1)^0,c
  6270  004F78  0E80               	movlw	128
  6271  004F7A  6E20               	movwf	(___flmul@a+2)^0,c
  6272  004F7C  0E0C               	movlw	12
  6273  004F7E  6E21               	movwf	(___flmul@a+3)^0,c
  6274  004F80  EC19  F022         	call	___flmul	;wreg free
  6275  004F84  C01A  F041         	movff	?___flmul,scalbnf@y
  6276  004F88  C01B  F042         	movff	?___flmul+1,scalbnf@y+1
  6277  004F8C  C01C  F043         	movff	?___flmul+2,scalbnf@y+2
  6278  004F90  C01D  F044         	movff	?___flmul+3,scalbnf@y+3
  6279  004F94  0E66               	movlw	102
  6280  004F96  2637               	addwf	scalbnf@n^0,f,c
  6281  004F98  0E00               	movlw	0
  6282  004F9A  2238               	addwfc	(scalbnf@n+1)^0,f,c
  6283  004F9C  AE38               	btfss	(scalbnf@n+1)^0,7,c
  6284  004F9E  EFDA  F027         	goto	u3441
  6285  004FA2  0E82               	movlw	130
  6286  004FA4  5C37               	subwf	scalbnf@n^0,w,c
  6287  004FA6  0EFF               	movlw	255
  6288  004FA8  5838               	subwfb	(scalbnf@n+1)^0,w,c
  6289  004FAA  B0D8               	btfsc	status,0,c
  6290  004FAC  EFDA  F027         	goto	u3441
  6291  004FB0  EFDC  F027         	goto	u3440
  6292  004FB4                     u3441:
  6293  004FB4  EF0C  F028         	goto	l3507
  6294  004FB8                     u3440:
  6295  004FB8  C041  F01A         	movff	scalbnf@y,___flmul@b
  6296  004FBC  C042  F01B         	movff	scalbnf@y+1,___flmul@b+1
  6297  004FC0  C043  F01C         	movff	scalbnf@y+2,___flmul@b+2
  6298  004FC4  C044  F01D         	movff	scalbnf@y+3,___flmul@b+3
  6299  004FC8  0E00               	movlw	0
  6300  004FCA  6E1E               	movwf	___flmul@a^0,c
  6301  004FCC  0E00               	movlw	0
  6302  004FCE  6E1F               	movwf	(___flmul@a+1)^0,c
  6303  004FD0  0E80               	movlw	128
  6304  004FD2  6E20               	movwf	(___flmul@a+2)^0,c
  6305  004FD4  0E0C               	movlw	12
  6306  004FD6  6E21               	movwf	(___flmul@a+3)^0,c
  6307  004FD8  EC19  F022         	call	___flmul	;wreg free
  6308  004FDC  C01A  F041         	movff	?___flmul,scalbnf@y
  6309  004FE0  C01B  F042         	movff	?___flmul+1,scalbnf@y+1
  6310  004FE4  C01C  F043         	movff	?___flmul+2,scalbnf@y+2
  6311  004FE8  C01D  F044         	movff	?___flmul+3,scalbnf@y+3
  6312  004FEC  0E66               	movlw	102
  6313  004FEE  2637               	addwf	scalbnf@n^0,f,c
  6314  004FF0  0E00               	movlw	0
  6315  004FF2  2238               	addwfc	(scalbnf@n+1)^0,f,c
  6316  004FF4  AE38               	btfss	(scalbnf@n+1)^0,7,c
  6317  004FF6  EF06  F028         	goto	u3451
  6318  004FFA  0E82               	movlw	130
  6319  004FFC  5C37               	subwf	scalbnf@n^0,w,c
  6320  004FFE  0EFF               	movlw	255
  6321  005000  5838               	subwfb	(scalbnf@n+1)^0,w,c
  6322  005002  B0D8               	btfsc	status,0,c
  6323  005004  EF06  F028         	goto	u3451
  6324  005008  EF08  F028         	goto	u3450
  6325  00500C                     u3451:
  6326  00500C  EF0C  F028         	goto	l3507
  6327  005010                     u3450:
  6328  005010  0EFF               	movlw	255
  6329  005012  6E38               	movwf	(scalbnf@n+1)^0,c
  6330  005014  0E82               	movlw	130
  6331  005016  6E37               	movwf	scalbnf@n^0,c
  6332  005018                     l3507:
  6333  005018  0E7F               	movlw	127
  6334  00501A  2437               	addwf	scalbnf@n^0,w,c
  6335  00501C  6E39               	movwf	??_scalbnf^0,c
  6336  00501E  0E00               	movlw	0
  6337  005020  2038               	addwfc	(scalbnf@n+1)^0,w,c
  6338  005022  6E3A               	movwf	(??_scalbnf+1)^0,c
  6339  005024  6A3B               	clrf	(??_scalbnf+2)^0,c
  6340  005026  6A3C               	clrf	(??_scalbnf+3)^0,c
  6341  005028  0E17               	movlw	23
  6342  00502A                     u3465:
  6343  00502A  90D8               	bcf	status,0,c
  6344  00502C  3639               	rlcf	??_scalbnf^0,f,c
  6345  00502E  363A               	rlcf	(??_scalbnf+1)^0,f,c
  6346  005030  363B               	rlcf	(??_scalbnf+2)^0,f,c
  6347  005032  363C               	rlcf	(??_scalbnf+3)^0,f,c
  6348  005034  2EE8               	decfsz	wreg,f,c
  6349  005036  EF15  F028         	goto	u3465
  6350  00503A  C039  F03D         	movff	??_scalbnf,scalbnf@u
  6351  00503E  C03A  F03E         	movff	??_scalbnf+1,scalbnf@u+1
  6352  005042  C03B  F03F         	movff	??_scalbnf+2,scalbnf@u+2
  6353  005046  C03C  F040         	movff	??_scalbnf+3,scalbnf@u+3
  6354  00504A  C03D  F01A         	movff	scalbnf@u,___flmul@b
  6355  00504E  C03E  F01B         	movff	scalbnf@u+1,___flmul@b+1
  6356  005052  C03F  F01C         	movff	scalbnf@u+2,___flmul@b+2
  6357  005056  C040  F01D         	movff	scalbnf@u+3,___flmul@b+3
  6358  00505A  C041  F01E         	movff	scalbnf@y,___flmul@a
  6359  00505E  C042  F01F         	movff	scalbnf@y+1,___flmul@a+1
  6360  005062  C043  F020         	movff	scalbnf@y+2,___flmul@a+2
  6361  005066  C044  F021         	movff	scalbnf@y+3,___flmul@a+3
  6362  00506A  EC19  F022         	call	___flmul	;wreg free
  6363  00506E  C01A  F033         	movff	?___flmul,scalbnf@x
  6364  005072  C01B  F034         	movff	?___flmul+1,scalbnf@x+1
  6365  005076  C01C  F035         	movff	?___flmul+2,scalbnf@x+2
  6366  00507A  C01D  F036         	movff	?___flmul+3,scalbnf@x+3
  6367  00507E  C033  F033         	movff	scalbnf@x,?_scalbnf
  6368  005082  C034  F034         	movff	scalbnf@x+1,?_scalbnf+1
  6369  005086  C035  F035         	movff	scalbnf@x+2,?_scalbnf+2
  6370  00508A  C036  F036         	movff	scalbnf@x+3,?_scalbnf+3
  6371  00508E  0012               	return		;funcret
  6372  005090                     __end_of_scalbnf:
  6373                           	opt callstack 0
  6374                           
  6375 ;; *************** function ___flmul *****************
  6376 ;; Defined at:
  6377 ;;		line 8 in file "C:\Program Files (x86)\Microchip\xc8\v2.10\pic\sources\c99\common\sprcmul.c"
  6378 ;; Parameters:    Size  Location     Type
  6379 ;;  b               4   25[COMRAM] float 
  6380 ;;  a               4   29[COMRAM] float 
  6381 ;; Auto vars:     Size  Location     Type
  6382 ;;  prod            4   44[COMRAM] struct .
  6383 ;;  grs             4   38[COMRAM] unsigned long 
  6384 ;;  temp            2   48[COMRAM] struct .
  6385 ;;  bexp            1   43[COMRAM] unsigned char 
  6386 ;;  aexp            1   42[COMRAM] unsigned char 
  6387 ;;  sign            1   37[COMRAM] unsigned char 
  6388 ;; Return value:  Size  Location     Type
  6389 ;;                  4   25[COMRAM] unsigned char 
  6390 ;; Registers used:
  6391 ;;		wreg, status,2, status,0, prodl, prodh
  6392 ;; Tracked objects:
  6393 ;;		On entry : 0/0
  6394 ;;		On exit  : 0/0
  6395 ;;		Unchanged: 0/0
  6396 ;; Data sizes:     COMRAM   BANK0   BANK1   BANK2   BANK3   BANK4   BANK5   BANK6   BANK7   BANK8   BANK9  BANK10  BANK1
      +1  BANK12  BANK13  BANK14  BANK15
  6397 ;;      Params:         8       0       0       0       0       0       0       0       0       0       0       0       
      +0       0       0       0       0
  6398 ;;      Locals:        13       0       0       0       0       0       0       0       0       0       0       0       
      +0       0       0       0       0
  6399 ;;      Temps:          4       0       0       0       0       0       0       0       0       0       0       0       
      +0       0       0       0       0
  6400 ;;      Totals:        25       0       0       0       0       0       0       0       0       0       0       0       
      +0       0       0       0       0
  6401 ;;Total ram usage:       25 bytes
  6402 ;; Hardware stack levels used:    1
  6403 ;; Hardware stack levels required when called:    3
  6404 ;; This function calls:
  6405 ;;		Nothing
  6406 ;; This function is called by:
  6407 ;;		_preCalculate
  6408 ;;		_powf
  6409 ;;		_scalbnf
  6410 ;;		_sqrtf
  6411 ;; This function uses a non-reentrant model
  6412 ;;
  6413                           
  6414                           	psect	text8
  6415  004432                     __ptext8:
  6416                           	opt callstack 0
  6417  004432                     ___flmul:
  6418                           	opt callstack 23
  6419  004432  501D               	movf	(___flmul@b+3)^0,w,c
  6420  004434  0B80               	andlw	128
  6421  004436  6E26               	movwf	___flmul@sign^0,c
  6422  004438  501D               	movf	(___flmul@b+3)^0,w,c
  6423  00443A  241D               	addwf	(___flmul@b+3)^0,w,c
  6424  00443C  6E2C               	movwf	___flmul@bexp^0,c
  6425  00443E  AE1C               	btfss	(___flmul@b+2)^0,7,c
  6426  004440  EF24  F022         	goto	u2681
  6427  004444  EF26  F022         	goto	u2680
  6428  004448                     u2681:
  6429  004448  EF27  F022         	goto	l3039
  6430  00444C                     u2680:
  6431  00444C  802C               	bsf	___flmul@bexp^0,0,c
  6432  00444E                     l3039:
  6433  00444E  502C               	movf	___flmul@bexp^0,w,c
  6434  004450  B4D8               	btfsc	status,2,c
  6435  004452  EF2D  F022         	goto	u2691
  6436  004456  EF2F  F022         	goto	u2690
  6437  00445A                     u2691:
  6438  00445A  EF42  F022         	goto	l3047
  6439  00445E                     u2690:
  6440  00445E  282C               	incf	___flmul@bexp^0,w,c
  6441  004460  A4D8               	btfss	status,2,c
  6442  004462  EF35  F022         	goto	u2701
  6443  004466  EF37  F022         	goto	u2700
  6444  00446A                     u2701:
  6445  00446A  EF3F  F022         	goto	l3045
  6446  00446E                     u2700:
  6447  00446E  0E00               	movlw	0
  6448  004470  6E1A               	movwf	___flmul@b^0,c
  6449  004472  0E00               	movlw	0
  6450  004474  6E1B               	movwf	(___flmul@b+1)^0,c
  6451  004476  0E00               	movlw	0
  6452  004478  6E1C               	movwf	(___flmul@b+2)^0,c
  6453  00447A  0E00               	movlw	0
  6454  00447C  6E1D               	movwf	(___flmul@b+3)^0,c
  6455  00447E                     l3045:
  6456  00447E  8E1C               	bsf	(___flmul@b+2)^0,7,c
  6457  004480  EF4A  F022         	goto	l3049
  6458  004484                     l3047:
  6459  004484  0E00               	movlw	0
  6460  004486  6E1A               	movwf	___flmul@b^0,c
  6461  004488  0E00               	movlw	0
  6462  00448A  6E1B               	movwf	(___flmul@b+1)^0,c
  6463  00448C  0E00               	movlw	0
  6464  00448E  6E1C               	movwf	(___flmul@b+2)^0,c
  6465  004490  0E00               	movlw	0
  6466  004492  6E1D               	movwf	(___flmul@b+3)^0,c
  6467  004494                     l3049:
  6468  004494  5021               	movf	(___flmul@a+3)^0,w,c
  6469  004496  0B80               	andlw	128
  6470  004498  1A26               	xorwf	___flmul@sign^0,f,c
  6471  00449A  5021               	movf	(___flmul@a+3)^0,w,c
  6472  00449C  2421               	addwf	(___flmul@a+3)^0,w,c
  6473  00449E  6E2B               	movwf	___flmul@aexp^0,c
  6474  0044A0  AE20               	btfss	(___flmul@a+2)^0,7,c
  6475  0044A2  EF55  F022         	goto	u2711
  6476  0044A6  EF57  F022         	goto	u2710
  6477  0044AA                     u2711:
  6478  0044AA  EF58  F022         	goto	l3057
  6479  0044AE                     u2710:
  6480  0044AE  802B               	bsf	___flmul@aexp^0,0,c
  6481  0044B0                     l3057:
  6482  0044B0  502B               	movf	___flmul@aexp^0,w,c
  6483  0044B2  B4D8               	btfsc	status,2,c
  6484  0044B4  EF5E  F022         	goto	u2721
  6485  0044B8  EF60  F022         	goto	u2720
  6486  0044BC                     u2721:
  6487  0044BC  EF73  F022         	goto	l3065
  6488  0044C0                     u2720:
  6489  0044C0  282B               	incf	___flmul@aexp^0,w,c
  6490  0044C2  A4D8               	btfss	status,2,c
  6491  0044C4  EF66  F022         	goto	u2731
  6492  0044C8  EF68  F022         	goto	u2730
  6493  0044CC                     u2731:
  6494  0044CC  EF70  F022         	goto	l3063
  6495  0044D0                     u2730:
  6496  0044D0  0E00               	movlw	0
  6497  0044D2  6E1E               	movwf	___flmul@a^0,c
  6498  0044D4  0E00               	movlw	0
  6499  0044D6  6E1F               	movwf	(___flmul@a+1)^0,c
  6500  0044D8  0E00               	movlw	0
  6501  0044DA  6E20               	movwf	(___flmul@a+2)^0,c
  6502  0044DC  0E00               	movlw	0
  6503  0044DE  6E21               	movwf	(___flmul@a+3)^0,c
  6504  0044E0                     l3063:
  6505  0044E0  8E20               	bsf	(___flmul@a+2)^0,7,c
  6506  0044E2  EF7B  F022         	goto	l1051
  6507  0044E6                     l3065:
  6508  0044E6  0E00               	movlw	0
  6509  0044E8  6E1E               	movwf	___flmul@a^0,c
  6510  0044EA  0E00               	movlw	0
  6511  0044EC  6E1F               	movwf	(___flmul@a+1)^0,c
  6512  0044EE  0E00               	movlw	0
  6513  0044F0  6E20               	movwf	(___flmul@a+2)^0,c
  6514  0044F2  0E00               	movlw	0
  6515  0044F4  6E21               	movwf	(___flmul@a+3)^0,c
  6516  0044F6                     l1051:
  6517  0044F6  502B               	movf	___flmul@aexp^0,w,c
  6518  0044F8  B4D8               	btfsc	status,2,c
  6519  0044FA  EF81  F022         	goto	u2741
  6520  0044FE  EF83  F022         	goto	u2740
  6521  004502                     u2741:
  6522  004502  EF8B  F022         	goto	l3069
  6523  004506                     u2740:
  6524  004506  502C               	movf	___flmul@bexp^0,w,c
  6525  004508  A4D8               	btfss	status,2,c
  6526  00450A  EF89  F022         	goto	u2751
  6527  00450E  EF8B  F022         	goto	u2750
  6528  004512                     u2751:
  6529  004512  EF95  F022         	goto	l3073
  6530  004516                     u2750:
  6531  004516                     l3069:
  6532  004516  0E00               	movlw	0
  6533  004518  6E1A               	movwf	?___flmul^0,c
  6534  00451A  0E00               	movlw	0
  6535  00451C  6E1B               	movwf	(?___flmul+1)^0,c
  6536  00451E  0E00               	movlw	0
  6537  004520  6E1C               	movwf	(?___flmul+2)^0,c
  6538  004522  0E00               	movlw	0
  6539  004524  6E1D               	movwf	(?___flmul+3)^0,c
  6540  004526  EF2D  F024         	goto	l1055
  6541  00452A                     l3073:
  6542  00452A  5020               	movf	(___flmul@a+2)^0,w,c
  6543  00452C  021A               	mulwf	___flmul@b^0,c
  6544  00452E  CFF3 F031          	movff	prodl,___flmul@temp
  6545  004532  CFF4 F032          	movff	prodh,___flmul@temp+1
  6546  004536  5031               	movf	___flmul@temp^0,w,c
  6547  004538  6E27               	movwf	___flmul@grs^0,c
  6548  00453A  6A28               	clrf	(___flmul@grs+1)^0,c
  6549  00453C  6A29               	clrf	(___flmul@grs+2)^0,c
  6550  00453E  6A2A               	clrf	(___flmul@grs+3)^0,c
  6551  004540  5032               	movf	(___flmul@temp+1)^0,w,c
  6552  004542  6E2D               	movwf	___flmul@prod^0,c
  6553  004544  6A2E               	clrf	(___flmul@prod+1)^0,c
  6554  004546  6A2F               	clrf	(___flmul@prod+2)^0,c
  6555  004548  6A30               	clrf	(___flmul@prod+3)^0,c
  6556  00454A  501F               	movf	(___flmul@a+1)^0,w,c
  6557  00454C  021B               	mulwf	(___flmul@b+1)^0,c
  6558  00454E  CFF3 F031          	movff	prodl,___flmul@temp
  6559  004552  CFF4 F032          	movff	prodh,___flmul@temp+1
  6560  004556  5031               	movf	___flmul@temp^0,w,c
  6561  004558  2627               	addwf	___flmul@grs^0,f,c
  6562  00455A  0E00               	movlw	0
  6563  00455C  2228               	addwfc	(___flmul@grs+1)^0,f,c
  6564  00455E  2229               	addwfc	(___flmul@grs+2)^0,f,c
  6565  004560  222A               	addwfc	(___flmul@grs+3)^0,f,c
  6566  004562  5032               	movf	(___flmul@temp+1)^0,w,c
  6567  004564  262D               	addwf	___flmul@prod^0,f,c
  6568  004566  0E00               	movlw	0
  6569  004568  222E               	addwfc	(___flmul@prod+1)^0,f,c
  6570  00456A  222F               	addwfc	(___flmul@prod+2)^0,f,c
  6571  00456C  2230               	addwfc	(___flmul@prod+3)^0,f,c
  6572  00456E  501E               	movf	___flmul@a^0,w,c
  6573  004570  021C               	mulwf	(___flmul@b+2)^0,c
  6574  004572  CFF3 F031          	movff	prodl,___flmul@temp
  6575  004576  CFF4 F032          	movff	prodh,___flmul@temp+1
  6576  00457A  5031               	movf	___flmul@temp^0,w,c
  6577  00457C  2627               	addwf	___flmul@grs^0,f,c
  6578  00457E  0E00               	movlw	0
  6579  004580  2228               	addwfc	(___flmul@grs+1)^0,f,c
  6580  004582  2229               	addwfc	(___flmul@grs+2)^0,f,c
  6581  004584  222A               	addwfc	(___flmul@grs+3)^0,f,c
  6582  004586  5032               	movf	(___flmul@temp+1)^0,w,c
  6583  004588  262D               	addwf	___flmul@prod^0,f,c
  6584  00458A  0E00               	movlw	0
  6585  00458C  222E               	addwfc	(___flmul@prod+1)^0,f,c
  6586  00458E  222F               	addwfc	(___flmul@prod+2)^0,f,c
  6587  004590  2230               	addwfc	(___flmul@prod+3)^0,f,c
  6588  004592  C029  F02A         	movff	___flmul@grs+2,___flmul@grs+3
  6589  004596  C028  F029         	movff	___flmul@grs+1,___flmul@grs+2
  6590  00459A  C027  F028         	movff	___flmul@grs,___flmul@grs+1
  6591  00459E  6A27               	clrf	___flmul@grs^0,c
  6592  0045A0  501E               	movf	___flmul@a^0,w,c
  6593  0045A2  021B               	mulwf	(___flmul@b+1)^0,c
  6594  0045A4  CFF3 F031          	movff	prodl,___flmul@temp
  6595  0045A8  CFF4 F032          	movff	prodh,___flmul@temp+1
  6596  0045AC  5031               	movf	___flmul@temp^0,w,c
  6597  0045AE  2627               	addwf	___flmul@grs^0,f,c
  6598  0045B0  5032               	movf	(___flmul@temp+1)^0,w,c
  6599  0045B2  2228               	addwfc	(___flmul@grs+1)^0,f,c
  6600  0045B4  0E00               	movlw	0
  6601  0045B6  2229               	addwfc	(___flmul@grs+2)^0,f,c
  6602  0045B8  0E00               	movlw	0
  6603  0045BA  222A               	addwfc	(___flmul@grs+3)^0,f,c
  6604  0045BC  501F               	movf	(___flmul@a+1)^0,w,c
  6605  0045BE  021A               	mulwf	___flmul@b^0,c
  6606  0045C0  CFF3 F031          	movff	prodl,___flmul@temp
  6607  0045C4  CFF4 F032          	movff	prodh,___flmul@temp+1
  6608  0045C8  5031               	movf	___flmul@temp^0,w,c
  6609  0045CA  2627               	addwf	___flmul@grs^0,f,c
  6610  0045CC  5032               	movf	(___flmul@temp+1)^0,w,c
  6611  0045CE  2228               	addwfc	(___flmul@grs+1)^0,f,c
  6612  0045D0  0E00               	movlw	0
  6613  0045D2  2229               	addwfc	(___flmul@grs+2)^0,f,c
  6614  0045D4  0E00               	movlw	0
  6615  0045D6  222A               	addwfc	(___flmul@grs+3)^0,f,c
  6616  0045D8  C029  F02A         	movff	___flmul@grs+2,___flmul@grs+3
  6617  0045DC  C028  F029         	movff	___flmul@grs+1,___flmul@grs+2
  6618  0045E0  C027  F028         	movff	___flmul@grs,___flmul@grs+1
  6619  0045E4  6A27               	clrf	___flmul@grs^0,c
  6620  0045E6  501E               	movf	___flmul@a^0,w,c
  6621  0045E8  021A               	mulwf	___flmul@b^0,c
  6622  0045EA  CFF3 F031          	movff	prodl,___flmul@temp
  6623  0045EE  CFF4 F032          	movff	prodh,___flmul@temp+1
  6624  0045F2  5031               	movf	___flmul@temp^0,w,c
  6625  0045F4  2627               	addwf	___flmul@grs^0,f,c
  6626  0045F6  5032               	movf	(___flmul@temp+1)^0,w,c
  6627  0045F8  2228               	addwfc	(___flmul@grs+1)^0,f,c
  6628  0045FA  0E00               	movlw	0
  6629  0045FC  2229               	addwfc	(___flmul@grs+2)^0,f,c
  6630  0045FE  0E00               	movlw	0
  6631  004600  222A               	addwfc	(___flmul@grs+3)^0,f,c
  6632  004602  5020               	movf	(___flmul@a+2)^0,w,c
  6633  004604  021B               	mulwf	(___flmul@b+1)^0,c
  6634  004606  CFF3 F031          	movff	prodl,___flmul@temp
  6635  00460A  CFF4 F032          	movff	prodh,___flmul@temp+1
  6636  00460E  5031               	movf	___flmul@temp^0,w,c
  6637  004610  262D               	addwf	___flmul@prod^0,f,c
  6638  004612  5032               	movf	(___flmul@temp+1)^0,w,c
  6639  004614  222E               	addwfc	(___flmul@prod+1)^0,f,c
  6640  004616  0E00               	movlw	0
  6641  004618  222F               	addwfc	(___flmul@prod+2)^0,f,c
  6642  00461A  0E00               	movlw	0
  6643  00461C  2230               	addwfc	(___flmul@prod+3)^0,f,c
  6644  00461E  501F               	movf	(___flmul@a+1)^0,w,c
  6645  004620  021C               	mulwf	(___flmul@b+2)^0,c
  6646  004622  CFF3 F031          	movff	prodl,___flmul@temp
  6647  004626  CFF4 F032          	movff	prodh,___flmul@temp+1
  6648  00462A  5031               	movf	___flmul@temp^0,w,c
  6649  00462C  262D               	addwf	___flmul@prod^0,f,c
  6650  00462E  5032               	movf	(___flmul@temp+1)^0,w,c
  6651  004630  222E               	addwfc	(___flmul@prod+1)^0,f,c
  6652  004632  0E00               	movlw	0
  6653  004634  222F               	addwfc	(___flmul@prod+2)^0,f,c
  6654  004636  0E00               	movlw	0
  6655  004638  2230               	addwfc	(___flmul@prod+3)^0,f,c
  6656  00463A  5020               	movf	(___flmul@a+2)^0,w,c
  6657  00463C  021C               	mulwf	(___flmul@b+2)^0,c
  6658  00463E  CFF3 F031          	movff	prodl,___flmul@temp
  6659  004642  CFF4 F032          	movff	prodh,___flmul@temp+1
  6660  004646  5031               	movf	___flmul@temp^0,w,c
  6661  004648  6E22               	movwf	??___flmul^0,c
  6662  00464A  5032               	movf	(___flmul@temp+1)^0,w,c
  6663  00464C  6E23               	movwf	(??___flmul+1)^0,c
  6664  00464E  6A24               	clrf	(??___flmul+2)^0,c
  6665  004650  6A25               	clrf	(??___flmul+3)^0,c
  6666  004652  C024  F025         	movff	??___flmul+2,??___flmul+3
  6667  004656  C023  F024         	movff	??___flmul+1,??___flmul+2
  6668  00465A  C022  F023         	movff	??___flmul,??___flmul+1
  6669  00465E  6A22               	clrf	??___flmul^0,c
  6670  004660  5022               	movf	??___flmul^0,w,c
  6671  004662  262D               	addwf	___flmul@prod^0,f,c
  6672  004664  5023               	movf	(??___flmul+1)^0,w,c
  6673  004666  222E               	addwfc	(___flmul@prod+1)^0,f,c
  6674  004668  5024               	movf	(??___flmul+2)^0,w,c
  6675  00466A  222F               	addwfc	(___flmul@prod+2)^0,f,c
  6676  00466C  5025               	movf	(??___flmul+3)^0,w,c
  6677  00466E  2230               	addwfc	(___flmul@prod+3)^0,f,c
  6678  004670  C027  F022         	movff	___flmul@grs,??___flmul
  6679  004674  C028  F023         	movff	___flmul@grs+1,??___flmul+1
  6680  004678  C029  F024         	movff	___flmul@grs+2,??___flmul+2
  6681  00467C  C02A  F025         	movff	___flmul@grs+3,??___flmul+3
  6682  004680  0E19               	movlw	25
  6683  004682  EF48  F023         	goto	u2760
  6684  004686                     u2765:
  6685  004686  90D8               	bcf	status,0,c
  6686  004688  3225               	rrcf	(??___flmul+3)^0,f,c
  6687  00468A  3224               	rrcf	(??___flmul+2)^0,f,c
  6688  00468C  3223               	rrcf	(??___flmul+1)^0,f,c
  6689  00468E  3222               	rrcf	??___flmul^0,f,c
  6690  004690                     u2760:
  6691  004690  2EE8               	decfsz	wreg,f,c
  6692  004692  EF43  F023         	goto	u2765
  6693  004696  5022               	movf	??___flmul^0,w,c
  6694  004698  262D               	addwf	___flmul@prod^0,f,c
  6695  00469A  5023               	movf	(??___flmul+1)^0,w,c
  6696  00469C  222E               	addwfc	(___flmul@prod+1)^0,f,c
  6697  00469E  5024               	movf	(??___flmul+2)^0,w,c
  6698  0046A0  222F               	addwfc	(___flmul@prod+2)^0,f,c
  6699  0046A2  5025               	movf	(??___flmul+3)^0,w,c
  6700  0046A4  2230               	addwfc	(___flmul@prod+3)^0,f,c
  6701  0046A6  C029  F02A         	movff	___flmul@grs+2,___flmul@grs+3
  6702  0046AA  C028  F029         	movff	___flmul@grs+1,___flmul@grs+2
  6703  0046AE  C027  F028         	movff	___flmul@grs,___flmul@grs+1
  6704  0046B2  6A27               	clrf	___flmul@grs^0,c
  6705  0046B4  502B               	movf	___flmul@aexp^0,w,c
  6706  0046B6  C02C  F022         	movff	___flmul@bexp,??___flmul
  6707  0046BA  6A23               	clrf	(??___flmul+1)^0,c
  6708  0046BC  2622               	addwf	??___flmul^0,f,c
  6709  0046BE  0E00               	movlw	0
  6710  0046C0  2223               	addwfc	(??___flmul+1)^0,f,c
  6711  0046C2  0E82               	movlw	130
  6712  0046C4  2422               	addwf	??___flmul^0,w,c
  6713  0046C6  6E31               	movwf	___flmul@temp^0,c
  6714  0046C8  0EFF               	movlw	255
  6715  0046CA  2023               	addwfc	(??___flmul+1)^0,w,c
  6716  0046CC  6E32               	movwf	(___flmul@temp+1)^0,c
  6717  0046CE  EF7E  F023         	goto	l3121
  6718  0046D2                     l3115:
  6719  0046D2  90D8               	bcf	status,0,c
  6720  0046D4  362D               	rlcf	___flmul@prod^0,f,c
  6721  0046D6  362E               	rlcf	(___flmul@prod+1)^0,f,c
  6722  0046D8  362F               	rlcf	(___flmul@prod+2)^0,f,c
  6723  0046DA  3630               	rlcf	(___flmul@prod+3)^0,f,c
  6724  0046DC  AE2A               	btfss	(___flmul@grs+3)^0,7,c
  6725  0046DE  EF73  F023         	goto	u2771
  6726  0046E2  EF75  F023         	goto	u2770
  6727  0046E6                     u2771:
  6728  0046E6  EF76  F023         	goto	l1058
  6729  0046EA                     u2770:
  6730  0046EA  802D               	bsf	___flmul@prod^0,0,c
  6731  0046EC                     l1058:
  6732  0046EC  90D8               	bcf	status,0,c
  6733  0046EE  3627               	rlcf	___flmul@grs^0,f,c
  6734  0046F0  3628               	rlcf	(___flmul@grs+1)^0,f,c
  6735  0046F2  3629               	rlcf	(___flmul@grs+2)^0,f,c
  6736  0046F4  362A               	rlcf	(___flmul@grs+3)^0,f,c
  6737  0046F6  0631               	decf	___flmul@temp^0,f,c
  6738  0046F8  A0D8               	btfss	status,0,c
  6739  0046FA  0632               	decf	(___flmul@temp+1)^0,f,c
  6740  0046FC                     l3121:
  6741  0046FC  AE2F               	btfss	(___flmul@prod+2)^0,7,c
  6742  0046FE  EF83  F023         	goto	u2781
  6743  004702  EF85  F023         	goto	u2780
  6744  004706                     u2781:
  6745  004706  EF69  F023         	goto	l3115
  6746  00470A                     u2780:
  6747  00470A  0E00               	movlw	0
  6748  00470C  6E2B               	movwf	___flmul@aexp^0,c
  6749  00470E  AE2A               	btfss	(___flmul@grs+3)^0,7,c
  6750  004710  EF8C  F023         	goto	u2791
  6751  004714  EF8E  F023         	goto	u2790
  6752  004718                     u2791:
  6753  004718  EFB2  F023         	goto	l1060
  6754  00471C                     u2790:
  6755  00471C  0EFF               	movlw	255
  6756  00471E  1427               	andwf	___flmul@grs^0,w,c
  6757  004720  6E22               	movwf	??___flmul^0,c
  6758  004722  0EFF               	movlw	255
  6759  004724  1428               	andwf	(___flmul@grs+1)^0,w,c
  6760  004726  6E23               	movwf	(??___flmul+1)^0,c
  6761  004728  0EFF               	movlw	255
  6762  00472A  1429               	andwf	(___flmul@grs+2)^0,w,c
  6763  00472C  6E24               	movwf	(??___flmul+2)^0,c
  6764  00472E  0E7F               	movlw	127
  6765  004730  142A               	andwf	(___flmul@grs+3)^0,w,c
  6766  004732  6E25               	movwf	(??___flmul+3)^0,c
  6767  004734  5022               	movf	??___flmul^0,w,c
  6768  004736  1023               	iorwf	(??___flmul+1)^0,w,c
  6769  004738  1024               	iorwf	(??___flmul+2)^0,w,c
  6770  00473A  1025               	iorwf	(??___flmul+3)^0,w,c
  6771  00473C  B4D8               	btfsc	status,2,c
  6772  00473E  EFA3  F023         	goto	u2801
  6773  004742  EFA5  F023         	goto	u2800
  6774  004746                     u2801:
  6775  004746  EFA9  F023         	goto	l1061
  6776  00474A                     u2800:
  6777  00474A                     l3129:
  6778  00474A  0E01               	movlw	1
  6779  00474C  6E2B               	movwf	___flmul@aexp^0,c
  6780  00474E  EFB2  F023         	goto	l1060
  6781  004752                     l1061:
  6782  004752  A02D               	btfss	___flmul@prod^0,0,c
  6783  004754  EFAE  F023         	goto	u2811
  6784  004758  EFB0  F023         	goto	u2810
  6785  00475C                     u2811:
  6786  00475C  EFB2  F023         	goto	l1060
  6787  004760                     u2810:
  6788  004760  EFA5  F023         	goto	l3129
  6789  004764                     l1060:
  6790  004764  502B               	movf	___flmul@aexp^0,w,c
  6791  004766  B4D8               	btfsc	status,2,c
  6792  004768  EFB8  F023         	goto	u2821
  6793  00476C  EFBA  F023         	goto	u2820
  6794  004770                     u2821:
  6795  004770  EFDE  F023         	goto	l3141
  6796  004774                     u2820:
  6797  004774  0E01               	movlw	1
  6798  004776  262D               	addwf	___flmul@prod^0,f,c
  6799  004778  0E00               	movlw	0
  6800  00477A  222E               	addwfc	(___flmul@prod+1)^0,f,c
  6801  00477C  222F               	addwfc	(___flmul@prod+2)^0,f,c
  6802  00477E  2230               	addwfc	(___flmul@prod+3)^0,f,c
  6803  004780  A030               	btfss	(___flmul@prod+3)^0,0,c
  6804  004782  EFC5  F023         	goto	u2831
  6805  004786  EFC7  F023         	goto	u2830
  6806  00478A                     u2831:
  6807  00478A  EFDE  F023         	goto	l3141
  6808  00478E                     u2830:
  6809  00478E  C02D  F022         	movff	___flmul@prod,??___flmul
  6810  004792  C02E  F023         	movff	___flmul@prod+1,??___flmul+1
  6811  004796  C02F  F024         	movff	___flmul@prod+2,??___flmul+2
  6812  00479A  C030  F025         	movff	___flmul@prod+3,??___flmul+3
  6813  00479E  3425               	rlcf	(??___flmul+3)^0,w,c
  6814  0047A0  3225               	rrcf	(??___flmul+3)^0,f,c
  6815  0047A2  3224               	rrcf	(??___flmul+2)^0,f,c
  6816  0047A4  3223               	rrcf	(??___flmul+1)^0,f,c
  6817  0047A6  3222               	rrcf	??___flmul^0,f,c
  6818  0047A8  C022  F02D         	movff	??___flmul,___flmul@prod
  6819  0047AC  C023  F02E         	movff	??___flmul+1,___flmul@prod+1
  6820  0047B0  C024  F02F         	movff	??___flmul+2,___flmul@prod+2
  6821  0047B4  C025  F030         	movff	??___flmul+3,___flmul@prod+3
  6822  0047B8  4A31               	infsnz	___flmul@temp^0,f,c
  6823  0047BA  2A32               	incf	(___flmul@temp+1)^0,f,c
  6824  0047BC                     l3141:
  6825  0047BC  BE32               	btfsc	(___flmul@temp+1)^0,7,c
  6826  0047BE  EFE9  F023         	goto	u2841
  6827  0047C2  5032               	movf	(___flmul@temp+1)^0,w,c
  6828  0047C4  E108               	bnz	u2840
  6829  0047C6  2831               	incf	___flmul@temp^0,w,c
  6830  0047C8  A0D8               	btfss	status,0,c
  6831  0047CA  EFE9  F023         	goto	u2841
  6832  0047CE  EFEB  F023         	goto	u2840
  6833  0047D2                     u2841:
  6834  0047D2  EFF5  F023         	goto	l3145
  6835  0047D6                     u2840:
  6836  0047D6  0E00               	movlw	0
  6837  0047D8  6E2D               	movwf	___flmul@prod^0,c
  6838  0047DA  0E00               	movlw	0
  6839  0047DC  6E2E               	movwf	(___flmul@prod+1)^0,c
  6840  0047DE  0E80               	movlw	128
  6841  0047E0  6E2F               	movwf	(___flmul@prod+2)^0,c
  6842  0047E2  0E7F               	movlw	127
  6843  0047E4  6E30               	movwf	(___flmul@prod+3)^0,c
  6844  0047E6  EF23  F024         	goto	l3157
  6845  0047EA                     l3145:
  6846  0047EA  BE32               	btfsc	(___flmul@temp+1)^0,7,c
  6847  0047EC  EF02  F024         	goto	u2850
  6848  0047F0  5032               	movf	(___flmul@temp+1)^0,w,c
  6849  0047F2  E106               	bnz	u2851
  6850  0047F4  0431               	decf	___flmul@temp^0,w,c
  6851  0047F6  B0D8               	btfsc	status,0,c
  6852  0047F8  EF00  F024         	goto	u2851
  6853  0047FC  EF02  F024         	goto	u2850
  6854  004800                     u2851:
  6855  004800  EF0E  F024         	goto	l1068
  6856  004804                     u2850:
  6857  004804  0E00               	movlw	0
  6858  004806  6E2D               	movwf	___flmul@prod^0,c
  6859  004808  0E00               	movlw	0
  6860  00480A  6E2E               	movwf	(___flmul@prod+1)^0,c
  6861  00480C  0E00               	movlw	0
  6862  00480E  6E2F               	movwf	(___flmul@prod+2)^0,c
  6863  004810  0E00               	movlw	0
  6864  004812  6E30               	movwf	(___flmul@prod+3)^0,c
  6865  004814  0E00               	movlw	0
  6866  004816  6E26               	movwf	___flmul@sign^0,c
  6867  004818  EF23  F024         	goto	l3157
  6868  00481C                     l1068:
  6869  00481C  C031  F02C         	movff	___flmul@temp,___flmul@bexp
  6870  004820  0EFF               	movlw	255
  6871  004822  162D               	andwf	___flmul@prod^0,f,c
  6872  004824  0EFF               	movlw	255
  6873  004826  162E               	andwf	(___flmul@prod+1)^0,f,c
  6874  004828  0E7F               	movlw	127
  6875  00482A  162F               	andwf	(___flmul@prod+2)^0,f,c
  6876  00482C  0E00               	movlw	0
  6877  00482E  1630               	andwf	(___flmul@prod+3)^0,f,c
  6878  004830  A02C               	btfss	___flmul@bexp^0,0,c
  6879  004832  EF1D  F024         	goto	u2861
  6880  004836  EF1F  F024         	goto	u2860
  6881  00483A                     u2861:
  6882  00483A  EF20  F024         	goto	l3155
  6883  00483E                     u2860:
  6884  00483E  8E2F               	bsf	(___flmul@prod+2)^0,7,c
  6885  004840                     l3155:
  6886  004840  90D8               	bcf	status,0,c
  6887  004842  302C               	rrcf	___flmul@bexp^0,w,c
  6888  004844  6E30               	movwf	(___flmul@prod+3)^0,c
  6889  004846                     l3157:
  6890  004846  5026               	movf	___flmul@sign^0,w,c
  6891  004848  1230               	iorwf	(___flmul@prod+3)^0,f,c
  6892  00484A  C02D  F01A         	movff	___flmul@prod,?___flmul
  6893  00484E  C02E  F01B         	movff	___flmul@prod+1,?___flmul+1
  6894  004852  C02F  F01C         	movff	___flmul@prod+2,?___flmul+2
  6895  004856  C030  F01D         	movff	___flmul@prod+3,?___flmul+3
  6896  00485A                     l1055:
  6897  00485A  0012               	return		;funcret
  6898  00485C                     __end_of___flmul:
  6899                           	opt callstack 0
  6900                           
  6901 ;; *************** function _fabsf *****************
  6902 ;; Defined at:
  6903 ;;		line 4 in file "C:\Program Files (x86)\Microchip\xc8\v2.10\pic\sources\c99\common\fabsf.c"
  6904 ;; Parameters:    Size  Location     Type
  6905 ;;  x               4    9[COMRAM] float 
  6906 ;; Auto vars:     Size  Location     Type
  6907 ;;  u               4   13[COMRAM] struct .
  6908 ;; Return value:  Size  Location     Type
  6909 ;;                  4    9[COMRAM] float 
  6910 ;; Registers used:
  6911 ;;		status,2, status,0
  6912 ;; Tracked objects:
  6913 ;;		On entry : 0/0
  6914 ;;		On exit  : 0/0
  6915 ;;		Unchanged: 0/0
  6916 ;; Data sizes:     COMRAM   BANK0   BANK1   BANK2   BANK3   BANK4   BANK5   BANK6   BANK7   BANK8   BANK9  BANK10  BANK1
      +1  BANK12  BANK13  BANK14  BANK15
  6917 ;;      Params:         4       0       0       0       0       0       0       0       0       0       0       0       
      +0       0       0       0       0
  6918 ;;      Locals:         4       0       0       0       0       0       0       0       0       0       0       0       
      +0       0       0       0       0
  6919 ;;      Temps:          0       0       0       0       0       0       0       0       0       0       0       0       
      +0       0       0       0       0
  6920 ;;      Totals:         8       0       0       0       0       0       0       0       0       0       0       0       
      +0       0       0       0       0
  6921 ;;Total ram usage:        8 bytes
  6922 ;; Hardware stack levels used:    1
  6923 ;; Hardware stack levels required when called:    3
  6924 ;; This function calls:
  6925 ;;		Nothing
  6926 ;; This function is called by:
  6927 ;;		_powf
  6928 ;; This function uses a non-reentrant model
  6929 ;;
  6930                           
  6931                           	psect	text9
  6932  00592C                     __ptext9:
  6933                           	opt callstack 0
  6934  00592C                     _fabsf:
  6935                           	opt callstack 24
  6936  00592C  C0B2  F00E         	movff	fabsf@F463,fabsf@u
  6937  005930  C0B3  F00F         	movff	fabsf@F463+1,fabsf@u+1
  6938  005934  C0B4  F010         	movff	fabsf@F463+2,fabsf@u+2
  6939  005938  C0B5  F011         	movff	fabsf@F463+3,fabsf@u+3
  6940  00593C  C00A  F00E         	movff	fabsf@x,fabsf@u
  6941  005940  C00B  F00F         	movff	fabsf@x+1,fabsf@u+1
  6942  005944  C00C  F010         	movff	fabsf@x+2,fabsf@u+2
  6943  005948  C00D  F011         	movff	fabsf@x+3,fabsf@u+3
  6944  00594C  9E11               	bcf	(fabsf@u+3)^0,7,c
  6945  00594E  C00E  F00A         	movff	fabsf@u,?_fabsf
  6946  005952  C00F  F00B         	movff	fabsf@u+1,?_fabsf+1
  6947  005956  C010  F00C         	movff	fabsf@u+2,?_fabsf+2
  6948  00595A  C011  F00D         	movff	fabsf@u+3,?_fabsf+3
  6949  00595E  0012               	return		;funcret
  6950  005960                     __end_of_fabsf:
  6951                           	opt callstack 0
  6952                           
  6953 ;; *************** function ___xxtofl *****************
  6954 ;; Defined at:
  6955 ;;		line 10 in file "C:\Program Files (x86)\Microchip\xc8\v2.10\pic\sources\c99\common\xxtofl.c"
  6956 ;; Parameters:    Size  Location     Type
  6957 ;;  sign            1    wreg     unsigned char 
  6958 ;;  val             4    9[COMRAM] long 
  6959 ;; Auto vars:     Size  Location     Type
  6960 ;;  sign            1   17[COMRAM] unsigned char 
  6961 ;;  arg             4   19[COMRAM] unsigned long 
  6962 ;;  exp             1   18[COMRAM] unsigned char 
  6963 ;; Return value:  Size  Location     Type
  6964 ;;                  4    9[COMRAM] unsigned char 
  6965 ;; Registers used:
  6966 ;;		wreg, status,2, status,0
  6967 ;; Tracked objects:
  6968 ;;		On entry : 0/0
  6969 ;;		On exit  : 0/0
  6970 ;;		Unchanged: 0/0
  6971 ;; Data sizes:     COMRAM   BANK0   BANK1   BANK2   BANK3   BANK4   BANK5   BANK6   BANK7   BANK8   BANK9  BANK10  BANK1
      +1  BANK12  BANK13  BANK14  BANK15
  6972 ;;      Params:         4       0       0       0       0       0       0       0       0       0       0       0       
      +0       0       0       0       0
  6973 ;;      Locals:         6       0       0       0       0       0       0       0       0       0       0       0       
      +0       0       0       0       0
  6974 ;;      Temps:          4       0       0       0       0       0       0       0       0       0       0       0       
      +0       0       0       0       0
  6975 ;;      Totals:        14       0       0       0       0       0       0       0       0       0       0       0       
      +0       0       0       0       0
  6976 ;;Total ram usage:       14 bytes
  6977 ;; Hardware stack levels used:    1
  6978 ;; Hardware stack levels required when called:    3
  6979 ;; This function calls:
  6980 ;;		Nothing
  6981 ;; This function is called by:
  6982 ;;		_powf
  6983 ;; This function uses a non-reentrant model
  6984 ;;
  6985                           
  6986                           	psect	text10
  6987  005090                     __ptext10:
  6988                           	opt callstack 0
  6989  005090                     ___xxtofl:
  6990                           	opt callstack 24
  6991                           
  6992                           ;incstack = 0
  6993                           ;___xxtofl@sign stored from wreg
  6994  005090  6E12               	movwf	___xxtofl@sign^0,c
  6995  005092  5012               	movf	___xxtofl@sign^0,w,c
  6996  005094  B4D8               	btfsc	status,2,c
  6997  005096  EF4F  F028         	goto	u3161
  6998  00509A  EF51  F028         	goto	u3160
  6999  00509E                     u3161:
  7000  00509E  EF73  F028         	goto	l1092
  7001  0050A2                     u3160:
  7002  0050A2  BE0D               	btfsc	(___xxtofl@val+3)^0,7,c
  7003  0050A4  EF58  F028         	goto	u3170
  7004  0050A8  EF56  F028         	goto	u3171
  7005  0050AC                     u3171:
  7006  0050AC  EF73  F028         	goto	l1092
  7007  0050B0                     u3170:
  7008  0050B0  C00A  F00E         	movff	___xxtofl@val,??___xxtofl
  7009  0050B4  C00B  F00F         	movff	___xxtofl@val+1,??___xxtofl+1
  7010  0050B8  C00C  F010         	movff	___xxtofl@val+2,??___xxtofl+2
  7011  0050BC  C00D  F011         	movff	___xxtofl@val+3,??___xxtofl+3
  7012  0050C0  1E0E               	comf	??___xxtofl^0,f,c
  7013  0050C2  1E0F               	comf	(??___xxtofl+1)^0,f,c
  7014  0050C4  1E10               	comf	(??___xxtofl+2)^0,f,c
  7015  0050C6  1E11               	comf	(??___xxtofl+3)^0,f,c
  7016  0050C8  2A0E               	incf	??___xxtofl^0,f,c
  7017  0050CA  0E00               	movlw	0
  7018  0050CC  220F               	addwfc	(??___xxtofl+1)^0,f,c
  7019  0050CE  2210               	addwfc	(??___xxtofl+2)^0,f,c
  7020  0050D0  2211               	addwfc	(??___xxtofl+3)^0,f,c
  7021  0050D2  C00E  F014         	movff	??___xxtofl,___xxtofl@arg
  7022  0050D6  C00F  F015         	movff	??___xxtofl+1,___xxtofl@arg+1
  7023  0050DA  C010  F016         	movff	??___xxtofl+2,___xxtofl@arg+2
  7024  0050DE  C011  F017         	movff	??___xxtofl+3,___xxtofl@arg+3
  7025  0050E2  EF7B  F028         	goto	l3349
  7026  0050E6                     l1092:
  7027  0050E6  C00A  F014         	movff	___xxtofl@val,___xxtofl@arg
  7028  0050EA  C00B  F015         	movff	___xxtofl@val+1,___xxtofl@arg+1
  7029  0050EE  C00C  F016         	movff	___xxtofl@val+2,___xxtofl@arg+2
  7030  0050F2  C00D  F017         	movff	___xxtofl@val+3,___xxtofl@arg+3
  7031  0050F6                     l3349:
  7032  0050F6  500A               	movf	___xxtofl@val^0,w,c
  7033  0050F8  100B               	iorwf	(___xxtofl@val+1)^0,w,c
  7034  0050FA  100C               	iorwf	(___xxtofl@val+2)^0,w,c
  7035  0050FC  100D               	iorwf	(___xxtofl@val+3)^0,w,c
  7036  0050FE  A4D8               	btfss	status,2,c
  7037  005100  EF84  F028         	goto	u3181
  7038  005104  EF86  F028         	goto	u3180
  7039  005108                     u3181:
  7040  005108  EF90  F028         	goto	l3355
  7041  00510C                     u3180:
  7042  00510C  0E00               	movlw	0
  7043  00510E  6E0A               	movwf	?___xxtofl^0,c
  7044  005110  0E00               	movlw	0
  7045  005112  6E0B               	movwf	(?___xxtofl+1)^0,c
  7046  005114  0E00               	movlw	0
  7047  005116  6E0C               	movwf	(?___xxtofl+2)^0,c
  7048  005118  0E00               	movlw	0
  7049  00511A  6E0D               	movwf	(?___xxtofl+3)^0,c
  7050  00511C  EF21  F029         	goto	l1095
  7051  005120                     l3355:
  7052  005120  0E96               	movlw	150
  7053  005122  6E13               	movwf	___xxtofl@exp^0,c
  7054  005124  EF9A  F028         	goto	l3359
  7055  005128                     l3357:
  7056  005128  2A13               	incf	___xxtofl@exp^0,f,c
  7057  00512A  90D8               	bcf	status,0,c
  7058  00512C  3217               	rrcf	(___xxtofl@arg+3)^0,f,c
  7059  00512E  3216               	rrcf	(___xxtofl@arg+2)^0,f,c
  7060  005130  3215               	rrcf	(___xxtofl@arg+1)^0,f,c
  7061  005132  3214               	rrcf	___xxtofl@arg^0,f,c
  7062  005134                     l3359:
  7063  005134  0E00               	movlw	0
  7064  005136  1414               	andwf	___xxtofl@arg^0,w,c
  7065  005138  6E0E               	movwf	??___xxtofl^0,c
  7066  00513A  0E00               	movlw	0
  7067  00513C  1415               	andwf	(___xxtofl@arg+1)^0,w,c
  7068  00513E  6E0F               	movwf	(??___xxtofl+1)^0,c
  7069  005140  0E00               	movlw	0
  7070  005142  1416               	andwf	(___xxtofl@arg+2)^0,w,c
  7071  005144  6E10               	movwf	(??___xxtofl+2)^0,c
  7072  005146  0EFE               	movlw	254
  7073  005148  1417               	andwf	(___xxtofl@arg+3)^0,w,c
  7074  00514A  6E11               	movwf	(??___xxtofl+3)^0,c
  7075  00514C  500E               	movf	??___xxtofl^0,w,c
  7076  00514E  100F               	iorwf	(??___xxtofl+1)^0,w,c
  7077  005150  1010               	iorwf	(??___xxtofl+2)^0,w,c
  7078  005152  1011               	iorwf	(??___xxtofl+3)^0,w,c
  7079  005154  A4D8               	btfss	status,2,c
  7080  005156  EFAF  F028         	goto	u3191
  7081  00515A  EFB1  F028         	goto	u3190
  7082  00515E                     u3191:
  7083  00515E  EF94  F028         	goto	l3357
  7084  005162                     u3190:
  7085  005162  EFBF  F028         	goto	l1099
  7086  005166                     l3361:
  7087  005166  2A13               	incf	___xxtofl@exp^0,f,c
  7088  005168  0E01               	movlw	1
  7089  00516A  2614               	addwf	___xxtofl@arg^0,f,c
  7090  00516C  0E00               	movlw	0
  7091  00516E  2215               	addwfc	(___xxtofl@arg+1)^0,f,c
  7092  005170  2216               	addwfc	(___xxtofl@arg+2)^0,f,c
  7093  005172  2217               	addwfc	(___xxtofl@arg+3)^0,f,c
  7094  005174  90D8               	bcf	status,0,c
  7095  005176  3217               	rrcf	(___xxtofl@arg+3)^0,f,c
  7096  005178  3216               	rrcf	(___xxtofl@arg+2)^0,f,c
  7097  00517A  3215               	rrcf	(___xxtofl@arg+1)^0,f,c
  7098  00517C  3214               	rrcf	___xxtofl@arg^0,f,c
  7099  00517E                     l1099:
  7100  00517E  0E00               	movlw	0
  7101  005180  1414               	andwf	___xxtofl@arg^0,w,c
  7102  005182  6E0E               	movwf	??___xxtofl^0,c
  7103  005184  0E00               	movlw	0
  7104  005186  1415               	andwf	(___xxtofl@arg+1)^0,w,c
  7105  005188  6E0F               	movwf	(??___xxtofl+1)^0,c
  7106  00518A  0E00               	movlw	0
  7107  00518C  1416               	andwf	(___xxtofl@arg+2)^0,w,c
  7108  00518E  6E10               	movwf	(??___xxtofl+2)^0,c
  7109  005190  0EFF               	movlw	255
  7110  005192  1417               	andwf	(___xxtofl@arg+3)^0,w,c
  7111  005194  6E11               	movwf	(??___xxtofl+3)^0,c
  7112  005196  500E               	movf	??___xxtofl^0,w,c
  7113  005198  100F               	iorwf	(??___xxtofl+1)^0,w,c
  7114  00519A  1010               	iorwf	(??___xxtofl+2)^0,w,c
  7115  00519C  1011               	iorwf	(??___xxtofl+3)^0,w,c
  7116  00519E  A4D8               	btfss	status,2,c
  7117  0051A0  EFD4  F028         	goto	u3201
  7118  0051A4  EFD6  F028         	goto	u3200
  7119  0051A8                     u3201:
  7120  0051A8  EFB3  F028         	goto	l3361
  7121  0051AC                     u3200:
  7122  0051AC  EFDE  F028         	goto	l3369
  7123  0051B0                     l3367:
  7124  0051B0  0613               	decf	___xxtofl@exp^0,f,c
  7125  0051B2  90D8               	bcf	status,0,c
  7126  0051B4  3614               	rlcf	___xxtofl@arg^0,f,c
  7127  0051B6  3615               	rlcf	(___xxtofl@arg+1)^0,f,c
  7128  0051B8  3616               	rlcf	(___xxtofl@arg+2)^0,f,c
  7129  0051BA  3617               	rlcf	(___xxtofl@arg+3)^0,f,c
  7130  0051BC                     l3369:
  7131  0051BC  BE16               	btfsc	(___xxtofl@arg+2)^0,7,c
  7132  0051BE  EFE3  F028         	goto	u3211
  7133  0051C2  EFE5  F028         	goto	u3210
  7134  0051C6                     u3211:
  7135  0051C6  EFED  F028         	goto	l1106
  7136  0051CA                     u3210:
  7137  0051CA  0E02               	movlw	2
  7138  0051CC  6013               	cpfslt	___xxtofl@exp^0,c
  7139  0051CE  EFEB  F028         	goto	u3221
  7140  0051D2  EFED  F028         	goto	u3220
  7141  0051D6                     u3221:
  7142  0051D6  EFD8  F028         	goto	l3367
  7143  0051DA                     u3220:
  7144  0051DA                     l1106:
  7145  0051DA  B013               	btfsc	___xxtofl@exp^0,0,c
  7146  0051DC  EFF2  F028         	goto	u3231
  7147  0051E0  EFF4  F028         	goto	u3230
  7148  0051E4                     u3231:
  7149  0051E4  EFF5  F028         	goto	l3375
  7150  0051E8                     u3230:
  7151  0051E8  9E16               	bcf	(___xxtofl@arg+2)^0,7,c
  7152  0051EA                     l3375:
  7153  0051EA  90D8               	bcf	status,0,c
  7154  0051EC  3213               	rrcf	___xxtofl@exp^0,f,c
  7155  0051EE  C013  F00E         	movff	___xxtofl@exp,??___xxtofl
  7156  0051F2  6A0F               	clrf	(??___xxtofl+1)^0,c
  7157  0051F4  6A10               	clrf	(??___xxtofl+2)^0,c
  7158  0051F6  6A11               	clrf	(??___xxtofl+3)^0,c
  7159  0051F8  C00E  F011         	movff	??___xxtofl,??___xxtofl+3
  7160  0051FC  6A10               	clrf	(??___xxtofl+2)^0,c
  7161  0051FE  6A0F               	clrf	(??___xxtofl+1)^0,c
  7162  005200  6A0E               	clrf	??___xxtofl^0,c
  7163  005202  500E               	movf	??___xxtofl^0,w,c
  7164  005204  1214               	iorwf	___xxtofl@arg^0,f,c
  7165  005206  500F               	movf	(??___xxtofl+1)^0,w,c
  7166  005208  1215               	iorwf	(___xxtofl@arg+1)^0,f,c
  7167  00520A  5010               	movf	(??___xxtofl+2)^0,w,c
  7168  00520C  1216               	iorwf	(___xxtofl@arg+2)^0,f,c
  7169  00520E  5011               	movf	(??___xxtofl+3)^0,w,c
  7170  005210  1217               	iorwf	(___xxtofl@arg+3)^0,f,c
  7171  005212  5012               	movf	___xxtofl@sign^0,w,c
  7172  005214  B4D8               	btfsc	status,2,c
  7173  005216  EF0F  F029         	goto	u3241
  7174  00521A  EF11  F029         	goto	u3240
  7175  00521E                     u3241:
  7176  00521E  EF19  F029         	goto	l3385
  7177  005222                     u3240:
  7178  005222  BE0D               	btfsc	(___xxtofl@val+3)^0,7,c
  7179  005224  EF18  F029         	goto	u3250
  7180  005228  EF16  F029         	goto	u3251
  7181  00522C                     u3251:
  7182  00522C  EF19  F029         	goto	l3385
  7183  005230                     u3250:
  7184  005230  8E17               	bsf	(___xxtofl@arg+3)^0,7,c
  7185  005232                     l3385:
  7186  005232  C014  F00A         	movff	___xxtofl@arg,?___xxtofl
  7187  005236  C015  F00B         	movff	___xxtofl@arg+1,?___xxtofl+1
  7188  00523A  C016  F00C         	movff	___xxtofl@arg+2,?___xxtofl+2
  7189  00523E  C017  F00D         	movff	___xxtofl@arg+3,?___xxtofl+3
  7190  005242                     l1095:
  7191  005242  0012               	return		;funcret
  7192  005244                     __end_of___xxtofl:
  7193                           	opt callstack 0
  7194                           
  7195 ;; *************** function ___flsub *****************
  7196 ;; Defined at:
  7197 ;;		line 245 in file "C:\Program Files (x86)\Microchip\xc8\v2.10\pic\sources\c99\common\sprcadd.c"
  7198 ;; Parameters:    Size  Location     Type
  7199 ;;  b               4   50[COMRAM] unsigned char 
  7200 ;;  a               4   54[COMRAM] unsigned char 
  7201 ;; Auto vars:     Size  Location     Type
  7202 ;;		None
  7203 ;; Return value:  Size  Location     Type
  7204 ;;                  4   50[COMRAM] unsigned char 
  7205 ;; Registers used:
  7206 ;;		wreg, status,2, status,0, cstack
  7207 ;; Tracked objects:
  7208 ;;		On entry : 0/0
  7209 ;;		On exit  : 0/0
  7210 ;;		Unchanged: 0/0
  7211 ;; Data sizes:     COMRAM   BANK0   BANK1   BANK2   BANK3   BANK4   BANK5   BANK6   BANK7   BANK8   BANK9  BANK10  BANK1
      +1  BANK12  BANK13  BANK14  BANK15
  7212 ;;      Params:         8       0       0       0       0       0       0       0       0       0       0       0       
      +0       0       0       0       0
  7213 ;;      Locals:         0       0       0       0       0       0       0       0       0       0       0       0       
      +0       0       0       0       0
  7214 ;;      Temps:          0       0       0       0       0       0       0       0       0       0       0       0       
      +0       0       0       0       0
  7215 ;;      Totals:         8       0       0       0       0       0       0       0       0       0       0       0       
      +0       0       0       0       0
  7216 ;;Total ram usage:        8 bytes
  7217 ;; Hardware stack levels used:    1
  7218 ;; Hardware stack levels required when called:    4
  7219 ;; This function calls:
  7220 ;;		___fladd
  7221 ;; This function is called by:
  7222 ;;		_powf
  7223 ;; This function uses a non-reentrant model
  7224 ;;
  7225                           
  7226                           	psect	text11
  7227  0058AE                     __ptext11:
  7228                           	opt callstack 0
  7229  0058AE                     ___flsub:
  7230                           	opt callstack 23
  7231  0058AE  0E00               	movlw	0
  7232  0058B0  1A37               	xorwf	___flsub@a^0,f,c
  7233  0058B2  0E00               	movlw	0
  7234  0058B4  1A38               	xorwf	(___flsub@a+1)^0,f,c
  7235  0058B6  0E00               	movlw	0
  7236  0058B8  1A39               	xorwf	(___flsub@a+2)^0,f,c
  7237  0058BA  0E80               	movlw	128
  7238  0058BC  1A3A               	xorwf	(___flsub@a+3)^0,f,c
  7239  0058BE  C033  F00A         	movff	___flsub@b,___fladd@b
  7240  0058C2  C034  F00B         	movff	___flsub@b+1,___fladd@b+1
  7241  0058C6  C035  F00C         	movff	___flsub@b+2,___fladd@b+2
  7242  0058CA  C036  F00D         	movff	___flsub@b+3,___fladd@b+3
  7243  0058CE  C037  F00E         	movff	___flsub@a,___fladd@a
  7244  0058D2  C038  F00F         	movff	___flsub@a+1,___fladd@a+1
  7245  0058D6  C039  F010         	movff	___flsub@a+2,___fladd@a+2
  7246  0058DA  C03A  F011         	movff	___flsub@a+3,___fladd@a+3
  7247  0058DE  ECB9  F01F         	call	___fladd	;wreg free
  7248  0058E2  C00A  F033         	movff	?___fladd,?___flsub
  7249  0058E6  C00B  F034         	movff	?___fladd+1,?___flsub+1
  7250  0058EA  C00C  F035         	movff	?___fladd+2,?___flsub+2
  7251  0058EE  C00D  F036         	movff	?___fladd+3,?___flsub+3
  7252  0058F2  0012               	return		;funcret
  7253  0058F4                     __end_of___flsub:
  7254                           	opt callstack 0
  7255                           
  7256 ;; *************** function ___fladd *****************
  7257 ;; Defined at:
  7258 ;;		line 10 in file "C:\Program Files (x86)\Microchip\xc8\v2.10\pic\sources\c99\common\sprcadd.c"
  7259 ;; Parameters:    Size  Location     Type
  7260 ;;  b               4    9[COMRAM] unsigned char 
  7261 ;;  a               4   13[COMRAM] unsigned char 
  7262 ;; Auto vars:     Size  Location     Type
  7263 ;;  grs             1   24[COMRAM] unsigned char 
  7264 ;;  bexp            1   23[COMRAM] unsigned char 
  7265 ;;  aexp            1   22[COMRAM] unsigned char 
  7266 ;;  signs           1   21[COMRAM] unsigned char 
  7267 ;; Return value:  Size  Location     Type
  7268 ;;                  4    9[COMRAM] unsigned char 
  7269 ;; Registers used:
  7270 ;;		wreg, status,2, status,0
  7271 ;; Tracked objects:
  7272 ;;		On entry : 0/0
  7273 ;;		On exit  : 0/0
  7274 ;;		Unchanged: 0/0
  7275 ;; Data sizes:     COMRAM   BANK0   BANK1   BANK2   BANK3   BANK4   BANK5   BANK6   BANK7   BANK8   BANK9  BANK10  BANK1
      +1  BANK12  BANK13  BANK14  BANK15
  7276 ;;      Params:         8       0       0       0       0       0       0       0       0       0       0       0       
      +0       0       0       0       0
  7277 ;;      Locals:         4       0       0       0       0       0       0       0       0       0       0       0       
      +0       0       0       0       0
  7278 ;;      Temps:          4       0       0       0       0       0       0       0       0       0       0       0       
      +0       0       0       0       0
  7279 ;;      Totals:        16       0       0       0       0       0       0       0       0       0       0       0       
      +0       0       0       0       0
  7280 ;;Total ram usage:       16 bytes
  7281 ;; Hardware stack levels used:    1
  7282 ;; Hardware stack levels required when called:    3
  7283 ;; This function calls:
  7284 ;;		Nothing
  7285 ;; This function is called by:
  7286 ;;		___flsub
  7287 ;;		_powf
  7288 ;;		_sqrtf
  7289 ;; This function uses a non-reentrant model
  7290 ;;
  7291                           
  7292                           	psect	text12
  7293  003F72                     __ptext12:
  7294                           	opt callstack 0
  7295  003F72                     ___fladd:
  7296                           	opt callstack 23
  7297  003F72  500D               	movf	(___fladd@b+3)^0,w,c
  7298  003F74  0B80               	andlw	128
  7299  003F76  6E16               	movwf	___fladd@signs^0,c
  7300  003F78  500D               	movf	(___fladd@b+3)^0,w,c
  7301  003F7A  240D               	addwf	(___fladd@b+3)^0,w,c
  7302  003F7C  6E18               	movwf	___fladd@bexp^0,c
  7303  003F7E  AE0C               	btfss	(___fladd@b+2)^0,7,c
  7304  003F80  EFC4  F01F         	goto	u2291
  7305  003F84  EFC6  F01F         	goto	u2290
  7306  003F88                     u2291:
  7307  003F88  EFC7  F01F         	goto	l2837
  7308  003F8C                     u2290:
  7309  003F8C  8018               	bsf	___fladd@bexp^0,0,c
  7310  003F8E                     l2837:
  7311  003F8E  5018               	movf	___fladd@bexp^0,w,c
  7312  003F90  B4D8               	btfsc	status,2,c
  7313  003F92  EFCD  F01F         	goto	u2301
  7314  003F96  EFCF  F01F         	goto	u2300
  7315  003F9A                     u2301:
  7316  003F9A  EFE4  F01F         	goto	l2847
  7317  003F9E                     u2300:
  7318  003F9E  2818               	incf	___fladd@bexp^0,w,c
  7319  003FA0  A4D8               	btfss	status,2,c
  7320  003FA2  EFD5  F01F         	goto	u2311
  7321  003FA6  EFD7  F01F         	goto	u2310
  7322  003FAA                     u2311:
  7323  003FAA  EFDF  F01F         	goto	l2843
  7324  003FAE                     u2310:
  7325  003FAE  0E00               	movlw	0
  7326  003FB0  6E0A               	movwf	___fladd@b^0,c
  7327  003FB2  0E00               	movlw	0
  7328  003FB4  6E0B               	movwf	(___fladd@b+1)^0,c
  7329  003FB6  0E00               	movlw	0
  7330  003FB8  6E0C               	movwf	(___fladd@b+2)^0,c
  7331  003FBA  0E00               	movlw	0
  7332  003FBC  6E0D               	movwf	(___fladd@b+3)^0,c
  7333  003FBE                     l2843:
  7334  003FBE  8E0C               	bsf	(___fladd@b+2)^0,7,c
  7335  003FC0  0E00               	movlw	0
  7336  003FC2  6E0D               	movwf	(___fladd@b+3)^0,c
  7337  003FC4  EFEC  F01F         	goto	l2849
  7338  003FC8                     l2847:
  7339  003FC8  0E00               	movlw	0
  7340  003FCA  6E0A               	movwf	___fladd@b^0,c
  7341  003FCC  0E00               	movlw	0
  7342  003FCE  6E0B               	movwf	(___fladd@b+1)^0,c
  7343  003FD0  0E00               	movlw	0
  7344  003FD2  6E0C               	movwf	(___fladd@b+2)^0,c
  7345  003FD4  0E00               	movlw	0
  7346  003FD6  6E0D               	movwf	(___fladd@b+3)^0,c
  7347  003FD8                     l2849:
  7348  003FD8  5011               	movf	(___fladd@a+3)^0,w,c
  7349  003FDA  0B80               	andlw	128
  7350  003FDC  6E17               	movwf	___fladd@aexp^0,c
  7351  003FDE  5016               	movf	___fladd@signs^0,w,c
  7352  003FE0  1817               	xorwf	___fladd@aexp^0,w,c
  7353  003FE2  B4D8               	btfsc	status,2,c
  7354  003FE4  EFF6  F01F         	goto	u2321
  7355  003FE8  EFF8  F01F         	goto	u2320
  7356  003FEC                     u2321:
  7357  003FEC  EFF9  F01F         	goto	l2855
  7358  003FF0                     u2320:
  7359  003FF0  8C16               	bsf	___fladd@signs^0,6,c
  7360  003FF2                     l2855:
  7361  003FF2  5011               	movf	(___fladd@a+3)^0,w,c
  7362  003FF4  2411               	addwf	(___fladd@a+3)^0,w,c
  7363  003FF6  6E17               	movwf	___fladd@aexp^0,c
  7364  003FF8  AE10               	btfss	(___fladd@a+2)^0,7,c
  7365  003FFA  EF01  F020         	goto	u2331
  7366  003FFE  EF03  F020         	goto	u2330
  7367  004002                     u2331:
  7368  004002  EF04  F020         	goto	l2861
  7369  004006                     u2330:
  7370  004006  8017               	bsf	___fladd@aexp^0,0,c
  7371  004008                     l2861:
  7372  004008  5017               	movf	___fladd@aexp^0,w,c
  7373  00400A  B4D8               	btfsc	status,2,c
  7374  00400C  EF0A  F020         	goto	u2341
  7375  004010  EF0C  F020         	goto	u2340
  7376  004014                     u2341:
  7377  004014  EF21  F020         	goto	l2871
  7378  004018                     u2340:
  7379  004018  2817               	incf	___fladd@aexp^0,w,c
  7380  00401A  A4D8               	btfss	status,2,c
  7381  00401C  EF12  F020         	goto	u2351
  7382  004020  EF14  F020         	goto	u2350
  7383  004024                     u2351:
  7384  004024  EF1C  F020         	goto	l2867
  7385  004028                     u2350:
  7386  004028  0E00               	movlw	0
  7387  00402A  6E0E               	movwf	___fladd@a^0,c
  7388  00402C  0E00               	movlw	0
  7389  00402E  6E0F               	movwf	(___fladd@a+1)^0,c
  7390  004030  0E00               	movlw	0
  7391  004032  6E10               	movwf	(___fladd@a+2)^0,c
  7392  004034  0E00               	movlw	0
  7393  004036  6E11               	movwf	(___fladd@a+3)^0,c
  7394  004038                     l2867:
  7395  004038  8E10               	bsf	(___fladd@a+2)^0,7,c
  7396  00403A  0E00               	movlw	0
  7397  00403C  6E11               	movwf	(___fladd@a+3)^0,c
  7398  00403E  EF29  F020         	goto	l2873
  7399  004042                     l2871:
  7400  004042  0E00               	movlw	0
  7401  004044  6E0E               	movwf	___fladd@a^0,c
  7402  004046  0E00               	movlw	0
  7403  004048  6E0F               	movwf	(___fladd@a+1)^0,c
  7404  00404A  0E00               	movlw	0
  7405  00404C  6E10               	movwf	(___fladd@a+2)^0,c
  7406  00404E  0E00               	movlw	0
  7407  004050  6E11               	movwf	(___fladd@a+3)^0,c
  7408  004052                     l2873:
  7409  004052  5018               	movf	___fladd@bexp^0,w,c
  7410  004054  5C17               	subwf	___fladd@aexp^0,w,c
  7411  004056  B0D8               	btfsc	status,0,c
  7412  004058  EF30  F020         	goto	u2361
  7413  00405C  EF32  F020         	goto	u2360
  7414  004060                     u2361:
  7415  004060  EF59  F020         	goto	l2909
  7416  004064                     u2360:
  7417  004064  AC16               	btfss	___fladd@signs^0,6,c
  7418  004066  EF37  F020         	goto	u2371
  7419  00406A  EF39  F020         	goto	u2370
  7420  00406E                     u2371:
  7421  00406E  EF3B  F020         	goto	l2879
  7422  004072                     u2370:
  7423  004072  0E80               	movlw	128
  7424  004074  1A16               	xorwf	___fladd@signs^0,f,c
  7425  004076                     l2879:
  7426  004076  C018  F019         	movff	___fladd@bexp,___fladd@grs
  7427  00407A  C017  F018         	movff	___fladd@aexp,___fladd@bexp
  7428  00407E  C019  F017         	movff	___fladd@grs,___fladd@aexp
  7429  004082  C00A  F019         	movff	___fladd@b,___fladd@grs
  7430  004086  C00E  F00A         	movff	___fladd@a,___fladd@b
  7431  00408A  C019  F00E         	movff	___fladd@grs,___fladd@a
  7432  00408E  C00B  F019         	movff	___fladd@b+1,___fladd@grs
  7433  004092  C00F  F00B         	movff	___fladd@a+1,___fladd@b+1
  7434  004096  C019  F00F         	movff	___fladd@grs,___fladd@a+1
  7435  00409A  C00C  F019         	movff	___fladd@b+2,___fladd@grs
  7436  00409E  C010  F00C         	movff	___fladd@a+2,___fladd@b+2
  7437  0040A2  C019  F010         	movff	___fladd@grs,___fladd@a+2
  7438  0040A6  C00D  F019         	movff	___fladd@b+3,___fladd@grs
  7439  0040AA  C011  F00D         	movff	___fladd@a+3,___fladd@b+3
  7440  0040AE  C019  F011         	movff	___fladd@grs,___fladd@a+3
  7441  0040B2                     l2909:
  7442  0040B2  0E00               	movlw	0
  7443  0040B4  6E19               	movwf	___fladd@grs^0,c
  7444  0040B6  5018               	movf	___fladd@bexp^0,w,c
  7445  0040B8  C017  F012         	movff	___fladd@aexp,??___fladd
  7446  0040BC  6A13               	clrf	(??___fladd+1)^0,c
  7447  0040BE  5E12               	subwf	??___fladd^0,f,c
  7448  0040C0  0E00               	movlw	0
  7449  0040C2  5A13               	subwfb	(??___fladd+1)^0,f,c
  7450  0040C4  BE13               	btfsc	(??___fladd+1)^0,7,c
  7451  0040C6  EF6E  F020         	goto	u2381
  7452  0040CA  5013               	movf	(??___fladd+1)^0,w,c
  7453  0040CC  E109               	bnz	u2380
  7454  0040CE  0E1A               	movlw	26
  7455  0040D0  5C12               	subwf	??___fladd^0,w,c
  7456  0040D2  A0D8               	btfss	status,0,c
  7457  0040D4  EF6E  F020         	goto	u2381
  7458  0040D8  EF70  F020         	goto	u2380
  7459  0040DC                     u2381:
  7460  0040DC  EFA7  F020         	goto	l966
  7461  0040E0                     u2380:
  7462  0040E0  500A               	movf	___fladd@b^0,w,c
  7463  0040E2  100B               	iorwf	(___fladd@b+1)^0,w,c
  7464  0040E4  100C               	iorwf	(___fladd@b+2)^0,w,c
  7465  0040E6  100D               	iorwf	(___fladd@b+3)^0,w,c
  7466  0040E8  A4D8               	btfss	status,2,c
  7467  0040EA  EF79  F020         	goto	u2391
  7468  0040EE  EF7C  F020         	goto	u2390
  7469  0040F2                     u2391:
  7470  0040F2  0E01               	movlw	1
  7471  0040F4  EF7D  F020         	goto	u2400
  7472  0040F8                     u2390:
  7473  0040F8  0E00               	movlw	0
  7474  0040FA                     u2400:
  7475  0040FA  6E19               	movwf	___fladd@grs^0,c
  7476  0040FC  0E00               	movlw	0
  7477  0040FE  6E0A               	movwf	___fladd@b^0,c
  7478  004100  0E00               	movlw	0
  7479  004102  6E0B               	movwf	(___fladd@b+1)^0,c
  7480  004104  0E00               	movlw	0
  7481  004106  6E0C               	movwf	(___fladd@b+2)^0,c
  7482  004108  0E00               	movlw	0
  7483  00410A  6E0D               	movwf	(___fladd@b+3)^0,c
  7484  00410C  C017  F018         	movff	___fladd@aexp,___fladd@bexp
  7485  004110  EFB0  F020         	goto	l965
  7486  004114                     l967:
  7487  004114  A019               	btfss	___fladd@grs^0,0,c
  7488  004116  EF8F  F020         	goto	u2411
  7489  00411A  EF91  F020         	goto	u2410
  7490  00411E                     u2411:
  7491  00411E  EF97  F020         	goto	l2921
  7492  004122                     u2410:
  7493  004122  90D8               	bcf	status,0,c
  7494  004124  3019               	rrcf	___fladd@grs^0,w,c
  7495  004126  0901               	iorlw	1
  7496  004128  6E19               	movwf	___fladd@grs^0,c
  7497  00412A  EF99  F020         	goto	l2923
  7498  00412E                     l2921:
  7499  00412E  90D8               	bcf	status,0,c
  7500  004130  3219               	rrcf	___fladd@grs^0,f,c
  7501  004132                     l2923:
  7502  004132  A00A               	btfss	___fladd@b^0,0,c
  7503  004134  EF9E  F020         	goto	u2421
  7504  004138  EFA0  F020         	goto	u2420
  7505  00413C                     u2421:
  7506  00413C  EFA1  F020         	goto	l2927
  7507  004140                     u2420:
  7508  004140  8E19               	bsf	___fladd@grs^0,7,c
  7509  004142                     l2927:
  7510  004142  340D               	rlcf	(___fladd@b+3)^0,w,c
  7511  004144  320D               	rrcf	(___fladd@b+3)^0,f,c
  7512  004146  320C               	rrcf	(___fladd@b+2)^0,f,c
  7513  004148  320B               	rrcf	(___fladd@b+1)^0,f,c
  7514  00414A  320A               	rrcf	___fladd@b^0,f,c
  7515  00414C  2A18               	incf	___fladd@bexp^0,f,c
  7516  00414E                     l966:
  7517  00414E  5017               	movf	___fladd@aexp^0,w,c
  7518  004150  5C18               	subwf	___fladd@bexp^0,w,c
  7519  004152  A0D8               	btfss	status,0,c
  7520  004154  EFAE  F020         	goto	u2431
  7521  004158  EFB0  F020         	goto	u2430
  7522  00415C                     u2431:
  7523  00415C  EF8A  F020         	goto	l967
  7524  004160                     u2430:
  7525  004160                     l965:
  7526  004160  BC16               	btfsc	___fladd@signs^0,6,c
  7527  004162  EFB5  F020         	goto	u2441
  7528  004166  EFB7  F020         	goto	u2440
  7529  00416A                     u2441:
  7530  00416A  EFF7  F020         	goto	l2955
  7531  00416E                     u2440:
  7532  00416E  5018               	movf	___fladd@bexp^0,w,c
  7533  004170  A4D8               	btfss	status,2,c
  7534  004172  EFBD  F020         	goto	u2451
  7535  004176  EFBF  F020         	goto	u2450
  7536  00417A                     u2451:
  7537  00417A  EFC9  F020         	goto	l2937
  7538  00417E                     u2450:
  7539  00417E  0E00               	movlw	0
  7540  004180  6E0A               	movwf	?___fladd^0,c
  7541  004182  0E00               	movlw	0
  7542  004184  6E0B               	movwf	(?___fladd+1)^0,c
  7543  004186  0E00               	movlw	0
  7544  004188  6E0C               	movwf	(?___fladd+2)^0,c
  7545  00418A  0E00               	movlw	0
  7546  00418C  6E0D               	movwf	(?___fladd+3)^0,c
  7547  00418E  EF18  F022         	goto	l974
  7548  004192                     l2937:
  7549  004192  500E               	movf	___fladd@a^0,w,c
  7550  004194  260A               	addwf	___fladd@b^0,f,c
  7551  004196  500F               	movf	(___fladd@a+1)^0,w,c
  7552  004198  220B               	addwfc	(___fladd@b+1)^0,f,c
  7553  00419A  5010               	movf	(___fladd@a+2)^0,w,c
  7554  00419C  220C               	addwfc	(___fladd@b+2)^0,f,c
  7555  00419E  5011               	movf	(___fladd@a+3)^0,w,c
  7556  0041A0  220D               	addwfc	(___fladd@b+3)^0,f,c
  7557  0041A2  A00D               	btfss	(___fladd@b+3)^0,0,c
  7558  0041A4  EFD6  F020         	goto	u2461
  7559  0041A8  EFD8  F020         	goto	u2460
  7560  0041AC                     u2461:
  7561  0041AC  EF84  F021         	goto	l2991
  7562  0041B0                     u2460:
  7563  0041B0  A019               	btfss	___fladd@grs^0,0,c
  7564  0041B2  EFDD  F020         	goto	u2471
  7565  0041B6  EFDF  F020         	goto	u2470
  7566  0041BA                     u2471:
  7567  0041BA  EFE5  F020         	goto	l2945
  7568  0041BE                     u2470:
  7569  0041BE  90D8               	bcf	status,0,c
  7570  0041C0  3019               	rrcf	___fladd@grs^0,w,c
  7571  0041C2  0901               	iorlw	1
  7572  0041C4  6E19               	movwf	___fladd@grs^0,c
  7573  0041C6  EFE7  F020         	goto	l2947
  7574  0041CA                     l2945:
  7575  0041CA  90D8               	bcf	status,0,c
  7576  0041CC  3219               	rrcf	___fladd@grs^0,f,c
  7577  0041CE                     l2947:
  7578  0041CE  A00A               	btfss	___fladd@b^0,0,c
  7579  0041D0  EFEC  F020         	goto	u2481
  7580  0041D4  EFEE  F020         	goto	u2480
  7581  0041D8                     u2481:
  7582  0041D8  EFEF  F020         	goto	l2951
  7583  0041DC                     u2480:
  7584  0041DC  8E19               	bsf	___fladd@grs^0,7,c
  7585  0041DE                     l2951:
  7586  0041DE  340D               	rlcf	(___fladd@b+3)^0,w,c
  7587  0041E0  320D               	rrcf	(___fladd@b+3)^0,f,c
  7588  0041E2  320C               	rrcf	(___fladd@b+2)^0,f,c
  7589  0041E4  320B               	rrcf	(___fladd@b+1)^0,f,c
  7590  0041E6  320A               	rrcf	___fladd@b^0,f,c
  7591  0041E8  2A18               	incf	___fladd@bexp^0,f,c
  7592  0041EA  EF84  F021         	goto	l2991
  7593  0041EE                     l2955:
  7594  0041EE  500E               	movf	___fladd@a^0,w,c
  7595  0041F0  5C0A               	subwf	___fladd@b^0,w,c
  7596  0041F2  500F               	movf	(___fladd@a+1)^0,w,c
  7597  0041F4  580B               	subwfb	(___fladd@b+1)^0,w,c
  7598  0041F6  5010               	movf	(___fladd@a+2)^0,w,c
  7599  0041F8  580C               	subwfb	(___fladd@b+2)^0,w,c
  7600  0041FA  500D               	movf	(___fladd@b+3)^0,w,c
  7601  0041FC  0A80               	xorlw	128
  7602  0041FE  6E12               	movwf	??___fladd^0,c
  7603  004200  5011               	movf	(___fladd@a+3)^0,w,c
  7604  004202  0A80               	xorlw	128
  7605  004204  5812               	subwfb	??___fladd^0,w,c
  7606  004206  B0D8               	btfsc	status,0,c
  7607  004208  EF08  F021         	goto	u2491
  7608  00420C  EF0A  F021         	goto	u2490
  7609  004210                     u2491:
  7610  004210  EF35  F021         	goto	l2965
  7611  004214                     u2490:
  7612  004214  500A               	movf	___fladd@b^0,w,c
  7613  004216  5C0E               	subwf	___fladd@a^0,w,c
  7614  004218  6E12               	movwf	??___fladd^0,c
  7615  00421A  500B               	movf	(___fladd@b+1)^0,w,c
  7616  00421C  580F               	subwfb	(___fladd@a+1)^0,w,c
  7617  00421E  6E13               	movwf	(??___fladd+1)^0,c
  7618  004220  500C               	movf	(___fladd@b+2)^0,w,c
  7619  004222  5810               	subwfb	(___fladd@a+2)^0,w,c
  7620  004224  6E14               	movwf	(??___fladd+2)^0,c
  7621  004226  500D               	movf	(___fladd@b+3)^0,w,c
  7622  004228  5811               	subwfb	(___fladd@a+3)^0,w,c
  7623  00422A  6E15               	movwf	(??___fladd+3)^0,c
  7624  00422C  0EFF               	movlw	255
  7625  00422E  2412               	addwf	??___fladd^0,w,c
  7626  004230  6E0A               	movwf	___fladd@b^0,c
  7627  004232  0EFF               	movlw	255
  7628  004234  2013               	addwfc	(??___fladd+1)^0,w,c
  7629  004236  6E0B               	movwf	(___fladd@b+1)^0,c
  7630  004238  0EFF               	movlw	255
  7631  00423A  2014               	addwfc	(??___fladd+2)^0,w,c
  7632  00423C  6E0C               	movwf	(___fladd@b+2)^0,c
  7633  00423E  0EFF               	movlw	255
  7634  004240  2015               	addwfc	(??___fladd+3)^0,w,c
  7635  004242  6E0D               	movwf	(___fladd@b+3)^0,c
  7636  004244  0E80               	movlw	128
  7637  004246  1A16               	xorwf	___fladd@signs^0,f,c
  7638  004248  6C19               	negf	___fladd@grs^0,c
  7639  00424A  5019               	movf	___fladd@grs^0,w,c
  7640  00424C  A4D8               	btfss	status,2,c
  7641  00424E  EF2B  F021         	goto	u2501
  7642  004252  EF2D  F021         	goto	u2500
  7643  004256                     u2501:
  7644  004256  EF3D  F021         	goto	l982
  7645  00425A                     u2500:
  7646  00425A  0E01               	movlw	1
  7647  00425C  260A               	addwf	___fladd@b^0,f,c
  7648  00425E  0E00               	movlw	0
  7649  004260  220B               	addwfc	(___fladd@b+1)^0,f,c
  7650  004262  220C               	addwfc	(___fladd@b+2)^0,f,c
  7651  004264  220D               	addwfc	(___fladd@b+3)^0,f,c
  7652  004266  EF3D  F021         	goto	l982
  7653  00426A                     l2965:
  7654  00426A  500E               	movf	___fladd@a^0,w,c
  7655  00426C  5E0A               	subwf	___fladd@b^0,f,c
  7656  00426E  500F               	movf	(___fladd@a+1)^0,w,c
  7657  004270  5A0B               	subwfb	(___fladd@b+1)^0,f,c
  7658  004272  5010               	movf	(___fladd@a+2)^0,w,c
  7659  004274  5A0C               	subwfb	(___fladd@b+2)^0,f,c
  7660  004276  5011               	movf	(___fladd@a+3)^0,w,c
  7661  004278  5A0D               	subwfb	(___fladd@b+3)^0,f,c
  7662  00427A                     l982:
  7663  00427A  500A               	movf	___fladd@b^0,w,c
  7664  00427C  100B               	iorwf	(___fladd@b+1)^0,w,c
  7665  00427E  100C               	iorwf	(___fladd@b+2)^0,w,c
  7666  004280  100D               	iorwf	(___fladd@b+3)^0,w,c
  7667  004282  A4D8               	btfss	status,2,c
  7668  004284  EF46  F021         	goto	u2511
  7669  004288  EF48  F021         	goto	u2510
  7670  00428C                     u2511:
  7671  00428C  EF7D  F021         	goto	l2989
  7672  004290                     u2510:
  7673  004290  5019               	movf	___fladd@grs^0,w,c
  7674  004292  A4D8               	btfss	status,2,c
  7675  004294  EF4E  F021         	goto	u2521
  7676  004298  EF50  F021         	goto	u2520
  7677  00429C                     u2521:
  7678  00429C  EF7D  F021         	goto	l2989
  7679  0042A0                     u2520:
  7680  0042A0  0E00               	movlw	0
  7681  0042A2  6E0A               	movwf	?___fladd^0,c
  7682  0042A4  0E00               	movlw	0
  7683  0042A6  6E0B               	movwf	(?___fladd+1)^0,c
  7684  0042A8  0E00               	movlw	0
  7685  0042AA  6E0C               	movwf	(?___fladd+2)^0,c
  7686  0042AC  0E00               	movlw	0
  7687  0042AE  6E0D               	movwf	(?___fladd+3)^0,c
  7688  0042B0  EF18  F022         	goto	l974
  7689  0042B4                     l2973:
  7690  0042B4  90D8               	bcf	status,0,c
  7691  0042B6  360A               	rlcf	___fladd@b^0,f,c
  7692  0042B8  360B               	rlcf	(___fladd@b+1)^0,f,c
  7693  0042BA  360C               	rlcf	(___fladd@b+2)^0,f,c
  7694  0042BC  360D               	rlcf	(___fladd@b+3)^0,f,c
  7695  0042BE  AE19               	btfss	___fladd@grs^0,7,c
  7696  0042C0  EF64  F021         	goto	u2531
  7697  0042C4  EF66  F021         	goto	u2530
  7698  0042C8                     u2531:
  7699  0042C8  EF67  F021         	goto	l2979
  7700  0042CC                     u2530:
  7701  0042CC  800A               	bsf	___fladd@b^0,0,c
  7702  0042CE                     l2979:
  7703  0042CE  A019               	btfss	___fladd@grs^0,0,c
  7704  0042D0  EF6C  F021         	goto	u2541
  7705  0042D4  EF6E  F021         	goto	u2540
  7706  0042D8                     u2541:
  7707  0042D8  EF72  F021         	goto	l2983
  7708  0042DC                     u2540:
  7709  0042DC  80D8               	bsf	status,0,c
  7710  0042DE  3619               	rlcf	___fladd@grs^0,f,c
  7711  0042E0  EF74  F021         	goto	l2985
  7712  0042E4                     l2983:
  7713  0042E4  90D8               	bcf	status,0,c
  7714  0042E6  3619               	rlcf	___fladd@grs^0,f,c
  7715  0042E8                     l2985:
  7716  0042E8  5018               	movf	___fladd@bexp^0,w,c
  7717  0042EA  B4D8               	btfsc	status,2,c
  7718  0042EC  EF7A  F021         	goto	u2551
  7719  0042F0  EF7C  F021         	goto	u2550
  7720  0042F4                     u2551:
  7721  0042F4  EF7D  F021         	goto	l2989
  7722  0042F8                     u2550:
  7723  0042F8  0618               	decf	___fladd@bexp^0,f,c
  7724  0042FA                     l2989:
  7725  0042FA  AE0C               	btfss	(___fladd@b+2)^0,7,c
  7726  0042FC  EF82  F021         	goto	u2561
  7727  004300  EF84  F021         	goto	u2560
  7728  004304                     u2561:
  7729  004304  EF5A  F021         	goto	l2973
  7730  004308                     u2560:
  7731  004308                     l2991:
  7732  004308  0E00               	movlw	0
  7733  00430A  6E17               	movwf	___fladd@aexp^0,c
  7734  00430C  AE19               	btfss	___fladd@grs^0,7,c
  7735  00430E  EF8B  F021         	goto	u2571
  7736  004312  EF8D  F021         	goto	u2570
  7737  004316                     u2571:
  7738  004316  EFA5  F021         	goto	l991
  7739  00431A                     u2570:
  7740  00431A  C019  F012         	movff	___fladd@grs,??___fladd
  7741  00431E  0E7F               	movlw	127
  7742  004320  1612               	andwf	??___fladd^0,f,c
  7743  004322  B4D8               	btfsc	status,2,c
  7744  004324  EF96  F021         	goto	u2581
  7745  004328  EF98  F021         	goto	u2580
  7746  00432C                     u2581:
  7747  00432C  EF9C  F021         	goto	l992
  7748  004330                     u2580:
  7749  004330                     l2997:
  7750  004330  0E01               	movlw	1
  7751  004332  6E17               	movwf	___fladd@aexp^0,c
  7752  004334  EFA5  F021         	goto	l991
  7753  004338                     l992:
  7754  004338  A00A               	btfss	___fladd@b^0,0,c
  7755  00433A  EFA1  F021         	goto	u2591
  7756  00433E  EFA3  F021         	goto	u2590
  7757  004342                     u2591:
  7758  004342  EFA5  F021         	goto	l991
  7759  004346                     u2590:
  7760  004346  EF98  F021         	goto	l2997
  7761  00434A                     l991:
  7762  00434A  5017               	movf	___fladd@aexp^0,w,c
  7763  00434C  B4D8               	btfsc	status,2,c
  7764  00434E  EFAB  F021         	goto	u2601
  7765  004352  EFAD  F021         	goto	u2600
  7766  004356                     u2601:
  7767  004356  EFD8  F021         	goto	l3009
  7768  00435A                     u2600:
  7769  00435A  0E01               	movlw	1
  7770  00435C  260A               	addwf	___fladd@b^0,f,c
  7771  00435E  0E00               	movlw	0
  7772  004360  220B               	addwfc	(___fladd@b+1)^0,f,c
  7773  004362  220C               	addwfc	(___fladd@b+2)^0,f,c
  7774  004364  220D               	addwfc	(___fladd@b+3)^0,f,c
  7775  004366  A00D               	btfss	(___fladd@b+3)^0,0,c
  7776  004368  EFB8  F021         	goto	u2611
  7777  00436C  EFBA  F021         	goto	u2610
  7778  004370                     u2611:
  7779  004370  EFD8  F021         	goto	l3009
  7780  004374                     u2610:
  7781  004374  C00A  F012         	movff	___fladd@b,??___fladd
  7782  004378  C00B  F013         	movff	___fladd@b+1,??___fladd+1
  7783  00437C  C00C  F014         	movff	___fladd@b+2,??___fladd+2
  7784  004380  C00D  F015         	movff	___fladd@b+3,??___fladd+3
  7785  004384  3415               	rlcf	(??___fladd+3)^0,w,c
  7786  004386  3215               	rrcf	(??___fladd+3)^0,f,c
  7787  004388  3214               	rrcf	(??___fladd+2)^0,f,c
  7788  00438A  3213               	rrcf	(??___fladd+1)^0,f,c
  7789  00438C  3212               	rrcf	??___fladd^0,f,c
  7790  00438E  C012  F00A         	movff	??___fladd,___fladd@b
  7791  004392  C013  F00B         	movff	??___fladd+1,___fladd@b+1
  7792  004396  C014  F00C         	movff	??___fladd+2,___fladd@b+2
  7793  00439A  C015  F00D         	movff	??___fladd+3,___fladd@b+3
  7794  00439E  2818               	incf	___fladd@bexp^0,w,c
  7795  0043A0  B4D8               	btfsc	status,2,c
  7796  0043A2  EFD5  F021         	goto	u2621
  7797  0043A6  EFD7  F021         	goto	u2620
  7798  0043AA                     u2621:
  7799  0043AA  EFD8  F021         	goto	l3009
  7800  0043AE                     u2620:
  7801  0043AE  2A18               	incf	___fladd@bexp^0,f,c
  7802  0043B0                     l3009:
  7803  0043B0  2818               	incf	___fladd@bexp^0,w,c
  7804  0043B2  B4D8               	btfsc	status,2,c
  7805  0043B4  EFDE  F021         	goto	u2631
  7806  0043B8  EFE0  F021         	goto	u2630
  7807  0043BC                     u2631:
  7808  0043BC  EFE8  F021         	goto	l3013
  7809  0043C0                     u2630:
  7810  0043C0  5018               	movf	___fladd@bexp^0,w,c
  7811  0043C2  A4D8               	btfss	status,2,c
  7812  0043C4  EFE6  F021         	goto	u2641
  7813  0043C8  EFE8  F021         	goto	u2640
  7814  0043CC                     u2641:
  7815  0043CC  EFFA  F021         	goto	l3017
  7816  0043D0                     u2640:
  7817  0043D0                     l3013:
  7818  0043D0  0E00               	movlw	0
  7819  0043D2  6E0A               	movwf	___fladd@b^0,c
  7820  0043D4  0E00               	movlw	0
  7821  0043D6  6E0B               	movwf	(___fladd@b+1)^0,c
  7822  0043D8  0E00               	movlw	0
  7823  0043DA  6E0C               	movwf	(___fladd@b+2)^0,c
  7824  0043DC  0E00               	movlw	0
  7825  0043DE  6E0D               	movwf	(___fladd@b+3)^0,c
  7826  0043E0  5018               	movf	___fladd@bexp^0,w,c
  7827  0043E2  A4D8               	btfss	status,2,c
  7828  0043E4  EFF6  F021         	goto	u2651
  7829  0043E8  EFF8  F021         	goto	u2650
  7830  0043EC                     u2651:
  7831  0043EC  EFFA  F021         	goto	l3017
  7832  0043F0                     u2650:
  7833  0043F0  0E00               	movlw	0
  7834  0043F2  6E16               	movwf	___fladd@signs^0,c
  7835  0043F4                     l3017:
  7836  0043F4  A018               	btfss	___fladd@bexp^0,0,c
  7837  0043F6  EFFF  F021         	goto	u2661
  7838  0043FA  EF01  F022         	goto	u2660
  7839  0043FE                     u2661:
  7840  0043FE  EF04  F022         	goto	l3021
  7841  004402                     u2660:
  7842  004402  8E0C               	bsf	(___fladd@b+2)^0,7,c
  7843  004404  EF05  F022         	goto	l3023
  7844  004408                     l3021:
  7845  004408  9E0C               	bcf	(___fladd@b+2)^0,7,c
  7846  00440A                     l3023:
  7847  00440A  90D8               	bcf	status,0,c
  7848  00440C  3018               	rrcf	___fladd@bexp^0,w,c
  7849  00440E  6E0D               	movwf	(___fladd@b+3)^0,c
  7850  004410  AE16               	btfss	___fladd@signs^0,7,c
  7851  004412  EF0D  F022         	goto	u2671
  7852  004416  EF0F  F022         	goto	u2670
  7853  00441A                     u2671:
  7854  00441A  EF10  F022         	goto	l3029
  7855  00441E                     u2670:
  7856  00441E  8E0D               	bsf	(___fladd@b+3)^0,7,c
  7857  004420                     l3029:
  7858  004420  C00A  F00A         	movff	___fladd@b,?___fladd
  7859  004424  C00B  F00B         	movff	___fladd@b+1,?___fladd+1
  7860  004428  C00C  F00C         	movff	___fladd@b+2,?___fladd+2
  7861  00442C  C00D  F00D         	movff	___fladd@b+3,?___fladd+3
  7862  004430                     l974:
  7863  004430  0012               	return		;funcret
  7864  004432                     __end_of___fladd:
  7865                           	opt callstack 0
  7866                           
  7867 ;; *************** function ___flneg *****************
  7868 ;; Defined at:
  7869 ;;		line 15 in file "C:\Program Files (x86)\Microchip\xc8\v2.10\pic\sources\c99\common\flneg.c"
  7870 ;; Parameters:    Size  Location     Type
  7871 ;;  f1              4    9[COMRAM] unsigned char 
  7872 ;; Auto vars:     Size  Location     Type
  7873 ;;		None
  7874 ;; Return value:  Size  Location     Type
  7875 ;;                  4    9[COMRAM] unsigned char 
  7876 ;; Registers used:
  7877 ;;		wreg, status,2, status,0
  7878 ;; Tracked objects:
  7879 ;;		On entry : 0/0
  7880 ;;		On exit  : 0/0
  7881 ;;		Unchanged: 0/0
  7882 ;; Data sizes:     COMRAM   BANK0   BANK1   BANK2   BANK3   BANK4   BANK5   BANK6   BANK7   BANK8   BANK9  BANK10  BANK1
      +1  BANK12  BANK13  BANK14  BANK15
  7883 ;;      Params:         4       0       0       0       0       0       0       0       0       0       0       0       
      +0       0       0       0       0
  7884 ;;      Locals:         0       0       0       0       0       0       0       0       0       0       0       0       
      +0       0       0       0       0
  7885 ;;      Temps:          0       0       0       0       0       0       0       0       0       0       0       0       
      +0       0       0       0       0
  7886 ;;      Totals:         4       0       0       0       0       0       0       0       0       0       0       0       
      +0       0       0       0       0
  7887 ;;Total ram usage:        4 bytes
  7888 ;; Hardware stack levels used:    1
  7889 ;; Hardware stack levels required when called:    3
  7890 ;; This function calls:
  7891 ;;		Nothing
  7892 ;; This function is called by:
  7893 ;;		_powf
  7894 ;; This function uses a non-reentrant model
  7895 ;;
  7896                           
  7897                           	psect	text13
  7898  0058F4                     __ptext13:
  7899                           	opt callstack 0
  7900  0058F4                     ___flneg:
  7901                           	opt callstack 24
  7902  0058F4  500A               	movf	___flneg@f1^0,w,c
  7903  0058F6  100B               	iorwf	(___flneg@f1+1)^0,w,c
  7904  0058F8  100C               	iorwf	(___flneg@f1+2)^0,w,c
  7905  0058FA  100D               	iorwf	(___flneg@f1+3)^0,w,c
  7906  0058FC  B4D8               	btfsc	status,2,c
  7907  0058FE  EF83  F02C         	goto	u3151
  7908  005902  EF85  F02C         	goto	u3150
  7909  005906                     u3151:
  7910  005906  EF8D  F02C         	goto	l3339
  7911  00590A                     u3150:
  7912  00590A  0E00               	movlw	0
  7913  00590C  1A0A               	xorwf	___flneg@f1^0,f,c
  7914  00590E  0E00               	movlw	0
  7915  005910  1A0B               	xorwf	(___flneg@f1+1)^0,f,c
  7916  005912  0E00               	movlw	0
  7917  005914  1A0C               	xorwf	(___flneg@f1+2)^0,f,c
  7918  005916  0E80               	movlw	128
  7919  005918  1A0D               	xorwf	(___flneg@f1+3)^0,f,c
  7920  00591A                     l3339:
  7921  00591A  C00A  F00A         	movff	___flneg@f1,?___flneg
  7922  00591E  C00B  F00B         	movff	___flneg@f1+1,?___flneg+1
  7923  005922  C00C  F00C         	movff	___flneg@f1+2,?___flneg+2
  7924  005926  C00D  F00D         	movff	___flneg@f1+3,?___flneg+3
  7925  00592A  0012               	return		;funcret
  7926  00592C                     __end_of___flneg:
  7927                           	opt callstack 0
  7928                           
  7929 ;; *************** function ___fldiv *****************
  7930 ;; Defined at:
  7931 ;;		line 11 in file "C:\Program Files (x86)\Microchip\xc8\v2.10\pic\sources\c99\common\sprcdiv.c"
  7932 ;; Parameters:    Size  Location     Type
  7933 ;;  b               4   58[COMRAM] unsigned char 
  7934 ;;  a               4   62[COMRAM] unsigned char 
  7935 ;; Auto vars:     Size  Location     Type
  7936 ;;  grs             4    7[BANK0 ] unsigned long 
  7937 ;;  rem             4    0[BANK0 ] unsigned long 
  7938 ;;  new_exp         2    5[BANK0 ] short 
  7939 ;;  aexp            1   12[BANK0 ] unsigned char 
  7940 ;;  bexp            1   11[BANK0 ] unsigned char 
  7941 ;;  sign            1    4[BANK0 ] unsigned char 
  7942 ;; Return value:  Size  Location     Type
  7943 ;;                  4   58[COMRAM] unsigned char 
  7944 ;; Registers used:
  7945 ;;		wreg, status,2, status,0
  7946 ;; Tracked objects:
  7947 ;;		On entry : 0/0
  7948 ;;		On exit  : 0/0
  7949 ;;		Unchanged: 0/0
  7950 ;; Data sizes:     COMRAM   BANK0   BANK1   BANK2   BANK3   BANK4   BANK5   BANK6   BANK7   BANK8   BANK9  BANK10  BANK1
      +1  BANK12  BANK13  BANK14  BANK15
  7951 ;;      Params:         8       0       0       0       0       0       0       0       0       0       0       0       
      +0       0       0       0       0
  7952 ;;      Locals:         0      13       0       0       0       0       0       0       0       0       0       0       
      +0       0       0       0       0
  7953 ;;      Temps:          4       0       0       0       0       0       0       0       0       0       0       0       
      +0       0       0       0       0
  7954 ;;      Totals:        12      13       0       0       0       0       0       0       0       0       0       0       
      +0       0       0       0       0
  7955 ;;Total ram usage:       25 bytes
  7956 ;; Hardware stack levels used:    1
  7957 ;; Hardware stack levels required when called:    3
  7958 ;; This function calls:
  7959 ;;		Nothing
  7960 ;; This function is called by:
  7961 ;;		_powf
  7962 ;; This function uses a non-reentrant model
  7963 ;;
  7964                           
  7965                           	psect	text14
  7966  00485C                     __ptext14:
  7967                           	opt callstack 0
  7968  00485C                     ___fldiv:
  7969                           	opt callstack 24
  7970  00485C  503E               	movf	(___fldiv@b+3)^0,w,c
  7971  00485E  0B80               	andlw	128
  7972  004860  0100               	movlb	0	; () banked
  7973  004862  6F64               	movwf	___fldiv@sign& (0+255),b
  7974  004864  503E               	movf	(___fldiv@b+3)^0,w,c
  7975  004866  243E               	addwf	(___fldiv@b+3)^0,w,c
  7976  004868  6F6B               	movwf	___fldiv@bexp& (0+255),b
  7977  00486A                     
  7978                           ; BSR set to: 0
  7979  00486A  AE3D               	btfss	(___fldiv@b+2)^0,7,c
  7980  00486C  EF3A  F024         	goto	u4571
  7981  004870  EF3C  F024         	goto	u4570
  7982  004874                     u4571:
  7983  004874  EF3D  F024         	goto	l4317
  7984  004878                     u4570:
  7985  004878                     
  7986                           ; BSR set to: 0
  7987  004878  816B               	bsf	___fldiv@bexp& (0+255),0,b
  7988  00487A                     l4317:
  7989                           
  7990                           ; BSR set to: 0
  7991  00487A  516B               	movf	___fldiv@bexp& (0+255),w,b
  7992  00487C  B4D8               	btfsc	status,2,c
  7993  00487E  EF43  F024         	goto	u4581
  7994  004882  EF45  F024         	goto	u4580
  7995  004886                     u4581:
  7996  004886  EF5A  F024         	goto	l4327
  7997  00488A                     u4580:
  7998  00488A                     
  7999                           ; BSR set to: 0
  8000  00488A  296B               	incf	___fldiv@bexp& (0+255),w,b
  8001  00488C  A4D8               	btfss	status,2,c
  8002  00488E  EF4B  F024         	goto	u4591
  8003  004892  EF4D  F024         	goto	u4590
  8004  004896                     u4591:
  8005  004896  EF55  F024         	goto	l4323
  8006  00489A                     u4590:
  8007  00489A                     
  8008                           ; BSR set to: 0
  8009  00489A  0E00               	movlw	0
  8010  00489C  6E3B               	movwf	___fldiv@b^0,c
  8011  00489E  0E00               	movlw	0
  8012  0048A0  6E3C               	movwf	(___fldiv@b+1)^0,c
  8013  0048A2  0E00               	movlw	0
  8014  0048A4  6E3D               	movwf	(___fldiv@b+2)^0,c
  8015  0048A6  0E00               	movlw	0
  8016  0048A8  6E3E               	movwf	(___fldiv@b+3)^0,c
  8017  0048AA                     l4323:
  8018                           
  8019                           ; BSR set to: 0
  8020  0048AA  8E3D               	bsf	(___fldiv@b+2)^0,7,c
  8021  0048AC                     
  8022                           ; BSR set to: 0
  8023  0048AC  0E00               	movlw	0
  8024  0048AE  6E3E               	movwf	(___fldiv@b+3)^0,c
  8025  0048B0  EF62  F024         	goto	l4329
  8026  0048B4                     l4327:
  8027                           
  8028                           ; BSR set to: 0
  8029  0048B4  0E00               	movlw	0
  8030  0048B6  6E3B               	movwf	___fldiv@b^0,c
  8031  0048B8  0E00               	movlw	0
  8032  0048BA  6E3C               	movwf	(___fldiv@b+1)^0,c
  8033  0048BC  0E00               	movlw	0
  8034  0048BE  6E3D               	movwf	(___fldiv@b+2)^0,c
  8035  0048C0  0E00               	movlw	0
  8036  0048C2  6E3E               	movwf	(___fldiv@b+3)^0,c
  8037  0048C4                     l4329:
  8038                           
  8039                           ; BSR set to: 0
  8040  0048C4  5042               	movf	(___fldiv@a+3)^0,w,c
  8041  0048C6  0B80               	andlw	128
  8042  0048C8  1B64               	xorwf	___fldiv@sign& (0+255),f,b
  8043  0048CA                     
  8044                           ; BSR set to: 0
  8045  0048CA  5042               	movf	(___fldiv@a+3)^0,w,c
  8046  0048CC  2442               	addwf	(___fldiv@a+3)^0,w,c
  8047  0048CE  6F6C               	movwf	___fldiv@aexp& (0+255),b
  8048  0048D0                     
  8049                           ; BSR set to: 0
  8050  0048D0  AE41               	btfss	(___fldiv@a+2)^0,7,c
  8051  0048D2  EF6D  F024         	goto	u4601
  8052  0048D6  EF6F  F024         	goto	u4600
  8053  0048DA                     u4601:
  8054  0048DA  EF70  F024         	goto	l4337
  8055  0048DE                     u4600:
  8056  0048DE                     
  8057                           ; BSR set to: 0
  8058  0048DE  816C               	bsf	___fldiv@aexp& (0+255),0,b
  8059  0048E0                     l4337:
  8060                           
  8061                           ; BSR set to: 0
  8062  0048E0  516C               	movf	___fldiv@aexp& (0+255),w,b
  8063  0048E2  B4D8               	btfsc	status,2,c
  8064  0048E4  EF76  F024         	goto	u4611
  8065  0048E8  EF78  F024         	goto	u4610
  8066  0048EC                     u4611:
  8067  0048EC  EF8D  F024         	goto	l4347
  8068  0048F0                     u4610:
  8069  0048F0                     
  8070                           ; BSR set to: 0
  8071  0048F0  296C               	incf	___fldiv@aexp& (0+255),w,b
  8072  0048F2  A4D8               	btfss	status,2,c
  8073  0048F4  EF7E  F024         	goto	u4621
  8074  0048F8  EF80  F024         	goto	u4620
  8075  0048FC                     u4621:
  8076  0048FC  EF88  F024         	goto	l4343
  8077  004900                     u4620:
  8078  004900                     
  8079                           ; BSR set to: 0
  8080  004900  0E00               	movlw	0
  8081  004902  6E3F               	movwf	___fldiv@a^0,c
  8082  004904  0E00               	movlw	0
  8083  004906  6E40               	movwf	(___fldiv@a+1)^0,c
  8084  004908  0E00               	movlw	0
  8085  00490A  6E41               	movwf	(___fldiv@a+2)^0,c
  8086  00490C  0E00               	movlw	0
  8087  00490E  6E42               	movwf	(___fldiv@a+3)^0,c
  8088  004910                     l4343:
  8089                           
  8090                           ; BSR set to: 0
  8091  004910  8E41               	bsf	(___fldiv@a+2)^0,7,c
  8092  004912                     
  8093                           ; BSR set to: 0
  8094  004912  0E00               	movlw	0
  8095  004914  6E42               	movwf	(___fldiv@a+3)^0,c
  8096  004916  EF95  F024         	goto	l4349
  8097  00491A                     l4347:
  8098                           
  8099                           ; BSR set to: 0
  8100  00491A  0E00               	movlw	0
  8101  00491C  6E3F               	movwf	___fldiv@a^0,c
  8102  00491E  0E00               	movlw	0
  8103  004920  6E40               	movwf	(___fldiv@a+1)^0,c
  8104  004922  0E00               	movlw	0
  8105  004924  6E41               	movwf	(___fldiv@a+2)^0,c
  8106  004926  0E00               	movlw	0
  8107  004928  6E42               	movwf	(___fldiv@a+3)^0,c
  8108  00492A                     l4349:
  8109                           
  8110                           ; BSR set to: 0
  8111  00492A  503F               	movf	___fldiv@a^0,w,c
  8112  00492C  1040               	iorwf	(___fldiv@a+1)^0,w,c
  8113  00492E  1041               	iorwf	(___fldiv@a+2)^0,w,c
  8114  004930  1042               	iorwf	(___fldiv@a+3)^0,w,c
  8115  004932  A4D8               	btfss	status,2,c
  8116  004934  EF9E  F024         	goto	u4631
  8117  004938  EFA0  F024         	goto	u4630
  8118  00493C                     u4631:
  8119  00493C  EFB8  F024         	goto	l4361
  8120  004940                     u4630:
  8121  004940                     
  8122                           ; BSR set to: 0
  8123  004940  0E00               	movlw	0
  8124  004942  6E3B               	movwf	___fldiv@b^0,c
  8125  004944  0E00               	movlw	0
  8126  004946  6E3C               	movwf	(___fldiv@b+1)^0,c
  8127  004948  0E00               	movlw	0
  8128  00494A  6E3D               	movwf	(___fldiv@b+2)^0,c
  8129  00494C  0E00               	movlw	0
  8130  00494E  6E3E               	movwf	(___fldiv@b+3)^0,c
  8131  004950                     
  8132                           ; BSR set to: 0
  8133  004950  0E80               	movlw	128
  8134  004952  123D               	iorwf	(___fldiv@b+2)^0,f,c
  8135  004954  0E7F               	movlw	127
  8136  004956  123E               	iorwf	(___fldiv@b+3)^0,f,c
  8137  004958                     l4355:
  8138                           
  8139                           ; BSR set to: 0
  8140  004958  5164               	movf	___fldiv@sign& (0+255),w,b
  8141  00495A  123E               	iorwf	(___fldiv@b+3)^0,f,c
  8142  00495C                     
  8143                           ; BSR set to: 0
  8144  00495C  C03B  F03B         	movff	___fldiv@b,?___fldiv
  8145  004960  C03C  F03C         	movff	___fldiv@b+1,?___fldiv+1
  8146  004964  C03D  F03D         	movff	___fldiv@b+2,?___fldiv+2
  8147  004968  C03E  F03E         	movff	___fldiv@b+3,?___fldiv+3
  8148  00496C  EFFB  F025         	goto	l1019
  8149  004970                     l4361:
  8150                           
  8151                           ; BSR set to: 0
  8152  004970  516B               	movf	___fldiv@bexp& (0+255),w,b
  8153  004972  A4D8               	btfss	status,2,c
  8154  004974  EFBE  F024         	goto	u4641
  8155  004978  EFC0  F024         	goto	u4640
  8156  00497C                     u4641:
  8157  00497C  EFCA  F024         	goto	l4369
  8158  004980                     u4640:
  8159  004980                     
  8160                           ; BSR set to: 0
  8161  004980  0E00               	movlw	0
  8162  004982  6E3B               	movwf	?___fldiv^0,c
  8163  004984  0E00               	movlw	0
  8164  004986  6E3C               	movwf	(?___fldiv+1)^0,c
  8165  004988  0E00               	movlw	0
  8166  00498A  6E3D               	movwf	(?___fldiv+2)^0,c
  8167  00498C  0E00               	movlw	0
  8168  00498E  6E3E               	movwf	(?___fldiv+3)^0,c
  8169  004990  EFFB  F025         	goto	l1019
  8170  004994                     l4369:
  8171                           
  8172                           ; BSR set to: 0
  8173  004994  516C               	movf	___fldiv@aexp& (0+255),w,b
  8174  004996  C06B  F043         	movff	___fldiv@bexp,??___fldiv
  8175  00499A  6A44               	clrf	(??___fldiv+1)^0,c
  8176  00499C  5E43               	subwf	??___fldiv^0,f,c
  8177  00499E  0E00               	movlw	0
  8178  0049A0  5A44               	subwfb	(??___fldiv+1)^0,f,c
  8179  0049A2  0E7F               	movlw	127
  8180  0049A4  2443               	addwf	??___fldiv^0,w,c
  8181  0049A6  6F65               	movwf	___fldiv@new_exp& (0+255),b
  8182  0049A8  0E00               	movlw	0
  8183  0049AA  2044               	addwfc	(??___fldiv+1)^0,w,c
  8184  0049AC  6F66               	movwf	(___fldiv@new_exp+1)& (0+255),b
  8185  0049AE                     
  8186                           ; BSR set to: 0
  8187  0049AE  C03B  F060         	movff	___fldiv@b,___fldiv@rem
  8188  0049B2  C03C  F061         	movff	___fldiv@b+1,___fldiv@rem+1
  8189  0049B6  C03D  F062         	movff	___fldiv@b+2,___fldiv@rem+2
  8190  0049BA  C03E  F063         	movff	___fldiv@b+3,___fldiv@rem+3
  8191  0049BE                     
  8192                           ; BSR set to: 0
  8193  0049BE  0E00               	movlw	0
  8194  0049C0  6E3B               	movwf	___fldiv@b^0,c
  8195  0049C2  0E00               	movlw	0
  8196  0049C4  6E3C               	movwf	(___fldiv@b+1)^0,c
  8197  0049C6  0E00               	movlw	0
  8198  0049C8  6E3D               	movwf	(___fldiv@b+2)^0,c
  8199  0049CA  0E00               	movlw	0
  8200  0049CC  6E3E               	movwf	(___fldiv@b+3)^0,c
  8201  0049CE                     
  8202                           ; BSR set to: 0
  8203  0049CE  0E00               	movlw	0
  8204  0049D0  6F67               	movwf	___fldiv@grs& (0+255),b
  8205  0049D2  0E00               	movlw	0
  8206  0049D4  6F68               	movwf	(___fldiv@grs+1)& (0+255),b
  8207  0049D6  0E00               	movlw	0
  8208  0049D8  6F69               	movwf	(___fldiv@grs+2)& (0+255),b
  8209  0049DA  0E00               	movlw	0
  8210  0049DC  6F6A               	movwf	(___fldiv@grs+3)& (0+255),b
  8211  0049DE                     
  8212                           ; BSR set to: 0
  8213  0049DE  0E00               	movlw	0
  8214  0049E0  6F6C               	movwf	___fldiv@aexp& (0+255),b
  8215  0049E2  EF2B  F025         	goto	l1021
  8216  0049E6                     l4379:
  8217                           
  8218                           ; BSR set to: 0
  8219  0049E6  516C               	movf	___fldiv@aexp& (0+255),w,b
  8220  0049E8  B4D8               	btfsc	status,2,c
  8221  0049EA  EFF9  F024         	goto	u4651
  8222  0049EE  EFFB  F024         	goto	u4650
  8223  0049F2                     u4651:
  8224  0049F2  EF12  F025         	goto	l4387
  8225  0049F6                     u4650:
  8226  0049F6                     
  8227                           ; BSR set to: 0
  8228  0049F6  90D8               	bcf	status,0,c
  8229  0049F8  3760               	rlcf	___fldiv@rem& (0+255),f,b
  8230  0049FA  3761               	rlcf	(___fldiv@rem+1)& (0+255),f,b
  8231  0049FC  3762               	rlcf	(___fldiv@rem+2)& (0+255),f,b
  8232  0049FE  3763               	rlcf	(___fldiv@rem+3)& (0+255),f,b
  8233  004A00  90D8               	bcf	status,0,c
  8234  004A02  363B               	rlcf	___fldiv@b^0,f,c
  8235  004A04  363C               	rlcf	(___fldiv@b+1)^0,f,c
  8236  004A06  363D               	rlcf	(___fldiv@b+2)^0,f,c
  8237  004A08  363E               	rlcf	(___fldiv@b+3)^0,f,c
  8238  004A0A                     
  8239                           ; BSR set to: 0
  8240  004A0A  AF6A               	btfss	(___fldiv@grs+3)& (0+255),7,b
  8241  004A0C  EF0A  F025         	goto	u4661
  8242  004A10  EF0C  F025         	goto	u4660
  8243  004A14                     u4661:
  8244  004A14  EF0D  F025         	goto	l1024
  8245  004A18                     u4660:
  8246  004A18                     
  8247                           ; BSR set to: 0
  8248  004A18  803B               	bsf	___fldiv@b^0,0,c
  8249  004A1A                     l1024:
  8250                           
  8251                           ; BSR set to: 0
  8252  004A1A  90D8               	bcf	status,0,c
  8253  004A1C  3767               	rlcf	___fldiv@grs& (0+255),f,b
  8254  004A1E  3768               	rlcf	(___fldiv@grs+1)& (0+255),f,b
  8255  004A20  3769               	rlcf	(___fldiv@grs+2)& (0+255),f,b
  8256  004A22  376A               	rlcf	(___fldiv@grs+3)& (0+255),f,b
  8257  004A24                     l4387:
  8258                           
  8259                           ; BSR set to: 0
  8260  004A24  503F               	movf	___fldiv@a^0,w,c
  8261  004A26  5D60               	subwf	___fldiv@rem& (0+255),w,b
  8262  004A28  5040               	movf	(___fldiv@a+1)^0,w,c
  8263  004A2A  5961               	subwfb	(___fldiv@rem+1)& (0+255),w,b
  8264  004A2C  5041               	movf	(___fldiv@a+2)^0,w,c
  8265  004A2E  5962               	subwfb	(___fldiv@rem+2)& (0+255),w,b
  8266  004A30  5042               	movf	(___fldiv@a+3)^0,w,c
  8267  004A32  5963               	subwfb	(___fldiv@rem+3)& (0+255),w,b
  8268  004A34  A0D8               	btfss	status,0,c
  8269  004A36  EF1F  F025         	goto	u4671
  8270  004A3A  EF21  F025         	goto	u4670
  8271  004A3E                     u4671:
  8272  004A3E  EF2A  F025         	goto	l4393
  8273  004A42                     u4670:
  8274  004A42                     
  8275                           ; BSR set to: 0
  8276  004A42  8D6A               	bsf	(___fldiv@grs+3)& (0+255),6,b
  8277  004A44                     
  8278                           ; BSR set to: 0
  8279  004A44  503F               	movf	___fldiv@a^0,w,c
  8280  004A46  5F60               	subwf	___fldiv@rem& (0+255),f,b
  8281  004A48  5040               	movf	(___fldiv@a+1)^0,w,c
  8282  004A4A  5B61               	subwfb	(___fldiv@rem+1)& (0+255),f,b
  8283  004A4C  5041               	movf	(___fldiv@a+2)^0,w,c
  8284  004A4E  5B62               	subwfb	(___fldiv@rem+2)& (0+255),f,b
  8285  004A50  5042               	movf	(___fldiv@a+3)^0,w,c
  8286  004A52  5B63               	subwfb	(___fldiv@rem+3)& (0+255),f,b
  8287  004A54                     l4393:
  8288                           
  8289                           ; BSR set to: 0
  8290  004A54  2B6C               	incf	___fldiv@aexp& (0+255),f,b
  8291  004A56                     l1021:
  8292                           
  8293                           ; BSR set to: 0
  8294  004A56  0E19               	movlw	25
  8295  004A58  656C               	cpfsgt	___fldiv@aexp& (0+255),b
  8296  004A5A  EF31  F025         	goto	u4681
  8297  004A5E  EF33  F025         	goto	u4680
  8298  004A62                     u4681:
  8299  004A62  EFF3  F024         	goto	l4379
  8300  004A66                     u4680:
  8301  004A66                     
  8302                           ; BSR set to: 0
  8303  004A66  5160               	movf	___fldiv@rem& (0+255),w,b
  8304  004A68  1161               	iorwf	(___fldiv@rem+1)& (0+255),w,b
  8305  004A6A  1162               	iorwf	(___fldiv@rem+2)& (0+255),w,b
  8306  004A6C  1163               	iorwf	(___fldiv@rem+3)& (0+255),w,b
  8307  004A6E  B4D8               	btfsc	status,2,c
  8308  004A70  EF3C  F025         	goto	u4691
  8309  004A74  EF3E  F025         	goto	u4690
  8310  004A78                     u4691:
  8311  004A78  EF56  F025         	goto	l4405
  8312  004A7C                     u4690:
  8313  004A7C                     
  8314                           ; BSR set to: 0
  8315  004A7C  8167               	bsf	___fldiv@grs& (0+255),0,b
  8316  004A7E  EF56  F025         	goto	l4405
  8317  004A82                     l4399:
  8318                           
  8319                           ; BSR set to: 0
  8320  004A82  90D8               	bcf	status,0,c
  8321  004A84  363B               	rlcf	___fldiv@b^0,f,c
  8322  004A86  363C               	rlcf	(___fldiv@b+1)^0,f,c
  8323  004A88  363D               	rlcf	(___fldiv@b+2)^0,f,c
  8324  004A8A  363E               	rlcf	(___fldiv@b+3)^0,f,c
  8325  004A8C                     
  8326                           ; BSR set to: 0
  8327  004A8C  AF6A               	btfss	(___fldiv@grs+3)& (0+255),7,b
  8328  004A8E  EF4B  F025         	goto	u4701
  8329  004A92  EF4D  F025         	goto	u4700
  8330  004A96                     u4701:
  8331  004A96  EF4E  F025         	goto	l1030
  8332  004A9A                     u4700:
  8333  004A9A                     
  8334                           ; BSR set to: 0
  8335  004A9A  803B               	bsf	___fldiv@b^0,0,c
  8336  004A9C                     l1030:
  8337                           
  8338                           ; BSR set to: 0
  8339  004A9C  90D8               	bcf	status,0,c
  8340  004A9E  3767               	rlcf	___fldiv@grs& (0+255),f,b
  8341  004AA0  3768               	rlcf	(___fldiv@grs+1)& (0+255),f,b
  8342  004AA2  3769               	rlcf	(___fldiv@grs+2)& (0+255),f,b
  8343  004AA4  376A               	rlcf	(___fldiv@grs+3)& (0+255),f,b
  8344  004AA6  0765               	decf	___fldiv@new_exp& (0+255),f,b
  8345  004AA8  A0D8               	btfss	status,0,c
  8346  004AAA  0766               	decf	(___fldiv@new_exp+1)& (0+255),f,b
  8347  004AAC                     l4405:
  8348                           
  8349                           ; BSR set to: 0
  8350  004AAC  AE3D               	btfss	(___fldiv@b+2)^0,7,c
  8351  004AAE  EF5B  F025         	goto	u4711
  8352  004AB2  EF5D  F025         	goto	u4710
  8353  004AB6                     u4711:
  8354  004AB6  EF41  F025         	goto	l4399
  8355  004ABA                     u4710:
  8356  004ABA                     
  8357                           ; BSR set to: 0
  8358  004ABA  0E00               	movlw	0
  8359  004ABC  6F6C               	movwf	___fldiv@aexp& (0+255),b
  8360  004ABE                     
  8361                           ; BSR set to: 0
  8362  004ABE  AF6A               	btfss	(___fldiv@grs+3)& (0+255),7,b
  8363  004AC0  EF64  F025         	goto	u4721
  8364  004AC4  EF66  F025         	goto	u4720
  8365  004AC8                     u4721:
  8366  004AC8  EF8A  F025         	goto	l1032
  8367  004ACC                     u4720:
  8368  004ACC                     
  8369                           ; BSR set to: 0
  8370  004ACC  0EFF               	movlw	255
  8371  004ACE  1567               	andwf	___fldiv@grs& (0+255),w,b
  8372  004AD0  6E43               	movwf	??___fldiv^0,c
  8373  004AD2  0EFF               	movlw	255
  8374  004AD4  1568               	andwf	(___fldiv@grs+1)& (0+255),w,b
  8375  004AD6  6E44               	movwf	(??___fldiv+1)^0,c
  8376  004AD8  0EFF               	movlw	255
  8377  004ADA  1569               	andwf	(___fldiv@grs+2)& (0+255),w,b
  8378  004ADC  6E45               	movwf	(??___fldiv+2)^0,c
  8379  004ADE  0E7F               	movlw	127
  8380  004AE0  156A               	andwf	(___fldiv@grs+3)& (0+255),w,b
  8381  004AE2  6E46               	movwf	(??___fldiv+3)^0,c
  8382  004AE4  5043               	movf	??___fldiv^0,w,c
  8383  004AE6  1044               	iorwf	(??___fldiv+1)^0,w,c
  8384  004AE8  1045               	iorwf	(??___fldiv+2)^0,w,c
  8385  004AEA  1046               	iorwf	(??___fldiv+3)^0,w,c
  8386  004AEC  B4D8               	btfsc	status,2,c
  8387  004AEE  EF7B  F025         	goto	u4731
  8388  004AF2  EF7D  F025         	goto	u4730
  8389  004AF6                     u4731:
  8390  004AF6  EF81  F025         	goto	l1033
  8391  004AFA                     u4730:
  8392  004AFA                     l4413:
  8393                           
  8394                           ; BSR set to: 0
  8395  004AFA  0E01               	movlw	1
  8396  004AFC  6F6C               	movwf	___fldiv@aexp& (0+255),b
  8397  004AFE  EF8A  F025         	goto	l1032
  8398  004B02                     l1033:
  8399                           
  8400                           ; BSR set to: 0
  8401  004B02  A03B               	btfss	___fldiv@b^0,0,c
  8402  004B04  EF86  F025         	goto	u4741
  8403  004B08  EF88  F025         	goto	u4740
  8404  004B0C                     u4741:
  8405  004B0C  EF8A  F025         	goto	l1032
  8406  004B10                     u4740:
  8407  004B10  EF7D  F025         	goto	l4413
  8408  004B14                     l1032:
  8409                           
  8410                           ; BSR set to: 0
  8411  004B14  516C               	movf	___fldiv@aexp& (0+255),w,b
  8412  004B16  B4D8               	btfsc	status,2,c
  8413  004B18  EF90  F025         	goto	u4751
  8414  004B1C  EF92  F025         	goto	u4750
  8415  004B20                     u4751:
  8416  004B20  EFB6  F025         	goto	l4425
  8417  004B24                     u4750:
  8418  004B24                     
  8419                           ; BSR set to: 0
  8420  004B24  0E01               	movlw	1
  8421  004B26  263B               	addwf	___fldiv@b^0,f,c
  8422  004B28  0E00               	movlw	0
  8423  004B2A  223C               	addwfc	(___fldiv@b+1)^0,f,c
  8424  004B2C  223D               	addwfc	(___fldiv@b+2)^0,f,c
  8425  004B2E  223E               	addwfc	(___fldiv@b+3)^0,f,c
  8426  004B30                     
  8427                           ; BSR set to: 0
  8428  004B30  A03E               	btfss	(___fldiv@b+3)^0,0,c
  8429  004B32  EF9D  F025         	goto	u4761
  8430  004B36  EF9F  F025         	goto	u4760
  8431  004B3A                     u4761:
  8432  004B3A  EFB6  F025         	goto	l4425
  8433  004B3E                     u4760:
  8434  004B3E                     
  8435                           ; BSR set to: 0
  8436  004B3E  C03B  F043         	movff	___fldiv@b,??___fldiv
  8437  004B42  C03C  F044         	movff	___fldiv@b+1,??___fldiv+1
  8438  004B46  C03D  F045         	movff	___fldiv@b+2,??___fldiv+2
  8439  004B4A  C03E  F046         	movff	___fldiv@b+3,??___fldiv+3
  8440  004B4E  3446               	rlcf	(??___fldiv+3)^0,w,c
  8441  004B50  3246               	rrcf	(??___fldiv+3)^0,f,c
  8442  004B52  3245               	rrcf	(??___fldiv+2)^0,f,c
  8443  004B54  3244               	rrcf	(??___fldiv+1)^0,f,c
  8444  004B56  3243               	rrcf	??___fldiv^0,f,c
  8445  004B58  C043  F03B         	movff	??___fldiv,___fldiv@b
  8446  004B5C  C044  F03C         	movff	??___fldiv+1,___fldiv@b+1
  8447  004B60  C045  F03D         	movff	??___fldiv+2,___fldiv@b+2
  8448  004B64  C046  F03E         	movff	??___fldiv+3,___fldiv@b+3
  8449  004B68                     
  8450                           ; BSR set to: 0
  8451  004B68  4B65               	infsnz	___fldiv@new_exp& (0+255),f,b
  8452  004B6A  2B66               	incf	(___fldiv@new_exp+1)& (0+255),f,b
  8453  004B6C                     l4425:
  8454                           
  8455                           ; BSR set to: 0
  8456  004B6C  BF66               	btfsc	(___fldiv@new_exp+1)& (0+255),7,b
  8457  004B6E  EFC1  F025         	goto	u4771
  8458  004B72  5166               	movf	(___fldiv@new_exp+1)& (0+255),w,b
  8459  004B74  E108               	bnz	u4770
  8460  004B76  2965               	incf	___fldiv@new_exp& (0+255),w,b
  8461  004B78  A0D8               	btfss	status,0,c
  8462  004B7A  EFC1  F025         	goto	u4771
  8463  004B7E  EFC3  F025         	goto	u4770
  8464  004B82                     u4771:
  8465  004B82  EFCE  F025         	goto	l4429
  8466  004B86                     u4770:
  8467  004B86                     
  8468                           ; BSR set to: 0
  8469  004B86  0E00               	movlw	0
  8470  004B88  6F66               	movwf	(___fldiv@new_exp+1)& (0+255),b
  8471  004B8A  6965               	setf	___fldiv@new_exp& (0+255),b
  8472  004B8C  0E00               	movlw	0
  8473  004B8E  6E3B               	movwf	___fldiv@b^0,c
  8474  004B90  0E00               	movlw	0
  8475  004B92  6E3C               	movwf	(___fldiv@b+1)^0,c
  8476  004B94  0E00               	movlw	0
  8477  004B96  6E3D               	movwf	(___fldiv@b+2)^0,c
  8478  004B98  0E00               	movlw	0
  8479  004B9A  6E3E               	movwf	(___fldiv@b+3)^0,c
  8480  004B9C                     l4429:
  8481                           
  8482                           ; BSR set to: 0
  8483  004B9C  BF66               	btfsc	(___fldiv@new_exp+1)& (0+255),7,b
  8484  004B9E  EFDB  F025         	goto	u4780
  8485  004BA2  5166               	movf	(___fldiv@new_exp+1)& (0+255),w,b
  8486  004BA4  E106               	bnz	u4781
  8487  004BA6  0565               	decf	___fldiv@new_exp& (0+255),w,b
  8488  004BA8  B0D8               	btfsc	status,0,c
  8489  004BAA  EFD9  F025         	goto	u4781
  8490  004BAE  EFDB  F025         	goto	u4780
  8491  004BB2                     u4781:
  8492  004BB2  EFE9  F025         	goto	l4433
  8493  004BB6                     u4780:
  8494  004BB6                     
  8495                           ; BSR set to: 0
  8496  004BB6  0E00               	movlw	0
  8497  004BB8  6F66               	movwf	(___fldiv@new_exp+1)& (0+255),b
  8498  004BBA  0E00               	movlw	0
  8499  004BBC  6F65               	movwf	___fldiv@new_exp& (0+255),b
  8500  004BBE  0E00               	movlw	0
  8501  004BC0  6E3B               	movwf	___fldiv@b^0,c
  8502  004BC2  0E00               	movlw	0
  8503  004BC4  6E3C               	movwf	(___fldiv@b+1)^0,c
  8504  004BC6  0E00               	movlw	0
  8505  004BC8  6E3D               	movwf	(___fldiv@b+2)^0,c
  8506  004BCA  0E00               	movlw	0
  8507  004BCC  6E3E               	movwf	(___fldiv@b+3)^0,c
  8508  004BCE  0E00               	movlw	0
  8509  004BD0  6F64               	movwf	___fldiv@sign& (0+255),b
  8510  004BD2                     l4433:
  8511                           
  8512                           ; BSR set to: 0
  8513  004BD2  C065  F06B         	movff	___fldiv@new_exp,___fldiv@bexp
  8514  004BD6                     
  8515                           ; BSR set to: 0
  8516  004BD6  A16B               	btfss	___fldiv@bexp& (0+255),0,b
  8517  004BD8  EFF0  F025         	goto	u4791
  8518  004BDC  EFF2  F025         	goto	u4790
  8519  004BE0                     u4791:
  8520  004BE0  EFF5  F025         	goto	l4439
  8521  004BE4                     u4790:
  8522  004BE4                     
  8523                           ; BSR set to: 0
  8524  004BE4  8E3D               	bsf	(___fldiv@b+2)^0,7,c
  8525  004BE6  EFF6  F025         	goto	l4441
  8526  004BEA                     l4439:
  8527                           
  8528                           ; BSR set to: 0
  8529  004BEA  9E3D               	bcf	(___fldiv@b+2)^0,7,c
  8530  004BEC                     l4441:
  8531                           
  8532                           ; BSR set to: 0
  8533  004BEC  90D8               	bcf	status,0,c
  8534  004BEE  316B               	rrcf	___fldiv@bexp& (0+255),w,b
  8535  004BF0  6E3E               	movwf	(___fldiv@b+3)^0,c
  8536  004BF2  EFAC  F024         	goto	l4355
  8537  004BF6                     l1019:
  8538                           
  8539                           ; BSR set to: 0
  8540  004BF6  0012               	return		;funcret
  8541  004BF8                     __end_of___fldiv:
  8542                           	opt callstack 0
  8543                           
  8544 ;; *************** function ___fltol *****************
  8545 ;; Defined at:
  8546 ;;		line 43 in file "C:\Program Files (x86)\Microchip\xc8\v2.10\pic\sources\c99\common\fltol.c"
  8547 ;; Parameters:    Size  Location     Type
  8548 ;;  f1              4   62[BANK0 ] unsigned char 
  8549 ;; Auto vars:     Size  Location     Type
  8550 ;;  exp1            1   75[COMRAM] unsigned char 
  8551 ;;  sign1           1   74[COMRAM] unsigned char 
  8552 ;; Return value:  Size  Location     Type
  8553 ;;                  4   62[BANK0 ] long 
  8554 ;; Registers used:
  8555 ;;		wreg, status,2, status,0
  8556 ;; Tracked objects:
  8557 ;;		On entry : 0/0
  8558 ;;		On exit  : 0/0
  8559 ;;		Unchanged: 0/0
  8560 ;; Data sizes:     COMRAM   BANK0   BANK1   BANK2   BANK3   BANK4   BANK5   BANK6   BANK7   BANK8   BANK9  BANK10  BANK1
      +1  BANK12  BANK13  BANK14  BANK15
  8561 ;;      Params:         0       4       0       0       0       0       0       0       0       0       0       0       
      +0       0       0       0       0
  8562 ;;      Locals:         2       0       0       0       0       0       0       0       0       0       0       0       
      +0       0       0       0       0
  8563 ;;      Temps:          0       4       0       0       0       0       0       0       0       0       0       0       
      +0       0       0       0       0
  8564 ;;      Totals:         2       8       0       0       0       0       0       0       0       0       0       0       
      +0       0       0       0       0
  8565 ;;Total ram usage:       10 bytes
  8566 ;; Hardware stack levels used:    1
  8567 ;; Hardware stack levels required when called:    3
  8568 ;; This function calls:
  8569 ;;		Nothing
  8570 ;; This function is called by:
  8571 ;;		_preCalculate
  8572 ;; This function uses a non-reentrant model
  8573 ;;
  8574                           
  8575                           	psect	text15
  8576  00538A                     __ptext15:
  8577                           	opt callstack 0
  8578  00538A                     ___fltol:
  8579                           	opt callstack 25
  8580  00538A  0100               	movlb	0	; () banked
  8581  00538C  35A0               	rlcf	(___fltol@f1+2)& (0+255),w,b
  8582  00538E  35A1               	rlcf	(___fltol@f1+3)& (0+255),w,b
  8583  005390  6E4C               	movwf	___fltol@exp1^0,c
  8584  005392  504C               	movf	___fltol@exp1^0,w,c
  8585  005394  A4D8               	btfss	status,2,c
  8586  005396  EFCF  F029         	goto	u4101
  8587  00539A  EFD1  F029         	goto	u4100
  8588  00539E                     u4101:
  8589  00539E  EFDB  F029         	goto	l4013
  8590  0053A2                     u4100:
  8591  0053A2                     l4009:
  8592                           
  8593                           ; BSR set to: 0
  8594  0053A2  0E00               	movlw	0
  8595  0053A4  6F9E               	movwf	?___fltol& (0+255),b
  8596  0053A6  0E00               	movlw	0
  8597  0053A8  6F9F               	movwf	(?___fltol+1)& (0+255),b
  8598  0053AA  0E00               	movlw	0
  8599  0053AC  6FA0               	movwf	(?___fltol+2)& (0+255),b
  8600  0053AE  0E00               	movlw	0
  8601  0053B0  6FA1               	movwf	(?___fltol+3)& (0+255),b
  8602  0053B2  EF48  F02A         	goto	l734
  8603  0053B6                     l4013:
  8604                           
  8605                           ; BSR set to: 0
  8606  0053B6  C09E  F0A2         	movff	___fltol@f1,??___fltol
  8607  0053BA  C09F  F0A3         	movff	___fltol@f1+1,??___fltol+1
  8608  0053BE  C0A0  F0A4         	movff	___fltol@f1+2,??___fltol+2
  8609  0053C2  C0A1  F0A5         	movff	___fltol@f1+3,??___fltol+3
  8610  0053C6  0E20               	movlw	32
  8611  0053C8  EFEB  F029         	goto	u4110
  8612  0053CC                     u4115:
  8613  0053CC  90D8               	bcf	status,0,c
  8614  0053CE  33A5               	rrcf	(??___fltol+3)& (0+255),f,b
  8615  0053D0  33A4               	rrcf	(??___fltol+2)& (0+255),f,b
  8616  0053D2  33A3               	rrcf	(??___fltol+1)& (0+255),f,b
  8617  0053D4  33A2               	rrcf	??___fltol& (0+255),f,b
  8618  0053D6                     u4110:
  8619  0053D6  2EE8               	decfsz	wreg,f,c
  8620  0053D8  EFE6  F029         	goto	u4115
  8621  0053DC  51A2               	movf	??___fltol& (0+255),w,b
  8622  0053DE  6E4B               	movwf	___fltol@sign1^0,c
  8623  0053E0                     
  8624                           ; BSR set to: 0
  8625  0053E0  8FA0               	bsf	(___fltol@f1+2)& (0+255),7,b
  8626  0053E2                     
  8627                           ; BSR set to: 0
  8628  0053E2  0EFF               	movlw	255
  8629  0053E4  179E               	andwf	___fltol@f1& (0+255),f,b
  8630  0053E6  0EFF               	movlw	255
  8631  0053E8  179F               	andwf	(___fltol@f1+1)& (0+255),f,b
  8632  0053EA  0EFF               	movlw	255
  8633  0053EC  17A0               	andwf	(___fltol@f1+2)& (0+255),f,b
  8634  0053EE  0E00               	movlw	0
  8635  0053F0  17A1               	andwf	(___fltol@f1+3)& (0+255),f,b
  8636  0053F2                     
  8637                           ; BSR set to: 0
  8638  0053F2  0E96               	movlw	150
  8639  0053F4  5E4C               	subwf	___fltol@exp1^0,f,c
  8640  0053F6                     
  8641                           ; BSR set to: 0
  8642  0053F6  BE4C               	btfsc	___fltol@exp1^0,7,c
  8643  0053F8  EF02  F02A         	goto	u4120
  8644  0053FC  EF00  F02A         	goto	u4121
  8645  005400                     u4121:
  8646  005400  EF18  F02A         	goto	l4033
  8647  005404                     u4120:
  8648  005404                     
  8649                           ; BSR set to: 0
  8650  005404  504C               	movf	___fltol@exp1^0,w,c
  8651  005406  0A80               	xorlw	128
  8652  005408  0F97               	addlw	151
  8653  00540A  B0D8               	btfsc	status,0,c
  8654  00540C  EF0A  F02A         	goto	u4131
  8655  005410  EF0C  F02A         	goto	u4130
  8656  005414                     u4131:
  8657  005414  EF0E  F02A         	goto	l4029
  8658  005418                     u4130:
  8659  005418  EFD1  F029         	goto	l4009
  8660  00541C                     l4029:
  8661                           
  8662                           ; BSR set to: 0
  8663  00541C  90D8               	bcf	status,0,c
  8664  00541E  33A1               	rrcf	(___fltol@f1+3)& (0+255),f,b
  8665  005420  33A0               	rrcf	(___fltol@f1+2)& (0+255),f,b
  8666  005422  339F               	rrcf	(___fltol@f1+1)& (0+255),f,b
  8667  005424  339E               	rrcf	___fltol@f1& (0+255),f,b
  8668  005426                     
  8669                           ; BSR set to: 0
  8670  005426  3E4C               	incfsz	___fltol@exp1^0,f,c
  8671  005428  EF0E  F02A         	goto	l4029
  8672  00542C  EF30  F02A         	goto	l4043
  8673  005430                     l4033:
  8674                           
  8675                           ; BSR set to: 0
  8676  005430  0E1F               	movlw	31
  8677  005432  644C               	cpfsgt	___fltol@exp1^0,c
  8678  005434  EF1E  F02A         	goto	u4141
  8679  005438  EF20  F02A         	goto	u4140
  8680  00543C                     u4141:
  8681  00543C  EF28  F02A         	goto	l4041
  8682  005440                     u4140:
  8683  005440  EFD1  F029         	goto	l4009
  8684  005444                     l4039:
  8685                           
  8686                           ; BSR set to: 0
  8687  005444  90D8               	bcf	status,0,c
  8688  005446  379E               	rlcf	___fltol@f1& (0+255),f,b
  8689  005448  379F               	rlcf	(___fltol@f1+1)& (0+255),f,b
  8690  00544A  37A0               	rlcf	(___fltol@f1+2)& (0+255),f,b
  8691  00544C  37A1               	rlcf	(___fltol@f1+3)& (0+255),f,b
  8692  00544E  064C               	decf	___fltol@exp1^0,f,c
  8693  005450                     l4041:
  8694                           
  8695                           ; BSR set to: 0
  8696  005450  504C               	movf	___fltol@exp1^0,w,c
  8697  005452  A4D8               	btfss	status,2,c
  8698  005454  EF2E  F02A         	goto	u4151
  8699  005458  EF30  F02A         	goto	u4150
  8700  00545C                     u4151:
  8701  00545C  EF22  F02A         	goto	l4039
  8702  005460                     u4150:
  8703  005460                     l4043:
  8704                           
  8705                           ; BSR set to: 0
  8706  005460  504B               	movf	___fltol@sign1^0,w,c
  8707  005462  B4D8               	btfsc	status,2,c
  8708  005464  EF36  F02A         	goto	u4161
  8709  005468  EF38  F02A         	goto	u4160
  8710  00546C                     u4161:
  8711  00546C  EF40  F02A         	goto	l4047
  8712  005470                     u4160:
  8713  005470                     
  8714                           ; BSR set to: 0
  8715  005470  1FA1               	comf	(___fltol@f1+3)& (0+255),f,b
  8716  005472  1FA0               	comf	(___fltol@f1+2)& (0+255),f,b
  8717  005474  1F9F               	comf	(___fltol@f1+1)& (0+255),f,b
  8718  005476  6D9E               	negf	___fltol@f1& (0+255),b
  8719  005478  0E00               	movlw	0
  8720  00547A  239F               	addwfc	(___fltol@f1+1)& (0+255),f,b
  8721  00547C  23A0               	addwfc	(___fltol@f1+2)& (0+255),f,b
  8722  00547E  23A1               	addwfc	(___fltol@f1+3)& (0+255),f,b
  8723  005480                     l4047:
  8724                           
  8725                           ; BSR set to: 0
  8726  005480  C09E  F09E         	movff	___fltol@f1,?___fltol
  8727  005484  C09F  F09F         	movff	___fltol@f1+1,?___fltol+1
  8728  005488  C0A0  F0A0         	movff	___fltol@f1+2,?___fltol+2
  8729  00548C  C0A1  F0A1         	movff	___fltol@f1+3,?___fltol+3
  8730  005490                     l734:
  8731                           
  8732                           ; BSR set to: 0
  8733  005490  0012               	return		;funcret
  8734  005492                     __end_of___fltol:
  8735                           	opt callstack 0
  8736                           
  8737 ;; *************** function ___awdiv *****************
  8738 ;; Defined at:
  8739 ;;		line 7 in file "C:\Program Files (x86)\Microchip\xc8\v2.10\pic\sources\c99\common\awdiv.c"
  8740 ;; Parameters:    Size  Location     Type
  8741 ;;  dividend        2    9[COMRAM] int 
  8742 ;;  divisor         2   11[COMRAM] int 
  8743 ;; Auto vars:     Size  Location     Type
  8744 ;;  quotient        2   15[COMRAM] int 
  8745 ;;  sign            1   14[COMRAM] unsigned char 
  8746 ;;  counter         1   13[COMRAM] unsigned char 
  8747 ;; Return value:  Size  Location     Type
  8748 ;;                  2    9[COMRAM] int 
  8749 ;; Registers used:
  8750 ;;		wreg, status,2, status,0
  8751 ;; Tracked objects:
  8752 ;;		On entry : 0/0
  8753 ;;		On exit  : 0/0
  8754 ;;		Unchanged: 0/0
  8755 ;; Data sizes:     COMRAM   BANK0   BANK1   BANK2   BANK3   BANK4   BANK5   BANK6   BANK7   BANK8   BANK9  BANK10  BANK1
      +1  BANK12  BANK13  BANK14  BANK15
  8756 ;;      Params:         4       0       0       0       0       0       0       0       0       0       0       0       
      +0       0       0       0       0
  8757 ;;      Locals:         4       0       0       0       0       0       0       0       0       0       0       0       
      +0       0       0       0       0
  8758 ;;      Temps:          0       0       0       0       0       0       0       0       0       0       0       0       
      +0       0       0       0       0
  8759 ;;      Totals:         8       0       0       0       0       0       0       0       0       0       0       0       
      +0       0       0       0       0
  8760 ;;Total ram usage:        8 bytes
  8761 ;; Hardware stack levels used:    1
  8762 ;; Hardware stack levels required when called:    3
  8763 ;; This function calls:
  8764 ;;		Nothing
  8765 ;; This function is called by:
  8766 ;;		_preCalculate
  8767 ;; This function uses a non-reentrant model
  8768 ;;
  8769                           
  8770                           	psect	text16
  8771  005684                     __ptext16:
  8772                           	opt callstack 0
  8773  005684                     ___awdiv:
  8774                           	opt callstack 25
  8775  005684  0E00               	movlw	0
  8776  005686  6E0F               	movwf	___awdiv@sign^0,c
  8777  005688  BE0D               	btfsc	(___awdiv@divisor+1)^0,7,c
  8778  00568A  EF4B  F02B         	goto	u4040
  8779  00568E  EF49  F02B         	goto	u4041
  8780  005692                     u4041:
  8781  005692  EF51  F02B         	goto	l3971
  8782  005696                     u4040:
  8783  005696  6C0C               	negf	___awdiv@divisor^0,c
  8784  005698  1E0D               	comf	(___awdiv@divisor+1)^0,f,c
  8785  00569A  B0D8               	btfsc	status,0,c
  8786  00569C  2A0D               	incf	(___awdiv@divisor+1)^0,f,c
  8787  00569E  0E01               	movlw	1
  8788  0056A0  6E0F               	movwf	___awdiv@sign^0,c
  8789  0056A2                     l3971:
  8790  0056A2  BE0B               	btfsc	(___awdiv@dividend+1)^0,7,c
  8791  0056A4  EF58  F02B         	goto	u4050
  8792  0056A8  EF56  F02B         	goto	u4051
  8793  0056AC                     u4051:
  8794  0056AC  EF5E  F02B         	goto	l3977
  8795  0056B0                     u4050:
  8796  0056B0  6C0A               	negf	___awdiv@dividend^0,c
  8797  0056B2  1E0B               	comf	(___awdiv@dividend+1)^0,f,c
  8798  0056B4  B0D8               	btfsc	status,0,c
  8799  0056B6  2A0B               	incf	(___awdiv@dividend+1)^0,f,c
  8800  0056B8  0E01               	movlw	1
  8801  0056BA  1A0F               	xorwf	___awdiv@sign^0,f,c
  8802  0056BC                     l3977:
  8803  0056BC  0E00               	movlw	0
  8804  0056BE  6E11               	movwf	(___awdiv@quotient+1)^0,c
  8805  0056C0  0E00               	movlw	0
  8806  0056C2  6E10               	movwf	___awdiv@quotient^0,c
  8807  0056C4  500C               	movf	___awdiv@divisor^0,w,c
  8808  0056C6  100D               	iorwf	(___awdiv@divisor+1)^0,w,c
  8809  0056C8  B4D8               	btfsc	status,2,c
  8810  0056CA  EF69  F02B         	goto	u4061
  8811  0056CE  EF6B  F02B         	goto	u4060
  8812  0056D2                     u4061:
  8813  0056D2  EF93  F02B         	goto	l3999
  8814  0056D6                     u4060:
  8815  0056D6  0E01               	movlw	1
  8816  0056D8  6E0E               	movwf	___awdiv@counter^0,c
  8817  0056DA  EF73  F02B         	goto	l3985
  8818  0056DE                     l3983:
  8819  0056DE  90D8               	bcf	status,0,c
  8820  0056E0  360C               	rlcf	___awdiv@divisor^0,f,c
  8821  0056E2  360D               	rlcf	(___awdiv@divisor+1)^0,f,c
  8822  0056E4  2A0E               	incf	___awdiv@counter^0,f,c
  8823  0056E6                     l3985:
  8824  0056E6  AE0D               	btfss	(___awdiv@divisor+1)^0,7,c
  8825  0056E8  EF78  F02B         	goto	u4071
  8826  0056EC  EF7A  F02B         	goto	u4070
  8827  0056F0                     u4071:
  8828  0056F0  EF6F  F02B         	goto	l3983
  8829  0056F4                     u4070:
  8830  0056F4                     l3987:
  8831  0056F4  90D8               	bcf	status,0,c
  8832  0056F6  3610               	rlcf	___awdiv@quotient^0,f,c
  8833  0056F8  3611               	rlcf	(___awdiv@quotient+1)^0,f,c
  8834  0056FA  500C               	movf	___awdiv@divisor^0,w,c
  8835  0056FC  5C0A               	subwf	___awdiv@dividend^0,w,c
  8836  0056FE  500D               	movf	(___awdiv@divisor+1)^0,w,c
  8837  005700  580B               	subwfb	(___awdiv@dividend+1)^0,w,c
  8838  005702  A0D8               	btfss	status,0,c
  8839  005704  EF86  F02B         	goto	u4081
  8840  005708  EF88  F02B         	goto	u4080
  8841  00570C                     u4081:
  8842  00570C  EF8D  F02B         	goto	l3995
  8843  005710                     u4080:
  8844  005710  500C               	movf	___awdiv@divisor^0,w,c
  8845  005712  5E0A               	subwf	___awdiv@dividend^0,f,c
  8846  005714  500D               	movf	(___awdiv@divisor+1)^0,w,c
  8847  005716  5A0B               	subwfb	(___awdiv@dividend+1)^0,f,c
  8848  005718  8010               	bsf	___awdiv@quotient^0,0,c
  8849  00571A                     l3995:
  8850  00571A  90D8               	bcf	status,0,c
  8851  00571C  320D               	rrcf	(___awdiv@divisor+1)^0,f,c
  8852  00571E  320C               	rrcf	___awdiv@divisor^0,f,c
  8853  005720  2E0E               	decfsz	___awdiv@counter^0,f,c
  8854  005722  EF7A  F02B         	goto	l3987
  8855  005726                     l3999:
  8856  005726  500F               	movf	___awdiv@sign^0,w,c
  8857  005728  B4D8               	btfsc	status,2,c
  8858  00572A  EF99  F02B         	goto	u4091
  8859  00572E  EF9B  F02B         	goto	u4090
  8860  005732                     u4091:
  8861  005732  EF9F  F02B         	goto	l4003
  8862  005736                     u4090:
  8863  005736  6C10               	negf	___awdiv@quotient^0,c
  8864  005738  1E11               	comf	(___awdiv@quotient+1)^0,f,c
  8865  00573A  B0D8               	btfsc	status,0,c
  8866  00573C  2A11               	incf	(___awdiv@quotient+1)^0,f,c
  8867  00573E                     l4003:
  8868  00573E  C010  F00A         	movff	___awdiv@quotient,?___awdiv
  8869  005742  C011  F00B         	movff	___awdiv@quotient+1,?___awdiv+1
  8870  005746  0012               	return		;funcret
  8871  005748                     __end_of___awdiv:
  8872                           	opt callstack 0
  8873                           
  8874 ;; *************** function _pin_init *****************
  8875 ;; Defined at:
  8876 ;;		line 4 in file "pin_manager.c"
  8877 ;; Parameters:    Size  Location     Type
  8878 ;;		None
  8879 ;; Auto vars:     Size  Location     Type
  8880 ;;		None
  8881 ;; Return value:  Size  Location     Type
  8882 ;;                  1    wreg      void 
  8883 ;; Registers used:
  8884 ;;		wreg, status,2
  8885 ;; Tracked objects:
  8886 ;;		On entry : 0/0
  8887 ;;		On exit  : 0/0
  8888 ;;		Unchanged: 0/0
  8889 ;; Data sizes:     COMRAM   BANK0   BANK1   BANK2   BANK3   BANK4   BANK5   BANK6   BANK7   BANK8   BANK9  BANK10  BANK1
      +1  BANK12  BANK13  BANK14  BANK15
  8890 ;;      Params:         0       0       0       0       0       0       0       0       0       0       0       0       
      +0       0       0       0       0
  8891 ;;      Locals:         0       0       0       0       0       0       0       0       0       0       0       0       
      +0       0       0       0       0
  8892 ;;      Temps:          0       0       0       0       0       0       0       0       0       0       0       0       
      +0       0       0       0       0
  8893 ;;      Totals:         0       0       0       0       0       0       0       0       0       0       0       0       
      +0       0       0       0       0
  8894 ;;Total ram usage:        0 bytes
  8895 ;; Hardware stack levels used:    1
  8896 ;; Hardware stack levels required when called:    3
  8897 ;; This function calls:
  8898 ;;		Nothing
  8899 ;; This function is called by:
  8900 ;;		_main
  8901 ;; This function uses a non-reentrant model
  8902 ;;
  8903                           
  8904                           	psect	text17
  8905  0059CE                     __ptext17:
  8906                           	opt callstack 0
  8907  0059CE                     _pin_init:
  8908                           	opt callstack 27
  8909  0059CE                     
  8910                           ;pin_manager.c: 5:     TRISD = 0x00;
  8911  0059CE  0E00               	movlw	0
  8912  0059D0  6E95               	movwf	149,c	;volatile
  8913                           
  8914                           ;pin_manager.c: 6:     LATD = 0x00;
  8915  0059D2  0E00               	movlw	0
  8916  0059D4  6E8C               	movwf	140,c	;volatile
  8917  0059D6                     
  8918                           ;pin_manager.c: 8:     TRISAbits.TRISA5 = 1;
  8919  0059D6  8A92               	bsf	146,5,c	;volatile
  8920  0059D8                     
  8921                           ;pin_manager.c: 9:     TRISBbits.TRISB0 = 1;
  8922  0059D8  8093               	bsf	147,0,c	;volatile
  8923                           
  8924                           ;pin_manager.c: 10:     ADCON1 = 0b00001111;
  8925  0059DA  0E0F               	movlw	15
  8926  0059DC  6EC1               	movwf	193,c	;volatile
  8927  0059DE  0012               	return		;funcret
  8928  0059E0                     __end_of_pin_init:
  8929                           	opt callstack 0
  8930                           
  8931 ;; *************** function _osc_init *****************
  8932 ;; Defined at:
  8933 ;;		line 4 in file "osc_manager.c"
  8934 ;; Parameters:    Size  Location     Type
  8935 ;;		None
  8936 ;; Auto vars:     Size  Location     Type
  8937 ;;		None
  8938 ;; Return value:  Size  Location     Type
  8939 ;;                  1    wreg      void 
  8940 ;; Registers used:
  8941 ;;		wreg, status,2
  8942 ;; Tracked objects:
  8943 ;;		On entry : 0/0
  8944 ;;		On exit  : 0/0
  8945 ;;		Unchanged: 0/0
  8946 ;; Data sizes:     COMRAM   BANK0   BANK1   BANK2   BANK3   BANK4   BANK5   BANK6   BANK7   BANK8   BANK9  BANK10  BANK1
      +1  BANK12  BANK13  BANK14  BANK15
  8947 ;;      Params:         0       0       0       0       0       0       0       0       0       0       0       0       
      +0       0       0       0       0
  8948 ;;      Locals:         0       0       0       0       0       0       0       0       0       0       0       0       
      +0       0       0       0       0
  8949 ;;      Temps:          0       0       0       0       0       0       0       0       0       0       0       0       
      +0       0       0       0       0
  8950 ;;      Totals:         0       0       0       0       0       0       0       0       0       0       0       0       
      +0       0       0       0       0
  8951 ;;Total ram usage:        0 bytes
  8952 ;; Hardware stack levels used:    1
  8953 ;; Hardware stack levels required when called:    3
  8954 ;; This function calls:
  8955 ;;		Nothing
  8956 ;; This function is called by:
  8957 ;;		_main
  8958 ;; This function uses a non-reentrant model
  8959 ;;
  8960                           
  8961                           	psect	text18
  8962  0059EE                     __ptext18:
  8963                           	opt callstack 0
  8964  0059EE                     _osc_init:
  8965                           	opt callstack 27
  8966  0059EE                     
  8967                           ;osc_manager.c: 5:     OSCCON = 0b01100111;
  8968  0059EE  0E67               	movlw	103
  8969  0059F0  6ED3               	movwf	211,c	;volatile
  8970                           
  8971                           ;osc_manager.c: 6:     OSCTUNE = 0b00001111;
  8972  0059F2  0E0F               	movlw	15
  8973  0059F4  6E9B               	movwf	155,c	;volatile
  8974  0059F6  0012               	return		;funcret
  8975  0059F8                     __end_of_osc_init:
  8976                           	opt callstack 0
  8977                           
  8978 ;; *************** function _interrupt_init *****************
  8979 ;; Defined at:
  8980 ;;		line 4 in file "interrupt_manager.c"
  8981 ;; Parameters:    Size  Location     Type
  8982 ;;		None
  8983 ;; Auto vars:     Size  Location     Type
  8984 ;;		None
  8985 ;; Return value:  Size  Location     Type
  8986 ;;                  1    wreg      void 
  8987 ;; Registers used:
  8988 ;;		None
  8989 ;; Tracked objects:
  8990 ;;		On entry : 0/0
  8991 ;;		On exit  : 0/0
  8992 ;;		Unchanged: 0/0
  8993 ;; Data sizes:     COMRAM   BANK0   BANK1   BANK2   BANK3   BANK4   BANK5   BANK6   BANK7   BANK8   BANK9  BANK10  BANK1
      +1  BANK12  BANK13  BANK14  BANK15
  8994 ;;      Params:         0       0       0       0       0       0       0       0       0       0       0       0       
      +0       0       0       0       0
  8995 ;;      Locals:         0       0       0       0       0       0       0       0       0       0       0       0       
      +0       0       0       0       0
  8996 ;;      Temps:          0       0       0       0       0       0       0       0       0       0       0       0       
      +0       0       0       0       0
  8997 ;;      Totals:         0       0       0       0       0       0       0       0       0       0       0       0       
      +0       0       0       0       0
  8998 ;;Total ram usage:        0 bytes
  8999 ;; Hardware stack levels used:    1
  9000 ;; Hardware stack levels required when called:    3
  9001 ;; This function calls:
  9002 ;;		Nothing
  9003 ;; This function is called by:
  9004 ;;		_main
  9005 ;; This function uses a non-reentrant model
  9006 ;;
  9007                           
  9008                           	psect	text19
  9009  005A02                     __ptext19:
  9010                           	opt callstack 0
  9011  005A02                     _interrupt_init:
  9012                           	opt callstack 27
  9013  005A02                     
  9014                           ;interrupt_manager.c: 5:     INTCONbits.TMR0IE = 1;
  9015  005A02  8AF2               	bsf	242,5,c	;volatile
  9016                           
  9017                           ;interrupt_manager.c: 6:     INTCONbits.GIE = 1;
  9018  005A04  8EF2               	bsf	242,7,c	;volatile
  9019  005A06  0012               	return		;funcret
  9020  005A08                     __end_of_interrupt_init:
  9021                           	opt callstack 0
  9022                           
  9023 ;; *************** function _FSM *****************
  9024 ;; Defined at:
  9025 ;;		line 4 in file "myFSM.c"
  9026 ;; Parameters:    Size  Location     Type
  9027 ;;		None
  9028 ;; Auto vars:     Size  Location     Type
  9029 ;;		None
  9030 ;; Return value:  Size  Location     Type
  9031 ;;                  1    wreg      void 
  9032 ;; Registers used:
  9033 ;;		wreg, status,2, status,0
  9034 ;; Tracked objects:
  9035 ;;		On entry : 0/0
  9036 ;;		On exit  : 0/0
  9037 ;;		Unchanged: 0/0
  9038 ;; Data sizes:     COMRAM   BANK0   BANK1   BANK2   BANK3   BANK4   BANK5   BANK6   BANK7   BANK8   BANK9  BANK10  BANK1
      +1  BANK12  BANK13  BANK14  BANK15
  9039 ;;      Params:         0       0       0       0       0       0       0       0       0       0       0       0       
      +0       0       0       0       0
  9040 ;;      Locals:         0       0       0       0       0       0       0       0       0       0       0       0       
      +0       0       0       0       0
  9041 ;;      Temps:          2       0       0       0       0       0       0       0       0       0       0       0       
      +0       0       0       0       0
  9042 ;;      Totals:         2       0       0       0       0       0       0       0       0       0       0       0       
      +0       0       0       0       0
  9043 ;;Total ram usage:        2 bytes
  9044 ;; Hardware stack levels used:    1
  9045 ;; Hardware stack levels required when called:    3
  9046 ;; This function calls:
  9047 ;;		Nothing
  9048 ;; This function is called by:
  9049 ;;		_main
  9050 ;; This function uses a non-reentrant model
  9051 ;;
  9052                           
  9053                           	psect	text20
  9054  004BF8                     __ptext20:
  9055                           	opt callstack 0
  9056  004BF8                     _FSM:
  9057                           	opt callstack 27
  9058  004BF8                     
  9059                           ;myFSM.c: 5:     LATD = ledValue;
  9060  004BF8  C051  FF8C         	movff	_ledValue,3980	;volatile
  9061                           
  9062                           ;myFSM.c: 6:     switch(state) {
  9063  004BFC  EF04  F027         	goto	l4231
  9064  004C00                     l4129:
  9065                           
  9066                           ;myFSM.c: 8:                 if(countRA5 > 0) {
  9067  004C00  504F               	movf	_countRA5^0,w,c
  9068  004C02  1050               	iorwf	(_countRA5+1)^0,w,c
  9069  004C04  B4D8               	btfsc	status,2,c
  9070  004C06  EF07  F026         	goto	u4251
  9071  004C0A  EF09  F026         	goto	u4250
  9072  004C0E                     u4251:
  9073  004C0E  EF0E  F026         	goto	l4135
  9074  004C12                     u4250:
  9075  004C12                     
  9076                           ;myFSM.c: 9:                     ledValue++;
  9077  004C12  2A51               	incf	_ledValue^0,f,c
  9078  004C14                     l4133:
  9079                           
  9080                           ;myFSM.c: 11:                     state = INCREASE0;
  9081  004C14  0E01               	movlw	1
  9082  004C16  6E52               	movwf	_state^0,c	;volatile
  9083                           
  9084                           ;myFSM.c: 12:                 }
  9085  004C18  EF2D  F027         	goto	l387
  9086  004C1C                     l4135:
  9087  004C1C  504D               	movf	_countRB0^0,w,c
  9088  004C1E  104E               	iorwf	(_countRB0+1)^0,w,c
  9089  004C20  B4D8               	btfsc	status,2,c
  9090  004C22  EF15  F026         	goto	u4261
  9091  004C26  EF17  F026         	goto	u4260
  9092  004C2A                     u4261:
  9093  004C2A  EF2D  F027         	goto	l387
  9094  004C2E                     u4260:
  9095  004C2E                     
  9096                           ;myFSM.c: 14:                     ledValue--;
  9097  004C2E  0651               	decf	_ledValue^0,f,c
  9098  004C30                     l4139:
  9099                           
  9100                           ;myFSM.c: 16:                     state = DECREASE0;
  9101  004C30  0E04               	movlw	4
  9102  004C32  6E52               	movwf	_state^0,c	;volatile
  9103  004C34  EF2D  F027         	goto	l387
  9104  004C38                     l4141:
  9105  004C38  5050               	movf	(_countRA5+1)^0,w,c
  9106  004C3A  E109               	bnz	u4270
  9107  004C3C  0E65               	movlw	101
  9108  004C3E  5C4F               	subwf	_countRA5^0,w,c
  9109  004C40  A0D8               	btfss	status,0,c
  9110  004C42  EF25  F026         	goto	u4271
  9111  004C46  EF27  F026         	goto	u4270
  9112  004C4A                     u4271:
  9113  004C4A  EF2B  F026         	goto	l4145
  9114  004C4E                     u4270:
  9115  004C4E                     
  9116                           ;myFSM.c: 21:                     state = INCREASE1;
  9117  004C4E  0E02               	movlw	2
  9118  004C50  6E52               	movwf	_state^0,c	;volatile
  9119  004C52  EF2D  F027         	goto	l387
  9120  004C56                     l4145:
  9121  004C56  504F               	movf	_countRA5^0,w,c
  9122  004C58  1050               	iorwf	(_countRA5+1)^0,w,c
  9123  004C5A  A4D8               	btfss	status,2,c
  9124  004C5C  EF32  F026         	goto	u4281
  9125  004C60  EF34  F026         	goto	u4280
  9126  004C64                     u4281:
  9127  004C64  EF2D  F027         	goto	l387
  9128  004C68                     u4280:
  9129  004C68                     
  9130                           ;myFSM.c: 23:                     if(countRB0 > 0)
  9131  004C68  504D               	movf	_countRB0^0,w,c
  9132  004C6A  104E               	iorwf	(_countRB0+1)^0,w,c
  9133  004C6C  B4D8               	btfsc	status,2,c
  9134  004C6E  EF3B  F026         	goto	u4291
  9135  004C72  EF3D  F026         	goto	u4290
  9136  004C76                     u4291:
  9137  004C76  EF3F  F026         	goto	l4151
  9138  004C7A                     u4290:
  9139  004C7A  EF18  F026         	goto	l4139
  9140  004C7E                     l4151:
  9141                           
  9142                           ;myFSM.c: 26:                         state = INIT;
  9143  004C7E  0E00               	movlw	0
  9144  004C80  6E52               	movwf	_state^0,c	;volatile
  9145  004C82  EF2D  F027         	goto	l387
  9146  004C86                     l4153:
  9147                           
  9148                           ;myFSM.c: 29:                 if(increase1) {
  9149  004C86  0100               	movlb	0	; () banked
  9150  004C88  51BF               	movf	_increase1& (0+255),w,b
  9151  004C8A  B4D8               	btfsc	status,2,c
  9152  004C8C  EF4A  F026         	goto	u4301
  9153  004C90  EF4C  F026         	goto	u4300
  9154  004C94                     u4301:
  9155  004C94  EF4F  F026         	goto	l4159
  9156  004C98                     u4300:
  9157  004C98                     
  9158                           ; BSR set to: 0
  9159                           ;myFSM.c: 30:                     ledValue++;
  9160  004C98  2A51               	incf	_ledValue^0,f,c
  9161  004C9A                     
  9162                           ; BSR set to: 0
  9163                           ;myFSM.c: 32:                     increase1 = 0;
  9164  004C9A  0E00               	movlw	0
  9165  004C9C  6FBF               	movwf	_increase1& (0+255),b
  9166  004C9E                     l4159:
  9167                           
  9168                           ; BSR set to: 0
  9169  004C9E  0EF5               	movlw	245
  9170  004CA0  5C4F               	subwf	_countRA5^0,w,c
  9171  004CA2  0E01               	movlw	1
  9172  004CA4  5850               	subwfb	(_countRA5+1)^0,w,c
  9173  004CA6  A0D8               	btfss	status,0,c
  9174  004CA8  EF58  F026         	goto	u4311
  9175  004CAC  EF5A  F026         	goto	u4310
  9176  004CB0                     u4311:
  9177  004CB0  EF5E  F026         	goto	l4163
  9178  004CB4                     u4310:
  9179  004CB4                     
  9180                           ; BSR set to: 0
  9181                           ;myFSM.c: 35:                     state = INCREASE2;
  9182  004CB4  0E03               	movlw	3
  9183  004CB6  6E52               	movwf	_state^0,c	;volatile
  9184  004CB8  EF2D  F027         	goto	l387
  9185  004CBC                     l4163:
  9186                           
  9187                           ; BSR set to: 0
  9188  004CBC  504F               	movf	_countRA5^0,w,c
  9189  004CBE  1050               	iorwf	(_countRA5+1)^0,w,c
  9190  004CC0  A4D8               	btfss	status,2,c
  9191  004CC2  EF65  F026         	goto	u4321
  9192  004CC6  EF67  F026         	goto	u4320
  9193  004CCA                     u4321:
  9194  004CCA  EF2D  F027         	goto	l387
  9195  004CCE                     u4320:
  9196  004CCE                     
  9197                           ; BSR set to: 0
  9198                           ;myFSM.c: 37:                     if(countRB0 > 0)
  9199  004CCE  504D               	movf	_countRB0^0,w,c
  9200  004CD0  104E               	iorwf	(_countRB0+1)^0,w,c
  9201  004CD2  B4D8               	btfsc	status,2,c
  9202  004CD4  EF6E  F026         	goto	u4331
  9203  004CD8  EF70  F026         	goto	u4330
  9204  004CDC                     u4331:
  9205  004CDC  EF3F  F026         	goto	l4151
  9206  004CE0                     u4330:
  9207  004CE0  EF18  F026         	goto	l4139
  9208  004CE4                     l4171:
  9209                           
  9210                           ;myFSM.c: 43:                 if(increase2) {
  9211  004CE4  0100               	movlb	0	; () banked
  9212  004CE6  51BE               	movf	_increase2& (0+255),w,b
  9213  004CE8  B4D8               	btfsc	status,2,c
  9214  004CEA  EF79  F026         	goto	u4341
  9215  004CEE  EF7B  F026         	goto	u4340
  9216  004CF2                     u4341:
  9217  004CF2  EF7E  F026         	goto	l4177
  9218  004CF6                     u4340:
  9219  004CF6                     
  9220                           ; BSR set to: 0
  9221                           ;myFSM.c: 44:                     ledValue++;
  9222  004CF6  2A51               	incf	_ledValue^0,f,c
  9223  004CF8                     
  9224                           ; BSR set to: 0
  9225                           ;myFSM.c: 46:                     increase2 = 0;
  9226  004CF8  0E00               	movlw	0
  9227  004CFA  6FBE               	movwf	_increase2& (0+255),b
  9228  004CFC                     l4177:
  9229                           
  9230                           ; BSR set to: 0
  9231                           ;myFSM.c: 48:                 if(countRA5 == 0)
  9232  004CFC  504F               	movf	_countRA5^0,w,c
  9233  004CFE  1050               	iorwf	(_countRA5+1)^0,w,c
  9234  004D00  A4D8               	btfss	status,2,c
  9235  004D02  EF85  F026         	goto	u4351
  9236  004D06  EF87  F026         	goto	u4350
  9237  004D0A                     u4351:
  9238  004D0A  EF2D  F027         	goto	l387
  9239  004D0E                     u4350:
  9240  004D0E                     
  9241                           ; BSR set to: 0
  9242                           ;myFSM.c: 49:                     if(countRB0 > 0)
  9243  004D0E  504D               	movf	_countRB0^0,w,c
  9244  004D10  104E               	iorwf	(_countRB0+1)^0,w,c
  9245  004D12  B4D8               	btfsc	status,2,c
  9246  004D14  EF8E  F026         	goto	u4361
  9247  004D18  EF90  F026         	goto	u4360
  9248  004D1C                     u4361:
  9249  004D1C  EF3F  F026         	goto	l4151
  9250  004D20                     u4360:
  9251  004D20  EF18  F026         	goto	l4139
  9252  004D24                     l4185:
  9253  004D24  504E               	movf	(_countRB0+1)^0,w,c
  9254  004D26  E109               	bnz	u4370
  9255  004D28  0E65               	movlw	101
  9256  004D2A  5C4D               	subwf	_countRB0^0,w,c
  9257  004D2C  A0D8               	btfss	status,0,c
  9258  004D2E  EF9B  F026         	goto	u4371
  9259  004D32  EF9D  F026         	goto	u4370
  9260  004D36                     u4371:
  9261  004D36  EFA1  F026         	goto	l4189
  9262  004D3A                     u4370:
  9263  004D3A                     
  9264                           ;myFSM.c: 56:                     state = DECREASE1;
  9265  004D3A  0E05               	movlw	5
  9266  004D3C  6E52               	movwf	_state^0,c	;volatile
  9267  004D3E  EF2D  F027         	goto	l387
  9268  004D42                     l4189:
  9269  004D42  504D               	movf	_countRB0^0,w,c
  9270  004D44  104E               	iorwf	(_countRB0+1)^0,w,c
  9271  004D46  A4D8               	btfss	status,2,c
  9272  004D48  EFA8  F026         	goto	u4381
  9273  004D4C  EFAA  F026         	goto	u4380
  9274  004D50                     u4381:
  9275  004D50  EF2D  F027         	goto	l387
  9276  004D54                     u4380:
  9277  004D54                     
  9278                           ;myFSM.c: 58:                     if(countRA5 > 0)
  9279  004D54  504F               	movf	_countRA5^0,w,c
  9280  004D56  1050               	iorwf	(_countRA5+1)^0,w,c
  9281  004D58  B4D8               	btfsc	status,2,c
  9282  004D5A  EFB1  F026         	goto	u4391
  9283  004D5E  EFB3  F026         	goto	u4390
  9284  004D62                     u4391:
  9285  004D62  EF3F  F026         	goto	l4151
  9286  004D66                     u4390:
  9287  004D66  EF0A  F026         	goto	l4133
  9288  004D6A                     l4197:
  9289                           
  9290                           ;myFSM.c: 64:                 if(decrease1) {
  9291  004D6A  0100               	movlb	0	; () banked
  9292  004D6C  51BD               	movf	_decrease1& (0+255),w,b
  9293  004D6E  B4D8               	btfsc	status,2,c
  9294  004D70  EFBC  F026         	goto	u4401
  9295  004D74  EFBE  F026         	goto	u4400
  9296  004D78                     u4401:
  9297  004D78  EFC1  F026         	goto	l4203
  9298  004D7C                     u4400:
  9299  004D7C                     
  9300                           ; BSR set to: 0
  9301                           ;myFSM.c: 65:                     ledValue--;
  9302  004D7C  0651               	decf	_ledValue^0,f,c
  9303  004D7E                     
  9304                           ; BSR set to: 0
  9305                           ;myFSM.c: 67:                     decrease1 = 0;
  9306  004D7E  0E00               	movlw	0
  9307  004D80  6FBD               	movwf	_decrease1& (0+255),b
  9308  004D82                     l4203:
  9309                           
  9310                           ; BSR set to: 0
  9311  004D82  0EF5               	movlw	245
  9312  004D84  5C4D               	subwf	_countRB0^0,w,c
  9313  004D86  0E01               	movlw	1
  9314  004D88  584E               	subwfb	(_countRB0+1)^0,w,c
  9315  004D8A  A0D8               	btfss	status,0,c
  9316  004D8C  EFCA  F026         	goto	u4411
  9317  004D90  EFCC  F026         	goto	u4410
  9318  004D94                     u4411:
  9319  004D94  EFD0  F026         	goto	l4207
  9320  004D98                     u4410:
  9321  004D98                     
  9322                           ; BSR set to: 0
  9323                           ;myFSM.c: 70:                     state = DECREASE2;
  9324  004D98  0E06               	movlw	6
  9325  004D9A  6E52               	movwf	_state^0,c	;volatile
  9326  004D9C  EF2D  F027         	goto	l387
  9327  004DA0                     l4207:
  9328                           
  9329                           ; BSR set to: 0
  9330  004DA0  504D               	movf	_countRB0^0,w,c
  9331  004DA2  104E               	iorwf	(_countRB0+1)^0,w,c
  9332  004DA4  A4D8               	btfss	status,2,c
  9333  004DA6  EFD7  F026         	goto	u4421
  9334  004DAA  EFD9  F026         	goto	u4420
  9335  004DAE                     u4421:
  9336  004DAE  EF2D  F027         	goto	l387
  9337  004DB2                     u4420:
  9338  004DB2                     
  9339                           ; BSR set to: 0
  9340                           ;myFSM.c: 72:                     if(countRA5 > 0)
  9341  004DB2  504F               	movf	_countRA5^0,w,c
  9342  004DB4  1050               	iorwf	(_countRA5+1)^0,w,c
  9343  004DB6  B4D8               	btfsc	status,2,c
  9344  004DB8  EFE0  F026         	goto	u4431
  9345  004DBC  EFE2  F026         	goto	u4430
  9346  004DC0                     u4431:
  9347  004DC0  EF3F  F026         	goto	l4151
  9348  004DC4                     u4430:
  9349  004DC4  EF0A  F026         	goto	l4133
  9350  004DC8                     l4215:
  9351                           
  9352                           ;myFSM.c: 78:                 if(decrease2) {
  9353  004DC8  0100               	movlb	0	; () banked
  9354  004DCA  51BC               	movf	_decrease2& (0+255),w,b
  9355  004DCC  B4D8               	btfsc	status,2,c
  9356  004DCE  EFEB  F026         	goto	u4441
  9357  004DD2  EFED  F026         	goto	u4440
  9358  004DD6                     u4441:
  9359  004DD6  EFF0  F026         	goto	l4221
  9360  004DDA                     u4440:
  9361  004DDA                     
  9362                           ; BSR set to: 0
  9363                           ;myFSM.c: 79:                     ledValue--;
  9364  004DDA  0651               	decf	_ledValue^0,f,c
  9365  004DDC                     
  9366                           ; BSR set to: 0
  9367                           ;myFSM.c: 81:                     decrease2 = 0;
  9368  004DDC  0E00               	movlw	0
  9369  004DDE  6FBC               	movwf	_decrease2& (0+255),b
  9370  004DE0                     l4221:
  9371                           
  9372                           ; BSR set to: 0
  9373                           ;myFSM.c: 83:                 if(countRB0 == 0)
  9374  004DE0  504D               	movf	_countRB0^0,w,c
  9375  004DE2  104E               	iorwf	(_countRB0+1)^0,w,c
  9376  004DE4  A4D8               	btfss	status,2,c
  9377  004DE6  EFF7  F026         	goto	u4451
  9378  004DEA  EFF9  F026         	goto	u4450
  9379  004DEE                     u4451:
  9380  004DEE  EF2D  F027         	goto	l387
  9381  004DF2                     u4450:
  9382  004DF2                     
  9383                           ; BSR set to: 0
  9384                           ;myFSM.c: 84:                     if(countRA5 > 0)
  9385  004DF2  504F               	movf	_countRA5^0,w,c
  9386  004DF4  1050               	iorwf	(_countRA5+1)^0,w,c
  9387  004DF6  B4D8               	btfsc	status,2,c
  9388  004DF8  EF00  F027         	goto	u4461
  9389  004DFC  EF02  F027         	goto	u4460
  9390  004E00                     u4461:
  9391  004E00  EF3F  F026         	goto	l4151
  9392  004E04                     u4460:
  9393  004E04  EF0A  F026         	goto	l4133
  9394  004E08                     l4231:
  9395  004E08  5052               	movf	_state^0,w,c	;volatile
  9396  004E0A  6E0A               	movwf	??_FSM^0,c
  9397  004E0C  6A0B               	clrf	(??_FSM+1)^0,c
  9398                           
  9399                           ; Switch on 2 bytes has been partitioned into a top level switch of size 1, and 1 sub-sw
      +                          itches
  9400                           ; Switch size 1, requested type "simple"
  9401                           ; Number of cases is 1, Range of values is 0 to 0
  9402                           ; switch strategies available:
  9403                           ; Name         Instructions Cycles
  9404                           ; simple_byte            4     3 (average)
  9405                           ;	Chosen strategy is simple_byte
  9406  004E0E  500B               	movf	(??_FSM+1)^0,w,c
  9407  004E10  0A00               	xorlw	0	; case 0
  9408  004E12  B4D8               	btfsc	status,2,c
  9409  004E14  EF0E  F027         	goto	l5027
  9410  004E18  EF2D  F027         	goto	l387
  9411  004E1C                     l5027:
  9412                           
  9413                           ; Switch size 1, requested type "simple"
  9414                           ; Number of cases is 7, Range of values is 0 to 6
  9415                           ; switch strategies available:
  9416                           ; Name         Instructions Cycles
  9417                           ; simple_byte           22    12 (average)
  9418                           ;	Chosen strategy is simple_byte
  9419  004E1C  500A               	movf	??_FSM^0,w,c
  9420  004E1E  0A00               	xorlw	0	; case 0
  9421  004E20  B4D8               	btfsc	status,2,c
  9422  004E22  EF00  F026         	goto	l4129
  9423  004E26  0A01               	xorlw	1	; case 1
  9424  004E28  B4D8               	btfsc	status,2,c
  9425  004E2A  EF1C  F026         	goto	l4141
  9426  004E2E  0A03               	xorlw	3	; case 2
  9427  004E30  B4D8               	btfsc	status,2,c
  9428  004E32  EF43  F026         	goto	l4153
  9429  004E36  0A01               	xorlw	1	; case 3
  9430  004E38  B4D8               	btfsc	status,2,c
  9431  004E3A  EF72  F026         	goto	l4171
  9432  004E3E  0A07               	xorlw	7	; case 4
  9433  004E40  B4D8               	btfsc	status,2,c
  9434  004E42  EF92  F026         	goto	l4185
  9435  004E46  0A01               	xorlw	1	; case 5
  9436  004E48  B4D8               	btfsc	status,2,c
  9437  004E4A  EFB5  F026         	goto	l4197
  9438  004E4E  0A03               	xorlw	3	; case 6
  9439  004E50  B4D8               	btfsc	status,2,c
  9440  004E52  EFE4  F026         	goto	l4215
  9441  004E56  EF2D  F027         	goto	l387
  9442  004E5A                     l387:
  9443  004E5A  0012               	return		;funcret
  9444  004E5C                     __end_of_FSM:
  9445                           	opt callstack 0
  9446                           
  9447 ;; *************** function _myISR *****************
  9448 ;; Defined at:
  9449 ;;		line 9 in file "interrupt_manager.c"
  9450 ;; Parameters:    Size  Location     Type
  9451 ;;		None
  9452 ;; Auto vars:     Size  Location     Type
  9453 ;;		None
  9454 ;; Return value:  Size  Location     Type
  9455 ;;                  1    wreg      void 
  9456 ;; Registers used:
  9457 ;;		wreg, status,2, status,0, cstack
  9458 ;; Tracked objects:
  9459 ;;		On entry : 0/0
  9460 ;;		On exit  : 0/0
  9461 ;;		Unchanged: 0/0
  9462 ;; Data sizes:     COMRAM   BANK0   BANK1   BANK2   BANK3   BANK4   BANK5   BANK6   BANK7   BANK8   BANK9  BANK10  BANK1
      +1  BANK12  BANK13  BANK14  BANK15
  9463 ;;      Params:         0       0       0       0       0       0       0       0       0       0       0       0       
      +0       0       0       0       0
  9464 ;;      Locals:         0       0       0       0       0       0       0       0       0       0       0       0       
      +0       0       0       0       0
  9465 ;;      Temps:          0       0       0       0       0       0       0       0       0       0       0       0       
      +0       0       0       0       0
  9466 ;;      Totals:         0       0       0       0       0       0       0       0       0       0       0       0       
      +0       0       0       0       0
  9467 ;;Total ram usage:        0 bytes
  9468 ;; Hardware stack levels used:    1
  9469 ;; Hardware stack levels required when called:    2
  9470 ;; This function calls:
  9471 ;;		_handleButton
  9472 ;; This function is called by:
  9473 ;;		Interrupt level 2
  9474 ;; This function uses a non-reentrant model
  9475 ;;
  9476                           
  9477                           	psect	intcode
  9478  000008                     __pintcode:
  9479                           	opt callstack 0
  9480  000008                     _myISR:
  9481                           	opt callstack 23
  9482                           
  9483                           ;incstack = 0
  9484  000008  8256               	bsf	int$flags,1,c	;set compiler interrupt flag (level 2)
  9485  00000A  EDB0  F02C         	call	int_func,f	;refresh shadow registers
  9486                           
  9487                           	psect	intcode_body
  9488  005960                     __pintcode_body:
  9489                           	opt callstack 23
  9490  005960                     int_func:
  9491                           	opt callstack 23
  9492  005960  0006               	pop		; remove dummy address from shadow register refresh
  9493  005962                     
  9494                           ;interrupt_manager.c: 10:     if(INTCONbits.TMR0IE && INTCONbits.TMR0IF) {
  9495  005962  AAF2               	btfss	242,5,c	;volatile
  9496  005964  EFB6  F02C         	goto	i2u455_41
  9497  005968  EFB8  F02C         	goto	i2u455_40
  9498  00596C                     i2u455_41:
  9499  00596C  EFC6  F02C         	goto	i2l115
  9500  005970                     i2u455_40:
  9501  005970  A4F2               	btfss	242,2,c	;volatile
  9502  005972  EFBD  F02C         	goto	i2u456_41
  9503  005976  EFBF  F02C         	goto	i2u456_40
  9504  00597A                     i2u456_41:
  9505  00597A  EFC6  F02C         	goto	i2l115
  9506  00597E                     i2u456_40:
  9507  00597E                     
  9508                           ;interrupt_manager.c: 11:         INTCONbits.TMR0IF = 0;
  9509  00597E  94F2               	bcf	242,2,c	;volatile
  9510                           
  9511                           ;interrupt_manager.c: 12:         TMR0L = counter_low;
  9512  005980  C0BA  FFD6         	movff	_counter_low,4054	;volatile
  9513                           
  9514                           ;interrupt_manager.c: 13:         TMR0H = counter_high;
  9515  005984  C0B8  FFD7         	movff	_counter_high,4055	;volatile
  9516  005988                     
  9517                           ;interrupt_manager.c: 15:         handleButton();
  9518  005988  EC22  F029         	call	_handleButton	;wreg free
  9519  00598C                     i2l115:
  9520  00598C  9256               	bcf	int$flags,1,c	;clear compiler interrupt flag (level 2)
  9521  00598E  0011               	retfie		f
  9522  005990                     __end_of_myISR:
  9523                           	opt callstack 0
  9524                           
  9525 ;; *************** function _handleButton *****************
  9526 ;; Defined at:
  9527 ;;		line 22 in file "buttons.c"
  9528 ;; Parameters:    Size  Location     Type
  9529 ;;		None
  9530 ;; Auto vars:     Size  Location     Type
  9531 ;;  checkRB0        2    7[COMRAM] int 
  9532 ;;  checkRA5        2    5[COMRAM] int 
  9533 ;; Return value:  Size  Location     Type
  9534 ;;                  1    wreg      void 
  9535 ;; Registers used:
  9536 ;;		wreg, status,2, status,0, cstack
  9537 ;; Tracked objects:
  9538 ;;		On entry : 0/0
  9539 ;;		On exit  : 0/0
  9540 ;;		Unchanged: 0/0
  9541 ;; Data sizes:     COMRAM   BANK0   BANK1   BANK2   BANK3   BANK4   BANK5   BANK6   BANK7   BANK8   BANK9  BANK10  BANK1
      +1  BANK12  BANK13  BANK14  BANK15
  9542 ;;      Params:         0       0       0       0       0       0       0       0       0       0       0       0       
      +0       0       0       0       0
  9543 ;;      Locals:         4       0       0       0       0       0       0       0       0       0       0       0       
      +0       0       0       0       0
  9544 ;;      Temps:          0       0       0       0       0       0       0       0       0       0       0       0       
      +0       0       0       0       0
  9545 ;;      Totals:         4       0       0       0       0       0       0       0       0       0       0       0       
      +0       0       0       0       0
  9546 ;;Total ram usage:        4 bytes
  9547 ;; Hardware stack levels used:    1
  9548 ;; Hardware stack levels required when called:    1
  9549 ;; This function calls:
  9550 ;;		___lwmod
  9551 ;;		_readButtonRA5
  9552 ;;		_readButtonRB0
  9553 ;; This function is called by:
  9554 ;;		_myISR
  9555 ;; This function uses a non-reentrant model
  9556 ;;
  9557                           
  9558                           	psect	text22
  9559  005244                     __ptext22:
  9560                           	opt callstack 0
  9561  005244                     _handleButton:
  9562                           	opt callstack 23
  9563  005244                     
  9564                           ;buttons.c: 23:     int checkRA5 = readButtonRA5();
  9565  005244  EC2F  F02C         	call	_readButtonRA5	;wreg free
  9566  005248  C001  F006         	movff	?_readButtonRA5,handleButton@checkRA5
  9567  00524C  C002  F007         	movff	?_readButtonRA5+1,handleButton@checkRA5+1
  9568                           
  9569                           ;buttons.c: 24:     int checkRB0 = readButtonRB0();
  9570  005250  EC06  F02C         	call	_readButtonRB0	;wreg free
  9571  005254  C001  F008         	movff	?_readButtonRB0,handleButton@checkRB0
  9572  005258  C002  F009         	movff	?_readButtonRB0+1,handleButton@checkRB0+1
  9573  00525C                     
  9574                           ;buttons.c: 25:     if(checkRA5 == 2) {
  9575  00525C  0E02               	movlw	2
  9576  00525E  1806               	xorwf	handleButton@checkRA5^0,w,c
  9577  005260  1007               	iorwf	(handleButton@checkRA5+1)^0,w,c
  9578  005262  A4D8               	btfss	status,2,c
  9579  005264  EF36  F029         	goto	i2u447_41
  9580  005268  EF38  F029         	goto	i2u447_40
  9581  00526C                     i2u447_41:
  9582  00526C  EF6C  F029         	goto	i2l4253
  9583  005270                     i2u447_40:
  9584  005270                     
  9585                           ;buttons.c: 26:         countRB0 = 0;
  9586  005270  0E00               	movlw	0
  9587  005272  6E4E               	movwf	(_countRB0+1)^0,c
  9588  005274  0E00               	movlw	0
  9589  005276  6E4D               	movwf	_countRB0^0,c
  9590  005278                     
  9591                           ;buttons.c: 27:         countRA5++;
  9592  005278  4A4F               	infsnz	_countRA5^0,f,c
  9593  00527A  2A50               	incf	(_countRA5+1)^0,f,c
  9594  00527C                     
  9595                           ;buttons.c: 28:         if(countRA5 % time_interval2 == 0)
  9596  00527C  C04F  F001         	movff	_countRA5,___lwmod@dividend
  9597  005280  C050  F002         	movff	_countRA5+1,___lwmod@dividend+1
  9598  005284  C0C2  F003         	movff	_time_interval2,___lwmod@divisor
  9599  005288  C0C3  F004         	movff	_time_interval2+1,___lwmod@divisor+1
  9600  00528C  ECA4  F02B         	call	___lwmod	;wreg free
  9601  005290  5001               	movf	?___lwmod^0,w,c
  9602  005292  1002               	iorwf	(?___lwmod+1)^0,w,c
  9603  005294  A4D8               	btfss	status,2,c
  9604  005296  EF4F  F029         	goto	i2u448_41
  9605  00529A  EF51  F029         	goto	i2u448_40
  9606  00529E                     i2u448_41:
  9607  00529E  EF54  F029         	goto	i2l4249
  9608  0052A2                     i2u448_40:
  9609  0052A2                     
  9610                           ;buttons.c: 29:             increase2 = 1;
  9611  0052A2  0E01               	movlw	1
  9612  0052A4  0100               	movlb	0	; () banked
  9613  0052A6  6FBE               	movwf	_increase2& (0+255),b
  9614  0052A8                     i2l4249:
  9615                           
  9616                           ;buttons.c: 30:         if(countRA5 % time_interval1 == 0)
  9617  0052A8  C04F  F001         	movff	_countRA5,___lwmod@dividend
  9618  0052AC  C050  F002         	movff	_countRA5+1,___lwmod@dividend+1
  9619  0052B0  C0C4  F003         	movff	_time_interval1,___lwmod@divisor
  9620  0052B4  C0C5  F004         	movff	_time_interval1+1,___lwmod@divisor+1
  9621  0052B8  ECA4  F02B         	call	___lwmod	;wreg free
  9622  0052BC  5001               	movf	?___lwmod^0,w,c
  9623  0052BE  1002               	iorwf	(?___lwmod+1)^0,w,c
  9624  0052C0  A4D8               	btfss	status,2,c
  9625  0052C2  EF65  F029         	goto	i2u449_41
  9626  0052C6  EF67  F029         	goto	i2u449_40
  9627  0052CA                     i2u449_41:
  9628  0052CA  EFC4  F029         	goto	i2l242
  9629  0052CE                     i2u449_40:
  9630  0052CE                     
  9631                           ;buttons.c: 31:             increase1 = 1;
  9632  0052CE  0E01               	movlw	1
  9633  0052D0  0100               	movlb	0	; () banked
  9634  0052D2  6FBF               	movwf	_increase1& (0+255),b
  9635  0052D4  EFC4  F029         	goto	i2l242
  9636  0052D8                     i2l4253:
  9637  0052D8  0E02               	movlw	2
  9638  0052DA  1808               	xorwf	handleButton@checkRB0^0,w,c
  9639  0052DC  1009               	iorwf	(handleButton@checkRB0+1)^0,w,c
  9640  0052DE  A4D8               	btfss	status,2,c
  9641  0052E0  EF74  F029         	goto	i2u450_41
  9642  0052E4  EF76  F029         	goto	i2u450_40
  9643  0052E8                     i2u450_41:
  9644  0052E8  EFAA  F029         	goto	i2l4267
  9645  0052EC                     i2u450_40:
  9646  0052EC                     
  9647                           ;buttons.c: 34:         countRA5 = 0;
  9648  0052EC  0E00               	movlw	0
  9649  0052EE  6E50               	movwf	(_countRA5+1)^0,c
  9650  0052F0  0E00               	movlw	0
  9651  0052F2  6E4F               	movwf	_countRA5^0,c
  9652  0052F4                     
  9653                           ;buttons.c: 35:         countRB0++;
  9654  0052F4  4A4D               	infsnz	_countRB0^0,f,c
  9655  0052F6  2A4E               	incf	(_countRB0+1)^0,f,c
  9656  0052F8                     
  9657                           ;buttons.c: 36:         if(countRB0 % time_interval2 == 0)
  9658  0052F8  C04D  F001         	movff	_countRB0,___lwmod@dividend
  9659  0052FC  C04E  F002         	movff	_countRB0+1,___lwmod@dividend+1
  9660  005300  C0C2  F003         	movff	_time_interval2,___lwmod@divisor
  9661  005304  C0C3  F004         	movff	_time_interval2+1,___lwmod@divisor+1
  9662  005308  ECA4  F02B         	call	___lwmod	;wreg free
  9663  00530C  5001               	movf	?___lwmod^0,w,c
  9664  00530E  1002               	iorwf	(?___lwmod+1)^0,w,c
  9665  005310  A4D8               	btfss	status,2,c
  9666  005312  EF8D  F029         	goto	i2u451_41
  9667  005316  EF8F  F029         	goto	i2u451_40
  9668  00531A                     i2u451_41:
  9669  00531A  EF92  F029         	goto	i2l4263
  9670  00531E                     i2u451_40:
  9671  00531E                     
  9672                           ;buttons.c: 37:             decrease2 = 1;
  9673  00531E  0E01               	movlw	1
  9674  005320  0100               	movlb	0	; () banked
  9675  005322  6FBC               	movwf	_decrease2& (0+255),b
  9676  005324                     i2l4263:
  9677                           
  9678                           ;buttons.c: 38:         if(countRB0 % time_interval1 == 0)
  9679  005324  C04D  F001         	movff	_countRB0,___lwmod@dividend
  9680  005328  C04E  F002         	movff	_countRB0+1,___lwmod@dividend+1
  9681  00532C  C0C4  F003         	movff	_time_interval1,___lwmod@divisor
  9682  005330  C0C5  F004         	movff	_time_interval1+1,___lwmod@divisor+1
  9683  005334  ECA4  F02B         	call	___lwmod	;wreg free
  9684  005338  5001               	movf	?___lwmod^0,w,c
  9685  00533A  1002               	iorwf	(?___lwmod+1)^0,w,c
  9686  00533C  A4D8               	btfss	status,2,c
  9687  00533E  EFA3  F029         	goto	i2u452_41
  9688  005342  EFA5  F029         	goto	i2u452_40
  9689  005346                     i2u452_41:
  9690  005346  EFC4  F029         	goto	i2l242
  9691  00534A                     i2u452_40:
  9692  00534A                     
  9693                           ;buttons.c: 39:             decrease1 = 1;
  9694  00534A  0E01               	movlw	1
  9695  00534C  0100               	movlb	0	; () banked
  9696  00534E  6FBD               	movwf	_decrease1& (0+255),b
  9697  005350  EFC4  F029         	goto	i2l242
  9698  005354                     i2l4267:
  9699  005354  0408               	decf	handleButton@checkRB0^0,w,c
  9700  005356  1009               	iorwf	(handleButton@checkRB0+1)^0,w,c
  9701  005358  B4D8               	btfsc	status,2,c
  9702  00535A  EFB1  F029         	goto	i2u453_41
  9703  00535E  EFB3  F029         	goto	i2u453_40
  9704  005362                     i2u453_41:
  9705  005362  EFBC  F029         	goto	i2l4271
  9706  005366                     i2u453_40:
  9707  005366  0406               	decf	handleButton@checkRA5^0,w,c
  9708  005368  1007               	iorwf	(handleButton@checkRA5+1)^0,w,c
  9709  00536A  A4D8               	btfss	status,2,c
  9710  00536C  EFBA  F029         	goto	i2u454_41
  9711  005370  EFBC  F029         	goto	i2u454_40
  9712  005374                     i2u454_41:
  9713  005374  EFC4  F029         	goto	i2l242
  9714  005378                     i2u454_40:
  9715  005378                     i2l4271:
  9716                           
  9717                           ;buttons.c: 42:         countRA5 = 0;
  9718  005378  0E00               	movlw	0
  9719  00537A  6E50               	movwf	(_countRA5+1)^0,c
  9720  00537C  0E00               	movlw	0
  9721  00537E  6E4F               	movwf	_countRA5^0,c
  9722                           
  9723                           ;buttons.c: 43:         countRB0 = 0;
  9724  005380  0E00               	movlw	0
  9725  005382  6E4E               	movwf	(_countRB0+1)^0,c
  9726  005384  0E00               	movlw	0
  9727  005386  6E4D               	movwf	_countRB0^0,c
  9728  005388                     i2l242:
  9729  005388  0012               	return		;funcret
  9730  00538A                     __end_of_handleButton:
  9731                           	opt callstack 0
  9732                           
  9733 ;; *************** function _readButtonRB0 *****************
  9734 ;; Defined at:
  9735 ;;		line 13 in file "buttons.c"
  9736 ;; Parameters:    Size  Location     Type
  9737 ;;		None
  9738 ;; Auto vars:     Size  Location     Type
  9739 ;;		None
  9740 ;; Return value:  Size  Location     Type
  9741 ;;                  2    0[COMRAM] int 
  9742 ;; Registers used:
  9743 ;;		wreg, status,2, status,0
  9744 ;; Tracked objects:
  9745 ;;		On entry : 0/0
  9746 ;;		On exit  : 0/0
  9747 ;;		Unchanged: 0/0
  9748 ;; Data sizes:     COMRAM   BANK0   BANK1   BANK2   BANK3   BANK4   BANK5   BANK6   BANK7   BANK8   BANK9  BANK10  BANK1
      +1  BANK12  BANK13  BANK14  BANK15
  9749 ;;      Params:         2       0       0       0       0       0       0       0       0       0       0       0       
      +0       0       0       0       0
  9750 ;;      Locals:         0       0       0       0       0       0       0       0       0       0       0       0       
      +0       0       0       0       0
  9751 ;;      Temps:          0       0       0       0       0       0       0       0       0       0       0       0       
      +0       0       0       0       0
  9752 ;;      Totals:         2       0       0       0       0       0       0       0       0       0       0       0       
      +0       0       0       0       0
  9753 ;;Total ram usage:        2 bytes
  9754 ;; Hardware stack levels used:    1
  9755 ;; This function calls:
  9756 ;;		Nothing
  9757 ;; This function is called by:
  9758 ;;		_handleButton
  9759 ;; This function uses a non-reentrant model
  9760 ;;
  9761                           
  9762                           	psect	text23
  9763  00580C                     __ptext23:
  9764                           	opt callstack 0
  9765  00580C                     _readButtonRB0:
  9766                           	opt callstack 23
  9767  00580C                     
  9768                           ;buttons.c: 14:     firstReadRB0 = secondReadRB0;
  9769  00580C  C053  F0CA         	movff	_secondReadRB0,_firstReadRB0
  9770  005810                     
  9771                           ;buttons.c: 15:     secondReadRB0 = PORTBbits.RB0;
  9772  005810  0E00               	movlw	0
  9773  005812  B081               	btfsc	129,0,c	;volatile
  9774  005814  0E01               	movlw	1
  9775  005816  6E53               	movwf	_secondReadRB0^0,c
  9776  005818                     
  9777                           ;buttons.c: 16:     if(secondReadRB0 == firstReadRB0) {
  9778  005818  0100               	movlb	0	; () banked
  9779  00581A  51CA               	movf	_firstReadRB0& (0+255),w,b
  9780  00581C  1853               	xorwf	_secondReadRB0^0,w,c
  9781  00581E  A4D8               	btfss	status,2,c
  9782  005820  EF14  F02C         	goto	i2u419_41
  9783  005824  EF16  F02C         	goto	i2u419_40
  9784  005828                     i2u419_41:
  9785  005828  EF2A  F02C         	goto	i2l4083
  9786  00582C                     i2u419_40:
  9787  00582C                     
  9788                           ; BSR set to: 0
  9789                           ;buttons.c: 17:         return (secondReadRB0 == 0) ? 2 : 1;
  9790  00582C  5053               	movf	_secondReadRB0^0,w,c
  9791  00582E  B4D8               	btfsc	status,2,c
  9792  005830  EF1C  F02C         	goto	i2u420_41
  9793  005834  EF1E  F02C         	goto	i2u420_40
  9794  005838                     i2u420_41:
  9795  005838  EF24  F02C         	goto	i2l4079
  9796  00583C                     i2u420_40:
  9797  00583C                     
  9798                           ; BSR set to: 0
  9799  00583C  0E00               	movlw	0
  9800  00583E  6E02               	movwf	(?_readButtonRB0+1)^0,c
  9801  005840  0E01               	movlw	1
  9802  005842  6E01               	movwf	?_readButtonRB0^0,c
  9803  005844  EF2E  F02C         	goto	i2l228
  9804  005848                     i2l4079:
  9805                           
  9806                           ; BSR set to: 0
  9807  005848  0E00               	movlw	0
  9808  00584A  6E02               	movwf	(?_readButtonRB0+1)^0,c
  9809  00584C  0E02               	movlw	2
  9810  00584E  6E01               	movwf	?_readButtonRB0^0,c
  9811  005850  EF2E  F02C         	goto	i2l228
  9812  005854                     i2l4083:
  9813                           
  9814                           ; BSR set to: 0
  9815                           ;buttons.c: 19:     return 0;
  9816  005854  0E00               	movlw	0
  9817  005856  6E02               	movwf	(?_readButtonRB0+1)^0,c
  9818  005858  0E00               	movlw	0
  9819  00585A  6E01               	movwf	?_readButtonRB0^0,c
  9820  00585C                     i2l228:
  9821                           
  9822                           ; BSR set to: 0
  9823  00585C  0012               	return		;funcret
  9824  00585E                     __end_of_readButtonRB0:
  9825                           	opt callstack 0
  9826                           
  9827 ;; *************** function _readButtonRA5 *****************
  9828 ;; Defined at:
  9829 ;;		line 4 in file "buttons.c"
  9830 ;; Parameters:    Size  Location     Type
  9831 ;;		None
  9832 ;; Auto vars:     Size  Location     Type
  9833 ;;		None
  9834 ;; Return value:  Size  Location     Type
  9835 ;;                  2    0[COMRAM] int 
  9836 ;; Registers used:
  9837 ;;		wreg, status,2, status,0
  9838 ;; Tracked objects:
  9839 ;;		On entry : 0/0
  9840 ;;		On exit  : 0/0
  9841 ;;		Unchanged: 0/0
  9842 ;; Data sizes:     COMRAM   BANK0   BANK1   BANK2   BANK3   BANK4   BANK5   BANK6   BANK7   BANK8   BANK9  BANK10  BANK1
      +1  BANK12  BANK13  BANK14  BANK15
  9843 ;;      Params:         2       0       0       0       0       0       0       0       0       0       0       0       
      +0       0       0       0       0
  9844 ;;      Locals:         0       0       0       0       0       0       0       0       0       0       0       0       
      +0       0       0       0       0
  9845 ;;      Temps:          0       0       0       0       0       0       0       0       0       0       0       0       
      +0       0       0       0       0
  9846 ;;      Totals:         2       0       0       0       0       0       0       0       0       0       0       0       
      +0       0       0       0       0
  9847 ;;Total ram usage:        2 bytes
  9848 ;; Hardware stack levels used:    1
  9849 ;; This function calls:
  9850 ;;		Nothing
  9851 ;; This function is called by:
  9852 ;;		_handleButton
  9853 ;; This function uses a non-reentrant model
  9854 ;;
  9855                           
  9856                           	psect	text24
  9857  00585E                     __ptext24:
  9858                           	opt callstack 0
  9859  00585E                     _readButtonRA5:
  9860                           	opt callstack 23
  9861  00585E                     
  9862                           ;buttons.c: 5:     firstReadRA5 = secondReadRA5;
  9863  00585E  C054  F055         	movff	_secondReadRA5,_firstReadRA5
  9864  005862                     
  9865                           ;buttons.c: 6:     secondReadRA5 = PORTAbits.RA5;
  9866  005862  0E00               	movlw	0
  9867  005864  BA80               	btfsc	128,5,c	;volatile
  9868  005866  0E01               	movlw	1
  9869  005868  6E54               	movwf	_secondReadRA5^0,c
  9870  00586A                     
  9871                           ;buttons.c: 7:     if(secondReadRA5 == firstReadRA5) {
  9872  00586A  5055               	movf	_firstReadRA5^0,w,c
  9873  00586C  1854               	xorwf	_secondReadRA5^0,w,c
  9874  00586E  A4D8               	btfss	status,2,c
  9875  005870  EF3C  F02C         	goto	i2u417_41
  9876  005874  EF3E  F02C         	goto	i2u417_40
  9877  005878                     i2u417_41:
  9878  005878  EF52  F02C         	goto	i2l4065
  9879  00587C                     i2u417_40:
  9880  00587C                     
  9881                           ;buttons.c: 8:         return (secondReadRA5 == 0) ? 2 : 1;
  9882  00587C  5054               	movf	_secondReadRA5^0,w,c
  9883  00587E  B4D8               	btfsc	status,2,c
  9884  005880  EF44  F02C         	goto	i2u418_41
  9885  005884  EF46  F02C         	goto	i2u418_40
  9886  005888                     i2u418_41:
  9887  005888  EF4C  F02C         	goto	i2l4061
  9888  00588C                     i2u418_40:
  9889  00588C  0E00               	movlw	0
  9890  00588E  6E02               	movwf	(?_readButtonRA5+1)^0,c
  9891  005890  0E01               	movlw	1
  9892  005892  6E01               	movwf	?_readButtonRA5^0,c
  9893  005894  EF56  F02C         	goto	i2l220
  9894  005898                     i2l4061:
  9895  005898  0E00               	movlw	0
  9896  00589A  6E02               	movwf	(?_readButtonRA5+1)^0,c
  9897  00589C  0E02               	movlw	2
  9898  00589E  6E01               	movwf	?_readButtonRA5^0,c
  9899  0058A0  EF56  F02C         	goto	i2l220
  9900  0058A4                     i2l4065:
  9901                           
  9902                           ;buttons.c: 10:     return 0;
  9903  0058A4  0E00               	movlw	0
  9904  0058A6  6E02               	movwf	(?_readButtonRA5+1)^0,c
  9905  0058A8  0E00               	movlw	0
  9906  0058AA  6E01               	movwf	?_readButtonRA5^0,c
  9907  0058AC                     i2l220:
  9908  0058AC  0012               	return		;funcret
  9909  0058AE                     __end_of_readButtonRA5:
  9910                           	opt callstack 0
  9911                           
  9912 ;; *************** function ___lwmod *****************
  9913 ;; Defined at:
  9914 ;;		line 7 in file "C:\Program Files (x86)\Microchip\xc8\v2.10\pic\sources\c99\common\lwmod.c"
  9915 ;; Parameters:    Size  Location     Type
  9916 ;;  dividend        2    0[COMRAM] unsigned int 
  9917 ;;  divisor         2    2[COMRAM] unsigned int 
  9918 ;; Auto vars:     Size  Location     Type
  9919 ;;  counter         1    4[COMRAM] unsigned char 
  9920 ;; Return value:  Size  Location     Type
  9921 ;;                  2    0[COMRAM] unsigned int 
  9922 ;; Registers used:
  9923 ;;		wreg, status,2, status,0
  9924 ;; Tracked objects:
  9925 ;;		On entry : 0/0
  9926 ;;		On exit  : 0/0
  9927 ;;		Unchanged: 0/0
  9928 ;; Data sizes:     COMRAM   BANK0   BANK1   BANK2   BANK3   BANK4   BANK5   BANK6   BANK7   BANK8   BANK9  BANK10  BANK1
      +1  BANK12  BANK13  BANK14  BANK15
  9929 ;;      Params:         4       0       0       0       0       0       0       0       0       0       0       0       
      +0       0       0       0       0
  9930 ;;      Locals:         1       0       0       0       0       0       0       0       0       0       0       0       
      +0       0       0       0       0
  9931 ;;      Temps:          0       0       0       0       0       0       0       0       0       0       0       0       
      +0       0       0       0       0
  9932 ;;      Totals:         5       0       0       0       0       0       0       0       0       0       0       0       
      +0       0       0       0       0
  9933 ;;Total ram usage:        5 bytes
  9934 ;; Hardware stack levels used:    1
  9935 ;; This function calls:
  9936 ;;		Nothing
  9937 ;; This function is called by:
  9938 ;;		_handleButton
  9939 ;; This function uses a non-reentrant model
  9940 ;;
  9941                           
  9942                           	psect	text25
  9943  005748                     __ptext25:
  9944                           	opt callstack 0
  9945  005748                     ___lwmod:
  9946                           	opt callstack 23
  9947  005748  5003               	movf	___lwmod@divisor^0,w,c
  9948  00574A  1004               	iorwf	(___lwmod@divisor+1)^0,w,c
  9949  00574C  B4D8               	btfsc	status,2,c
  9950  00574E  EFAB  F02B         	goto	i2u422_41
  9951  005752  EFAD  F02B         	goto	i2u422_40
  9952  005756                     i2u422_41:
  9953  005756  EFD1  F02B         	goto	i2l938
  9954  00575A                     i2u422_40:
  9955  00575A  0E01               	movlw	1
  9956  00575C  6E05               	movwf	___lwmod@counter^0,c
  9957  00575E  EFB5  F02B         	goto	i2l4111
  9958  005762                     i2l4109:
  9959  005762  90D8               	bcf	status,0,c
  9960  005764  3603               	rlcf	___lwmod@divisor^0,f,c
  9961  005766  3604               	rlcf	(___lwmod@divisor+1)^0,f,c
  9962  005768  2A05               	incf	___lwmod@counter^0,f,c
  9963  00576A                     i2l4111:
  9964  00576A  AE04               	btfss	(___lwmod@divisor+1)^0,7,c
  9965  00576C  EFBA  F02B         	goto	i2u423_41
  9966  005770  EFBC  F02B         	goto	i2u423_40
  9967  005774                     i2u423_41:
  9968  005774  EFB1  F02B         	goto	i2l4109
  9969  005778                     i2u423_40:
  9970  005778                     i2l4113:
  9971  005778  5003               	movf	___lwmod@divisor^0,w,c
  9972  00577A  5C01               	subwf	___lwmod@dividend^0,w,c
  9973  00577C  5004               	movf	(___lwmod@divisor+1)^0,w,c
  9974  00577E  5802               	subwfb	(___lwmod@dividend+1)^0,w,c
  9975  005780  A0D8               	btfss	status,0,c
  9976  005782  EFC5  F02B         	goto	i2u424_41
  9977  005786  EFC7  F02B         	goto	i2u424_40
  9978  00578A                     i2u424_41:
  9979  00578A  EFCB  F02B         	goto	i2l4117
  9980  00578E                     i2u424_40:
  9981  00578E  5003               	movf	___lwmod@divisor^0,w,c
  9982  005790  5E01               	subwf	___lwmod@dividend^0,f,c
  9983  005792  5004               	movf	(___lwmod@divisor+1)^0,w,c
  9984  005794  5A02               	subwfb	(___lwmod@dividend+1)^0,f,c
  9985  005796                     i2l4117:
  9986  005796  90D8               	bcf	status,0,c
  9987  005798  3204               	rrcf	(___lwmod@divisor+1)^0,f,c
  9988  00579A  3203               	rrcf	___lwmod@divisor^0,f,c
  9989  00579C  2E05               	decfsz	___lwmod@counter^0,f,c
  9990  00579E  EFBC  F02B         	goto	i2l4113
  9991  0057A2                     i2l938:
  9992  0057A2  C001  F001         	movff	___lwmod@dividend,?___lwmod
  9993  0057A6  C002  F002         	movff	___lwmod@dividend+1,?___lwmod+1
  9994  0057AA  0012               	return		;funcret
  9995  0057AC                     __end_of___lwmod:
  9996                           	opt callstack 0
  9997                           
  9998                           	psect	rparam
  9999  0000                     
 10000                           	psect	temp
 10001  000056                     btemp:
 10002                           	opt callstack 0
 10003  000056                     	ds	1
 10004  0000                     int$flags	set	btemp
 10005  0000                     wtemp8	set	btemp+1
 10006  0000                     ttemp5	set	btemp+1
 10007  0000                     ttemp6	set	btemp+4
 10008  0000                     ttemp7	set	btemp+8
 10009                           tosu	equ	0xFFF
 10010                           tosh	equ	0xFFE
 10011                           tosl	equ	0xFFD
 10012                           stkptr	equ	0xFFC
 10013                           pclatu	equ	0xFFB
 10014                           pclath	equ	0xFFA
 10015                           pcl	equ	0xFF9
 10016                           tblptru	equ	0xFF8
 10017                           tblptrh	equ	0xFF7
 10018                           tblptrl	equ	0xFF6
 10019                           tablat	equ	0xFF5
 10020                           prodh	equ	0xFF4
 10021                           prodl	equ	0xFF3
 10022                           indf0	equ	0xFEF
 10023                           postinc0	equ	0xFEE
 10024                           postdec0	equ	0xFED
 10025                           preinc0	equ	0xFEC
 10026                           plusw0	equ	0xFEB
 10027                           fsr0h	equ	0xFEA
 10028                           fsr0l	equ	0xFE9
 10029                           wreg	equ	0xFE8
 10030                           indf1	equ	0xFE7
 10031                           postinc1	equ	0xFE6
 10032                           postdec1	equ	0xFE5
 10033                           preinc1	equ	0xFE4
 10034                           plusw1	equ	0xFE3
 10035                           fsr1h	equ	0xFE2
 10036                           fsr1l	equ	0xFE1
 10037                           bsr	equ	0xFE0
 10038                           indf2	equ	0xFDF
 10039                           postinc2	equ	0xFDE
 10040                           postdec2	equ	0xFDD
 10041                           preinc2	equ	0xFDC
 10042                           plusw2	equ	0xFDB
 10043                           fsr2h	equ	0xFDA
 10044                           fsr2l	equ	0xFD9
 10045                           status	equ	0xFD8


Data Sizes:
    Strings     1
    Constant    124
    Data        12
    BSS         22
    Persistent  0
    Stack       0

Auto Spaces:
    Space          Size  Autos    Used
    COMRAM           94     76      85
    BANK0           160     82     107
    BANK1           256    188     188
    BANK2           256      0       0
    BANK3           256      0       0
    BANK4           256      0       0
    BANK5           256      0       0
    BANK6           256      0       0
    BANK7           256      0       0
    BANK8           256      0       0
    BANK9           256      0       0
    BANK10          256      0       0
    BANK11          256      0       0
    BANK12          256      0       0
    BANK13          256      0       0
    BANK14          256      0       0
    BANK15           96      0       0

Pointer List with Targets:

    nanf@s	PTR const unsigned char  size(2) Largest target is 1
		 -> STR_1(CODE[1]), 


Critical Paths under _main in COMRAM

    _preCalculate->___fltol
    _powf->_sqrtf
    _sqrtf->___flge
    ___flge->___flsub
    _scalbnf->___flmul
    ___flmul->___fladd
    ___flsub->___flmul
    ___fldiv->___flsub

Critical Paths under _myISR in COMRAM

    _myISR->_handleButton
    _handleButton->___lwmod

Critical Paths under _main in BANK0

    _timer0_init->_preCalculate
    _preCalculate->___fltol
    _powf->_sqrtf
    ___fltol->_powf

Critical Paths under _myISR in BANK0

    None.

Critical Paths under _main in BANK1

    _preCalculate->_powf
    ___fltol->_powf

Critical Paths under _myISR in BANK1

    None.

Critical Paths under _main in BANK2

    None.

Critical Paths under _myISR in BANK2

    None.

Critical Paths under _main in BANK3

    None.

Critical Paths under _myISR in BANK3

    None.

Critical Paths under _main in BANK4

    None.

Critical Paths under _myISR in BANK4

    None.

Critical Paths under _main in BANK5

    None.

Critical Paths under _myISR in BANK5

    None.

Critical Paths under _main in BANK6

    None.

Critical Paths under _myISR in BANK6

    None.

Critical Paths under _main in BANK7

    None.

Critical Paths under _myISR in BANK7

    None.

Critical Paths under _main in BANK8

    None.

Critical Paths under _myISR in BANK8

    None.

Critical Paths under _main in BANK9

    None.

Critical Paths under _myISR in BANK9

    None.

Critical Paths under _main in BANK10

    None.

Critical Paths under _myISR in BANK10

    None.

Critical Paths under _main in BANK11

    None.

Critical Paths under _myISR in BANK11

    None.

Critical Paths under _main in BANK12

    None.

Critical Paths under _myISR in BANK12

    None.

Critical Paths under _main in BANK13

    None.

Critical Paths under _myISR in BANK13

    None.

Critical Paths under _main in BANK14

    None.

Critical Paths under _myISR in BANK14

    None.

Critical Paths under _main in BANK15

    None.

Critical Paths under _myISR in BANK15

    None.

Call Graph Tables:

 ---------------------------------------------------------------------------------
 (Depth) Function   	        Calls       Base Space   Used Autos Params    Refs
 ---------------------------------------------------------------------------------
 (0) _main                                                 0     0      0   93154
                                _FSM
                     _interrupt_init
                           _osc_init
                           _pin_init
                        _timer0_init
 ---------------------------------------------------------------------------------
 (1) _timer0_init                                          0     0      0   93154
                       _preCalculate
 ---------------------------------------------------------------------------------
 (2) _preCalculate                                        12    12      0   93154
                                             70 BANK0     12    12      0
                            ___awdiv
                            ___flmul
                            ___fltol
                               _powf
 ---------------------------------------------------------------------------------
 (3) _powf                                               205   197      8   80392
                                             45 BANK0     17     9      8
                                              0 BANK1    188   188      0
                            ___fladd
                            ___fldiv
                             ___flge
                            ___flmul
                            ___flneg
                            ___flsub
                           ___xxtofl
                              _fabsf
                            _scalbnf
                              _sqrtf
 ---------------------------------------------------------------------------------
 (4) _sqrtf                                               49    45      4   21453
                                             70 COMRAM     4     0      4
                                              0 BANK0     45    45      0
                            ___fladd
                             ___flge
                            ___flmul
                               _nanf
 ---------------------------------------------------------------------------------
 (5) _nanf                                                 8     4      4      99
                                              9 COMRAM     8     4      4
 ---------------------------------------------------------------------------------
 (5) ___flge                                              12     4      8     790
                                             58 COMRAM    12     4      8
                            ___fladd (ARG)
                            ___flsub (ARG)
 ---------------------------------------------------------------------------------
 (4) _scalbnf                                             18    12      6   12271
                                             50 COMRAM    18    12      6
                            ___flmul
 ---------------------------------------------------------------------------------
 (5) ___flmul                                             25    17      8   11776
                                             25 COMRAM    25    17      8
                            ___fladd (ARG)
 ---------------------------------------------------------------------------------
 (4) _fabsf                                                8     4      4     123
                                              9 COMRAM     8     4      4
 ---------------------------------------------------------------------------------
 (4) ___xxtofl                                            14    10      4     398
                                              9 COMRAM    14    10      4
 ---------------------------------------------------------------------------------
 (4) ___flsub                                              8     0      8   12769
                                             50 COMRAM     8     0      8
                            ___fladd
                            ___flmul (ARG)
 ---------------------------------------------------------------------------------
 (5) ___fladd                                             16     8      8    7430
                                              9 COMRAM    16     8      8
 ---------------------------------------------------------------------------------
 (4) ___flneg                                              4     0      4     197
                                              9 COMRAM     4     0      4
 ---------------------------------------------------------------------------------
 (4) ___fldiv                                             25    17      8    2903
                                             58 COMRAM    12     4      8
                                              0 BANK0     13    13      0
                            ___fladd (ARG)
                            ___flmul (ARG)
                            ___flsub (ARG)
 ---------------------------------------------------------------------------------
 (3) ___fltol                                             10     6      4     305
                                             74 COMRAM     2     2      0
                                             62 BANK0      8     4      4
                            ___flmul (ARG)
                               _powf (ARG)
 ---------------------------------------------------------------------------------
 (3) ___awdiv                                              8     4      4     452
                                              9 COMRAM     8     4      4
 ---------------------------------------------------------------------------------
 (1) _pin_init                                             0     0      0       0
 ---------------------------------------------------------------------------------
 (1) _osc_init                                             0     0      0       0
 ---------------------------------------------------------------------------------
 (1) _interrupt_init                                       0     0      0       0
 ---------------------------------------------------------------------------------
 (1) _FSM                                                  2     2      0       0
                                              9 COMRAM     2     2      0
 ---------------------------------------------------------------------------------
 Estimated maximum stack depth 5
 ---------------------------------------------------------------------------------
 (Depth) Function   	        Calls       Base Space   Used Autos Params    Refs
 ---------------------------------------------------------------------------------
 (6) _myISR                                                0     0      0     857
                       _handleButton
 ---------------------------------------------------------------------------------
 (7) _handleButton                                         4     4      0     857
                                              5 COMRAM     4     4      0
                            ___lwmod
                      _readButtonRA5
                      _readButtonRB0
 ---------------------------------------------------------------------------------
 (8) _readButtonRB0                                        2     0      2       0
                                              0 COMRAM     2     0      2
 ---------------------------------------------------------------------------------
 (8) _readButtonRA5                                        2     0      2       0
                                              0 COMRAM     2     0      2
 ---------------------------------------------------------------------------------
 (8) ___lwmod                                              5     1      4     767
                                              0 COMRAM     5     1      4
 ---------------------------------------------------------------------------------
 Estimated maximum stack depth 8
 ---------------------------------------------------------------------------------

 Call Graph Graphs:

 _main (ROOT)
   _FSM
   _interrupt_init
   _osc_init
   _pin_init
   _timer0_init
     _preCalculate
       ___awdiv
       ___flmul
         ___fladd (ARG)
       ___fltol
         ___flmul (ARG)
           ___fladd (ARG)
         _powf (ARG)
           ___fladd
           ___fldiv
             ___fladd (ARG)
             ___flmul (ARG)
               ___fladd (ARG)
             ___flsub (ARG)
               ___fladd
               ___flmul (ARG)
                 ___fladd (ARG)
           ___flge
             ___fladd (ARG)
             ___flsub (ARG)
               ___fladd
               ___flmul (ARG)
                 ___fladd (ARG)
           ___flmul
             ___fladd (ARG)
           ___flneg
           ___flsub
             ___fladd
             ___flmul (ARG)
               ___fladd (ARG)
           ___xxtofl
           _fabsf
           _scalbnf
             ___flmul
               ___fladd (ARG)
           _sqrtf
             ___fladd
             ___flge
               ___fladd (ARG)
               ___flsub (ARG)
                 ___fladd
                 ___flmul (ARG)
                   ___fladd (ARG)
             ___flmul
               ___fladd (ARG)
             _nanf
       _powf
         ___fladd
         ___fldiv
           ___fladd (ARG)
           ___flmul (ARG)
             ___fladd (ARG)
           ___flsub (ARG)
             ___fladd
             ___flmul (ARG)
               ___fladd (ARG)
         ___flge
           ___fladd (ARG)
           ___flsub (ARG)
             ___fladd
             ___flmul (ARG)
               ___fladd (ARG)
         ___flmul
           ___fladd (ARG)
         ___flneg
         ___flsub
           ___fladd
           ___flmul (ARG)
             ___fladd (ARG)
         ___xxtofl
         _fabsf
         _scalbnf
           ___flmul
             ___fladd (ARG)
         _sqrtf
           ___fladd
           ___flge
             ___fladd (ARG)
             ___flsub (ARG)
               ___fladd
               ___flmul (ARG)
                 ___fladd (ARG)
           ___flmul
             ___fladd (ARG)
           _nanf

 _myISR (ROOT)
   _handleButton
     ___lwmod
     _readButtonRA5
     _readButtonRB0

 Address spaces:
Name               Size   Autos  Total    Cost      Usage
BIGRAM             F5F      0       0      37        0.0%
EEDATA             400      0       0       0        0.0%
BITBANK14          100      0       0      33        0.0%
BANK14             100      0       0      34        0.0%
BITBANK13          100      0       0      30        0.0%
BANK13             100      0       0      31        0.0%
BITBANK12          100      0       0      28        0.0%
BANK12             100      0       0      29        0.0%
BITBANK11          100      0       0      26        0.0%
BANK11             100      0       0      27        0.0%
BITBANK10          100      0       0      24        0.0%
BANK10             100      0       0      25        0.0%
BITBANK9           100      0       0      22        0.0%
BANK9              100      0       0      23        0.0%
BITBANK8           100      0       0      20        0.0%
BANK8              100      0       0      21        0.0%
BITBANK7           100      0       0      18        0.0%
BANK7              100      0       0      19        0.0%
BITBANK6           100      0       0      16        0.0%
BANK6              100      0       0      17        0.0%
BITBANK5           100      0       0      14        0.0%
BANK5              100      0       0      15        0.0%
BITBANK4           100      0       0      12        0.0%
BANK4              100      0       0      13        0.0%
BITBANK3           100      0       0      10        0.0%
BANK3              100      0       0      11        0.0%
BITBANK2           100      0       0       8        0.0%
BANK2              100      0       0       9        0.0%
BITBANK1           100      0       0       6        0.0%
BANK1              100     BC      BC       7       73.4%
BITBANK0            A0      0       0       4        0.0%
BANK0               A0     52      6B       5       66.9%
BITBANK15           60      0       0      35        0.0%
BANK15              60      0       0      36        0.0%
BITCOMRAM           5E      0       0       0        0.0%
COMRAM              5E     4C      55       1       90.4%
BITSFR               0      0       0     200        0.0%
SFR                  0      0       0     200        0.0%
STACK                0      0       0       2        0.0%
NULL                 0      0       0       0        0.0%
ABS                  0      0     17C      32        0.0%
DATA                 0      0     17C       3        0.0%
CODE                 0      0       0       0        0.0%


Microchip Technology PIC18 Macro Assembler V2.10 build 88905656 
Symbol Table                                                                                   Tue Sep 17 16:14:12 2019

            ___fldiv@aexp 006C              ___fldiv@bexp 006B              ___fldiv@sign 0064  
                      _L1 1059                        _L2 1055                        _L3 1051  
                      _L4 104D                        _L5 1049                        _L6 1045  
                      _P1 1041                        _P2 103D                        _P3 1039  
                      _P4 1035                        _P5 1031              ___awdiv@sign 000F  
                      _bp 1069                        _cp 101D    __end_of_interrupt_init 5A08  
                     l300 59EC                       l109 5A06                       l168 59DE  
                     l434 59F6                       l702 554E                       l711 592A  
                     l295 5658                       l297 5682                       l387 4E5A  
                     l707 5594                       l734 5490                       l668 5746  
                     l965 4160                       l982 427A                       l974 4430  
                     l966 414E                       l991 434A                       l967 4114  
                     l992 4338                       _FSM 4BF8                       _lg2 102D  
                     _ovt 1021                       wreg 000FE8              ___flmul@aexp 002B  
            ___flmul@bexp 002C              ___flmul@sign 0026              ___flmul@temp 0031  
            ___flmul@prod 002D              __CFG_LVP$OFF 000000                      ?_FSM 0001  
            ___fltol@exp1 004C              __CFG_WDT$OFF 000000                      l1021 4A56  
                    l1030 4A9C                      l1007 58F2                      l1032 4B14  
                    l1024 4A1A                      l1033 4B02                      l1201 14DA  
                    l1106 51DA                      l1019 4BF6                      l1051 44F6  
                    l1060 4764                      l1061 4752                      l1055 485A  
                    l1311 3F70                      l3001 435A                      l1209 1600  
                    l1058 46EC                      l1322 3DD2                      l3011 43C0  
                    l3003 4366                      l1315 3CB0                      l1171 1080  
                    l1092 50E6                      l1068 481C                      l1324 3EDA  
                    l3021 4408                      l3013 43D0                      l3005 4374  
                    l3101 4602                      l1181 1382                      l1173 10A0  
                    l3023 440A                      l3015 43F0                      l3007 43AE  
                    l1095 5242                      l3111 46A6                      l3103 461E  
                    l1319 3D0E                      l1191 1418                      l1336 595E  
                    l1176 3AB0                      l4001 5736                      l3025 4410  
                    l3017 43F4                      l3009 43B0                      l3121 46FC  
                    l3113 46B4                      l3105 462A                      l3041 445E  
                    l3033 4432                      l4003 573E                      l3027 441E  
                    l3019 4402                      l1099 517E                      l3123 470A  
                    l3115 46D2                      l3107 4646                      l3051 449A  
                    l3043 446E                      l3035 443E                      l1339 59B0  
                    l4021 53F6                      l4013 53B6                      l3029 4420  
                    l3133 4774                      l3141 47BC                      l3125 470E  
                    l3117 46DC                      l3109 4670                      l3061 44D0  
                    l3053 44A0                      l3045 447E                      l3037 444C  
                    l1277 32AA                      l1278 3326                      l4031 5426  
                    l4023 5404                      l4015 53E0                      l4007 538A  
                    l3151 4830                      l3143 47D6                      l3135 4780  
                    l3127 471C                      l3119 46EA                      l3063 44E0  
                    l3055 44AE                      l3047 4484                      l3039 444E  
                    l1288 3A5C                      l4201 4D7E                      l4041 5450  
                    l4033 5430                      l4017 53E2                      l4009 53A2  
                    l3153 483E                      l3145 47EA                      l3137 478E  
                    l3129 474A                      l3081 4562                      l3073 452A  
                    l3065 44E6                      l3057 44B0                      l3049 4494  
                    l5001 59BA                      l4203 4D82                      l4131 4C12  
                    l4043 5460                      l4019 53F2                      l3331 58BE  
                    l3155 4840                      l3147 4804                      l3139 47B8  
                    l3091 45AC                      l3083 457A                      l3075 4536  
                    l3067 4506                      l3059 44C0                      l1299 508E  
                    l3171 550E                      l3163 5492                      l5003 59BE  
                    l4221 4DE0                      l4205 4D98                      l4141 4C38  
                    l4133 4C14                      l4045 5470                      l4029 541C  
                    l3149 4820                      l3157 4846                      l3093 45BC  
                    l3085 4586                      l3077 4540                      l3069 4516  
                    l3501 4FEC                      l3181 5592                      l3173 551C  
                    l3165 54C0                      l5005 59C2                      l4223 4DF2  
                    l4215 4DC8                      l4207 4DA0                      l4151 4C7E  
                    l4143 4C4E                      l4135 4C1C                      l4231 4E08  
                    l4127 4BF8                      l2631 59CE                      l4047 5480  
                    l4039 5444                      l4311 485C                      l3335 58F4  
                    l3351 510C                      l3343 5092                      l3159 484A  
                    l3095 45C8                      l3087 4592                      l3079 4556  
                    l3511 507E                      l3503 4FF4                      l3175 552E  
                    l3167 54D0                      l4217 4DDA                      l4209 4DB2  
                    l4161 4CB4                      l4153 4C86                      l4145 4C56  
                    l4137 4C2E                      l4129 4C00                      l2633 59D6  
                    l4401 4A8C                      l4321 489A                      l4313 486A  
                    l3337 590A                      l3329 58AE                      l3361 5166  
                    l3345 50A2                      l3097 45D8                      l3089 45A0  
                    l3505 5010                      l3177 553C                      l3169 54FE  
                    l3185 5990                      l5027 4E1C                      l4219 4DDC  
                    l4171 4CE4                      l4163 4CBC                      l4155 4C98  
                    l4147 4C68                      l4139 4C30                      l2643 5A02  
                    l2635 59D8                      l4411 4ACC                      l4403 4A9A  
                    l4331 48CA                      l4323 48AA                      l4315 4878  
                    l3339 591A                      l3371 51CA                      l3363 5168  
                    l3355 5120                      l3347 50B0                      l3099 45F2  
                    l3507 5018                      l3179 558C                      l3187 59A0  
                    l4173 4CF6                      l4165 4CCE                      l4157 4C9A  
                    l2645 59EE                      l4421 4B3E                      l4413 4AFA  
                    l4405 4AAC                      l4341 4900                      l4333 48D0  
                    l4325 48AC                      l4317 487A                      l2901 40A2  
                    l3381 5222                      l3373 51E8                      l3365 5174  
                    l3357 5128                      l3349 50F6                      l3509 504A  
                    l4501 3DEC                      l4191 4D54                      l4175 4CF8  
                    l4159 4C9E                      l4431 4BB6                      l4423 4B68  
                    l4407 4ABA                      l4351 4940                      l4343 4910  
                    l4335 48DE                      l4319 488A                      l4327 48B4  
                    l2911 40B6                      l2903 40A6                      l2831 3F72  
                    l3383 5230                      l3375 51EA                      l3367 51B0  
                    l3359 5134                      l4511 3E6C                      l4503 3E02  
                    l4185 4D24                      l4177 4CFC                      l4441 4BEC  
                    l4433 4BD2                      l4417 4B24                      l4425 4B6C  
                    l4409 4ABE                      l4353 4950                      l4361 4970  
                    l4345 4912                      l4337 48E0                      l4329 48C4  
                    l2921 412E                      l2913 40E0                      l2905 40AA  
                    l2841 3FAE                      l2833 3F7E                      l3385 5232  
                    l3377 51EE                      l3369 51BC                      l3465 592C  
                    l3481 4EC4                      l3473 4E5C                      l4521 3F60  
                    l4513 3E9E                      l4505 3E18                      l4187 4D3A  
                    l4179 4D0E                      l4435 4BD6                      l4427 4B86  
                    l4419 4B30                      l4371 49AE                      l4363 4980  
                    l4355 4958                      l4339 48F0                      l4347 491A  
                    l2931 416E                      l2923 4132                      l2915 40FC  
                    l2907 40AE                      l2851 3FDE                      l2843 3FBE  
                    l2835 3F8C                      l3379 5212                      l3467 594C  
                    l3483 4EE0                      l3491 4F44                      l3475 4E6C  
                    l4515 3EB0                      l4507 3E28                      l4451 3AB2  
                    l4611 1610                      l4603 158C                      l4531 111E  
                    l4197 4D6A                      l4189 4D42                      l4437 4BE4  
                    l4429 4B9C                      l4381 49F6                      l4373 49BE  
                    l4365 4980                      l4357 495C                      l4349 492A  
                    l2941 41B0                      l2933 417E                      l2925 4140  
                    l2917 410C                      l2909 40B2                      l2861 4008  
                    l2853 3FF0                      l2845 3FC0                      l2837 3F8E  
                    l3469 594E                      l3493 4F60                      l3485 4F14  
                    l3477 4E88                      l4517 3F40                      l4509 3E5A  
                    l4461 3B64                      l4453 3AC2                      l4701 1E1E  
                    l4621 1746                      l4613 161E                      l4605 15B0  
                    l4541 1194                      l4533 113A                      l4525 10C0  
                    l4199 4D7C                      l4439 4BEA                      l4391 4A44  
                    l4383 4A0A                      l4375 49CE                      l2951 41DE  
                    l2943 41BE                      l2927 4142                      l2919 4122  
                    l2863 4018                      l2871 4042                      l2855 3FF2  
                    l2839 3F9E                      l2847 3FC8                      l3495 4F94  
                    l3487 4F1C                      l3479 4EBC                      l4519 3F50  
                    l4471 3BDA                      l4463 3B82                      l4455 3AD2  
                    l4711 1EEA                      l4703 1E2E                      l4631 17A6  
                    l4623 175E                      l4615 1652                      l4607 15CE  
                    l4551 1206                      l4527 1108                      l4393 4A54  
                    l4385 4A18                      l4377 49DE                      l4369 4994  
                    l2961 424A                      l2953 41E8                      l2945 41CA  
                    l2937 4192                      l2929 414C                      l2881 407A  
                    l2873 4052                      l2865 4028                      l2857 3FF8  
                    l2849 3FD8                      l3497 4F9C                      l3489 4F38  
                    l4481 3C6E                      l4465 3BB0                      l4457 3B08  
                    l4449 3AB2                      l4801 27EA                      l4721 1F52  
                    l4713 1EFE                      l4705 1E96                      l4641 1860  
                    l4633 17B4                      l4617 1662                      l4625 1782  
                    l4609 15E4                      l4561 13BC                      l4553 121A  
                    l4545 11CC                      l4537 1150                      l4395 4A66  
                    l4387 4A24                      l4379 49E6                      l2963 425A  
                    l2947 41CE                      l2939 41A2                      l2955 41EE  
                    l2891 408E                      l2883 407E                      l2875 4064  
                    l2867 4038                      l2859 4006                      l3499 4FB8  
                    l4491 3D28                      l4483 3C7A                      l4467 3BC4  
                    l4475 3BFA                      l4811 28D4                      l4803 2866  
                    l4731 206E                      l4715 1F22                      l4723 1F62  
                    l4707 1EAE                      l4651 1930                      l4635 17CA  
                    l4643 1870                      l4619 16C6                      l4571 1402  
                    l4555 1236                      l4547 11DC                      l4539 1172  
                    l4397 4A7C                      l4389 4A42                      l2981 42DC  
                    l2973 42B4                      l2957 4214                      l2965 426A  
                    l2949 41DC                      l2893 4092                      l2885 4082  
                    l2877 4072                      l2869 403A                      l4493 3D48  
                    l4485 3C88                      l4477 3C50                      l4469 3BD2  
                    l4901 31B2                      l4821 29FC                      l4813 28E4  
                    l4805 289A                      l4741 20EC                      l4733 20A2  
                    l4725 1F72                      l4717 1F36                      l4709 1EC6  
                    l4661 1A4A                      l4645 1892                      l4629 1796  
                    l4557 1334                      l4549 11EA                      l4399 4A82  
                    l2983 42E4                      l2975 42BE                      l2967 4290  
                    l2959 4248                      l2991 4308                      l2895 4096  
                    l2887 4086                      l2879 4076                      l4495 3D5C  
                    l4487 3CF0                      l4479 3C64                      l4911 33B8  
                    l4903 31C2                      l4831 2B52                      l4823 2A60  
                    l4815 2918                      l4807 28AA                      l4751 223C  
                    l4743 20FC                      l4735 20B2                      l4727 1F82  
                    l4719 1F46                      l4671 1B76                      l4647 18B6  
                    l4655 199C                      l4639 184A                      l4591 1506  
                    l4575 142C                      l4567 13D2                      l4559 13A0  
                    l4583 1478                      l2993 430C                      l2985 42E8  
                    l2977 42CC                      l2969 42A0                      l2897 409A  
                    l2889 408A                      l4497 3D9A                      l4489 3CFE  
                    l4921 345A                      l4905 31E4                      l4913 33EC  
                    l4841 2BD0                      l4833 2B62                      l4825 2A86  
                    l4817 294C                      l4809 28BA                      l4761 2388  
                    l4753 2270                      l4745 2156                      l4737 20C2  
                    l4729 1FE6                      l4681 1CF6                      l4673 1BCE  
                    l4657 19C0                      l4665 1AB6                      l4649 18C4  
                    l4585 1494                      l4577 143A                      l4569 13F4  
                    l3971 56A2                      l3963 5684                      l2995 431A  
                    l2987 42F8                      l2979 42CE                      l2899 409E  
                    l4499 3DE2                      l4931 3582                      l4923 346A  
                    l4915 3420                      l4907 3316                      l4851 2CBC  
                    l4843 2C34                      l4835 2B72                      l4827 2ABA  
                    l4819 2980                      l4771 2540                      l4763 23E0  
                    l4755 22C8                      l4747 21C8                      l4739 20D2  
                    l4683 1D06                      l4675 1C02                      l4667 1AEA  
                    l4659 19DE                      l4691 1D9C                      l4595 153E  
                    l4587 14A2                      l4579 1462                      l3981 56D6  
                    l3973 56B0                      l3965 5688                      l2997 4330  
                    l2989 42FA                      l4941 36AA                      l4933 35B6  
                    l4925 349E                      l4917 3430                      l4909 33A8  
                    l4861 2DCA                      l4853 2CD6                      l4845 2C68  
                    l4837 2B8C                      l4829 2B1E                      l4781 2668  
                    l4773 2574                      l4765 2438                      l4757 2320  
                    l4749 21D8                      l4693 1DAC                      l4685 1D20  
                    l4677 1C36                      l4669 1B42                      l4597 1556  
                    l4589 14EE                      l3991 5710                      l3983 56DE  
                    l3975 56B8                      l3967 5696                      l4951 3886  
                    l4943 3702                      l4935 35EA                      l4927 34D2  
                    l4919 3440                      l4863 2DFE                      l4855 2CE6  
                    l4839 2B9C                      l4791 270A                      l4783 269C  
                    l4775 25A8                      l4767 2490                      l4759 2354  
                    l4695 1DC8                      l4847 2C9C                      l4687 1D30  
                    l4679 1CE6                      l4599 1564                      l3993 5718  
                    l3985 56E6                      l3977 56BC                      l3969 569E  
                    l4961 398A                      l4953 38DE                      l4945 375A  
                    l4937 361E                      l4929 352A                      l4865 2E0E  
                    l4857 2D3E                      l4849 2CAC                      l4793 271A  
                    l4785 26D0                      l4777 2600                      l4769 24E8  
                    l4697 1DFC                      l4689 1D64                      l3995 571A  
                    l3987 56F4                      l3979 56C4                      l4963 399A  
                    l4955 3912                      l4947 37B2                      l4939 3652  
                    l4891 3060                      l4883 2FAC                      l4875 2EAE  
                    l4867 2E1E                      l4859 2D96                      l4795 274E  
                    l4787 26E0                      l4779 2634                      l4699 1E0E  
                    l3997 5720                      l3989 56FA                      l4965 39DC  
                    l4957 3946                      l4949 380A                      l4893 307E  
                    l4885 2FF4                      l4877 2EC6                      l4869 2E42  
                    l4797 2782                      l4789 26F0                      l4981 562C  
                    l4973 5596                      l3999 5726                      l4967 3A2C  
                    l4959 397A                      l4895 30D4                      l4879 2F40  
                    l4799 27B6                      l4983 5644                      l4975 559A  
                    l4991 59E0                      l4969 3A7C                      l4985 565A  
                    l4977 55D0                      l4993 59E4                      l4899 3140  
                    l4987 566A                      l4979 5610                      l4995 59E8  
                    l4989 5670                      l4997 59B2                      l4999 59B6  
                    STR_1 107D                      u2300 3F9E                      u2301 3F9A  
                    u2310 3FAE                      u2311 3FAA                      u2400 40FA  
                    u2320 3FF0                      u3200 51AC                      _LATD 000F8C  
                    u2321 3FEC                      u3201 51A8                      u2410 4122  
                    u2330 4006                      u3210 51CA                      u2411 411E  
                    u2331 4002                      u3211 51C6                      u4100 53A2  
                    u2500 425A                      u2420 4140                      u2340 4018  
                    u3220 51DA                      u4101 539E                      u2501 4256  
                    u2421 413C                      u2341 4014                      u3221 51D6  
                    u4110 53D6                      u3150 590A                      u2510 4290  
                    u2430 4160                      u2350 4028                      u3230 51E8  
                    u3151 5906                      u2511 428C                      u2431 415C  
                    u2351 4024                      u3231 51E4                      u4040 5696  
                    u4120 5404                      u2600 435A                      u2520 42A0  
                    u2440 416E                      u2360 4064                      u3240 5222  
                    u3160 50A2                      u3400 4E88                      u5000 1236  
                    u4041 5692                      u4121 5400                      u2601 4356  
                    u2521 429C                      u2441 416A                      u2361 4060  
                    u3241 521E                      u3161 509E                      u3401 4E84  
                    u5001 1232                      u4050 56B0                      u4130 5418  
                    u2610 4374                      u2530 42CC                      u2450 417E  
                    u2370 4072                      u2290 3F8C                      u3250 5230  
                    u3170 50B0                      u3410 4EE0                      u4051 56AC  
                    u4131 5414                      u4115 53CC                      u2611 4370  
                    u2531 42C8                      u2451 417A                      u2371 406E  
                    u2291 3F88                      u3251 522C                      u3171 50AC  
                    u3411 4EDC                      u4300 4C98                      u4060 56D6  
                    u4140 5440                      u2620 43AE                      u2540 42DC  
                    u2460 41B0                      u2380 40E0                      u3180 510C  
                    u2700 446E                      u3420 4F38                      u5100 1494  
                    u4301 4C94                      u4061 56D2                      u4141 543C  
                    u2621 43AA                      u2541 42D8                      u2461 41AC  
                    u2381 40DC                      u3181 5108                      u2701 446A  
                    u3421 4F34                      u5101 1490                      u4310 4CB4  
                    u4070 56F4                      u4150 5460                      u2630 43C0  
                    u2550 42F8                      u2470 41BE                      u2390 40F8  
                    u3190 5162                      u2710 44AE                      u3430 4F60  
                    u5110 14A2                      u5030 12FA                      u4311 4CB0  
                    u4071 56F0                      u4151 545C                      u2631 43BC  
                    u2551 42F4                      u2471 41BA                      u2391 40F2  
                    u3191 515E                      u2711 44AA                      u3431 4F5C  
                    u5111 149E                      u5015 124C                      u4400 4D7C  
                    u4320 4CCE                      u4080 5710                      u4160 5470  
                    u2640 43D0                      u2560 4308                      u2480 41DC  
                    u2800 474A                      u2720 44C0                      u3440 4FB8  
                    u5200 16C6                      u5120 1506                      u5040 1334  
                    u5016 1256                      u4401 4D78                      u4321 4CCA  
                    u4081 570C                      u4161 546C                      u2641 43CC  
                    u2561 4304                      u2481 41D8                      u2801 4746  
                    u2721 44BC                      u3441 4FB4                      u5201 16C2  
                    u5121 1502                      u5041 1330                      u5025 12A6  
                    u5017 1266                      u4410 4D98                      u4330 4CE0  
                    u4250 4C12                      u4090 5736                      u2650 43F0  
                    u2570 431A                      u2490 4214                      u2810 4760  
                    u2730 44D0                      u3450 5010                      u5210 175E  
                    u5130 1556                      u5050 13A0                      u5026 12B0  
                    u4411 4D94                      u4331 4CDC                      u4251 4C0E  
                    u4091 5732                      u2651 43EC                      u2571 4316  
                    u2491 4210                      u2811 475C                      u2731 44CC  
                    u3451 500C                      u5211 175A                      u5131 1552  
                    u5051 139C                      u5035 12F0                      u5027 12C0  
                    u4420 4DB2                      u4340 4CF6                      u4260 4C2E  
                    u2660 4402                      u2580 4330                      u2820 4774  
                    u2740 4506                      u2900 553C                      u5300 1DC8  
                    u5220 17B4                      u5140 1564                      u5060 13BC  
                    u4421 4DAE                      u4341 4CF2                      u4261 4C2A  
                    u2661 43FE                      u2581 432C                      u2821 4770  
                    u2741 4502                      u2901 5538                      u5301 1DC4  
                    u5221 17B0                      u5141 1560                      u5061 13B8  
                    u4430 4DC4                      u4350 4D0E                      u4270 4C4E  
                    u2670 441E                      u2590 4346                      u2830 478E  
                    u2750 4516                      u2910 558C                      u5230 17CA  
                    u5150 15CE                      u5070 13F4                      u4431 4DC0  
                    u4351 4D0A                      u4271 4C4A                      u2671 441A  
                    u2591 4342                      u2831 478A                      u2751 4512  
                    u2911 5588                      u5231 17C6                      u5151 15CA  
                    u5071 13F0                      u4440 4DDA                      u4360 4D20  
                    u4280 4C68                      u4600 48DE                      u2840 47D6  
                    u2760 4690                      u2680 444C                      u5400 30D4  
                    u5320 1EEA                      u5240 1860                      u5160 15E4  
                    u5080 1402                      u4441 4DD6                      u4361 4D1C  
                    u4281 4C64                      u4601 48DA                      u2841 47D2  
                    u2681 4448                      u3465 502A                      u5401 30D0  
                    u5321 1EE6                      u5241 185C                      u5161 15E0  
                    u5081 13FE                      u4450 4DF2                      u4370 4D3A  
                    u4290 4C7A                      u4610 48F0                      u2850 4804  
                    u2770 46EA                      u2690 445E                      u5330 1F22  
                    u5250 1892                      u5170 1600                      u5090 143A  
                    u4451 4DEE                      u4371 4D36                      u4291 4C76  
                    u4611 48EC                      u2851 4800                      u2771 46E6  
                    u2691 445A                      u5331 1F1E                      u5315 1E44  
                    u5251 188E                      u5171 15FC                      u5091 1436  
                    u4460 4E04                      u4380 4D54                      u4700 4A9A  
                    u4620 4900                      u2860 483E                      u2780 470A  
                    u5500 3A2C                      u5420 31E4                      u5316 1E4E  
                    u5260 18B6                      u5180 161E                      u4461 4E00  
                    u4381 4D50                      u4701 4A96                      u4621 48FC  
                    u2861 483A                      u2781 4706                      u2765 4686  
                    u5501 3A28                      u5421 31E0                      u5317 1E5E  
                    u5261 18B2                      u5181 161A                      u4390 4D66  
                    u4710 4ABA                      u4630 4940                      u2790 471C  
                    u2870 54C0                      u5350 2E42                      u5270 18C4  
                    u5190 1662                      u5510 5644                      u4391 4D62  
                    u4711 4AB6                      u4631 493C                      u2791 4718  
                    u2871 54BC                      u5415 3170                      u5351 2E3E  
                    u5271 18C0                      u5191 165E                      u5511 5640  
                    u4720 4ACC                      u4640 4980                      u2880 54FE  
                    u4800 3B08                      u5416 317A                      u5360 2EC6  
                    u5280 19C0                      u4721 4AC8                      u4641 497C  
                    u2881 54FA                      u4801 3B04                      u5417 318A  
                    u5361 2EC2                      u5345 2168                      u5281 19BC  
                    u4730 4AFA                      u4650 49F6                      u4570 4878  
                    u2890 551C                      u4810 3B82                      u5370 2F40  
                    u5290 19DE                      u4731 4AF6                      u4651 49F2  
                    u4571 4874                      u2891 5518                      u4811 3B7E  
                    u5435 31FE                      u5371 2F3C                      u5291 19DA  
                    u4740 4B10                      u4660 4A18                      u4580 488A  
                    u4900 3E18                      u4820 3BB0                      u5436 3208  
                    u5380 2FF4                      u4741 4B0C                      u4661 4A14  
                    u4581 4886                      u4901 3E14                      u4821 3BAC  
                    u5445 3268                      u5437 3218                      u5381 2FF0  
                    u4750 4B24                      u4670 4A42                      u4590 489A  
                    u4910 3E5A                      u4830 3BD2                      u5470 33A8  
                    u5446 3272                      u5390 307E                      u4751 4B20  
                    u4671 4A3E                      u4591 4896                      u4911 3E56  
                    u4831 3BCE                      u5471 33A4                      u5455 32C0  
                    u5447 3282                      u5391 307A                      u4760 4B3E  
                    u4680 4A66                      u4920 3E9E                      u5456 32CA  
                    u4761 4B3A                      u4681 4A62                      u4921 3E9A  
                    u5465 336E                      u5457 32DA                      u4770 4B86  
                    u4690 4A7C                      u4850 3C50                      u5466 3378  
                    u4771 4B82                      u4691 4A78                      u4851 3C4C  
                    u5467 3388                      u4780 4BB6                      u4860 3C88  
                    u4940 1108                      u4781 4BB2                      u4861 3C84  
                    u4845 3C0E                      u5485 39AC                      u4941 1104  
                    u4790 4BE4                      u4870 3CFE                      u4846 3C18  
                    u4950 113A                      u4791 4BE0                      u4935 3F20  
                    u4871 3CFA                      u4847 3C28                      u5495 39F2  
                    u4951 1136                      u4880 3D9A                      u5496 39FC  
                    u4960 1172                      u4881 3D96                      u5497 3A0C  
                    u4961 116E                      u4890 3E02                      u4970 1194  
                    u4891 3DFE                      u4971 1190                      u4980 11EA  
                    u4981 11E6                      u4990 1206                      u4991 1202  
                    _cp_h 1079                      _cp_l 1075                      _dp_h 1009  
                    _dp_l 1001                      _main 59B2                      _nanf 5990  
                    _huge 1061                      _powf 1080                      _tiny 105D  
                    fsr1l 000FE1                      btemp 0056                      prodh 000FF4  
                    prodl 000FF3                      start 000E             __CFG_IESO$OFF 000000  
         ___fldiv@new_exp 0065             __CFG_MCLRE$ON 000000              ___param_bank 000000  
                   ??_FSM 000A             ___fltol@sign1 004B           __end_of___fladd 4432  
                   ?_main 0001                     ?_nanf 000A           __end_of___fldiv 4BF8  
         __end_of___awdiv 5748           __end_of___flneg 592C           __end_of___flmul 485C  
                   ?_powf 008D           __end_of___flsub 58F4           __end_of___fltol 5492  
         ?_interrupt_init 0001                     _T0CON 000FD5           ___awdiv@divisor 000C  
         __end_of___lwmod 57AC                     i2l115 598C                     i2l220 58AC  
                   i2l242 5388                     i2l228 585C                     i2l945 57AA  
                   i2l938 57A2           ___awdiv@counter 000E                     _TMR0H 000FD7  
                   _TMR0L 000FD6                     _TRISD 000F95             __CFG_PWRT$OFF 000000  
          __CFG_FCMEN$OFF 000000                     _lg2_h 1029                     _lg2_l 1025  
                   _fabsf 592C                     _myISR 0008                     _errno 00B6  
                   _ivln2 1019           __end_of_ivln2_h 1075           __end_of_ivln2_l 1019  
                   _two24 1065           __end_of_scalbnf 5090         _preCalculate$1389 00A8  
                   _state 0052                     _sqrtf 3AB2                     nanf@s 000A  
                   nanf@u 000E            __CFG_BOREN$OFF 000000                     tablat 000FF5  
                   powf@i 012C                     powf@j 01AC                     powf@k 01A0  
                   powf@n 0180                     powf@r 014C                     powf@s 015C  
                   powf@t 01B0                     powf@u 0174                     powf@v 0178  
                   powf@w 0144                     powf@x 008D                     powf@y 0091  
                   powf@z 01B4                     ttemp5 0057                     ttemp6 005A  
                   ttemp7 005E                     status 000FD8                     wtemp8 0057  
         __initialization 57AC              __end_of_cp_h 107D              __end_of_cp_l 1079  
            __end_of_dp_h 1011              __end_of_dp_l 1009              __end_of_main 59CE  
            __end_of_nanf 59B2              __end_of_huge 1065              __end_of_powf 3AB2  
            __end_of_tiny 1061      __end_of_handleButton 538A                    ??_main 004D  
                  ??_nanf 000E                    ??_powf 0095             __activetblptr 000003  
  __size_of_readButtonRB0 0052    __size_of_readButtonRA5 0050                    ?_fabsf 000A  
                  _ADCON1 000FC1                    ?_myISR 0001          ___awdiv@dividend 000A  
                  ?_sqrtf 0047                    i2l4111 576A                    i2l4113 5778  
                  i2l4105 5748                    i2l4115 578E                    i2l4107 575A  
                  i2l4051 585E                    i2l4117 5796                    i2l4109 5762  
                  i2l4061 5898                    i2l4053 5862                    i2l4119 579C  
                  i2l4055 586A                    i2l4071 5810                    i2l4057 587C  
                  i2l4065 58A4                    i2l4073 5818                    i2l4241 5270  
                  i2l4059 588C                    i2l4075 582C                    i2l4083 5854  
                  i2l4251 52CE                    i2l4243 5278                    i2l4077 583C  
                  i2l4069 580C                    i2l4261 531E                    i2l4245 527C  
                  i2l4253 52D8                    i2l4237 5244                    i2l4079 5848  
                  i2l4271 5378                    i2l4263 5324                    i2l4255 52EC  
                  i2l4247 52A2                    i2l4239 525C                    i2l4265 534A  
                  i2l4257 52F4                    i2l4249 52A8                    i2l4259 52F8  
                  i2l4267 5354                    i2l4283 5962                    i2l4269 5366  
                  i2l4285 5970                    i2l4287 597E                    i2l4289 5988  
                  _OSCCON 000FD3          __end_of___xxtofl 5244            __CFG_XINST$OFF 000000  
                  ___flge 5492                 ??___fladd 0012                 ??___fldiv 0043  
               ??___awdiv 000E                 ??___flneg 000E                 ??___flmul 0022  
               ??___flsub 003B                 ??___fltol 00A2              ?_timer0_init 0001  
               ??___lwmod 0005                    fabsf@u 000E                    fabsf@x 000A  
                  clear_0 57F0          ___awdiv@quotient 0010          __end_of_pin_init 59E0  
        __end_of_osc_init 59F8              __pdataCOMRAM 0053                 ??_scalbnf 0039  
            __mediumconst 0000                    powf@s2 018C                    powf@t1 0184  
                  powf@t2 011C                    tblptrh 000FF7                    tblptrl 000FF6  
                  powf@y1 0128                    tblptru 000FF8                    powf@ax 0170  
                  powf@is 0194                    powf@hx 0160                    powf@hy 017C  
                  powf@ix 01A8                    powf@iy 0190                    powf@sn 0188  
                  sqrtf@i 006D                    sqrtf@m 0081                    sqrtf@q 0075  
                  sqrtf@r 0085                    sqrtf@s 0069                    sqrtf@t 0079  
                  sqrtf@x 0047                    sqrtf@z 007D                ___flge@ff1 003B  
              ___flge@ff2 003F              ___xxtofl@arg 0014              ___xxtofl@exp 0013  
            ___xxtofl@val 000A                __accesstop 0060   __end_of__initialization 5802  
              ___flneg@f1 000A             ?_preCalculate 0001             _readButtonRB0 580C  
           _readButtonRA5 585E             ___rparam_used 000001                ___fltol@f1 009E  
          __pcstackCOMRAM 0001              __pidataBANK0 59F8             __end_of_lg2_h 102D  
           __end_of_lg2_l 1029             __end_of_fabsf 5960             __end_of_myISR 5990  
           __end_of_ivln2 101D             __end_of_two24 1069             __end_of_sqrtf 3F72  
              __end_of_L1 105D                __end_of_L2 1059                __end_of_L3 1055  
              __end_of_L4 1051                __end_of_L5 104D                __end_of_L6 1049  
              __end_of_P1 1045                __end_of_P2 1041                __end_of_P3 103D  
              __end_of_P4 1039                __end_of_P5 1035                __end_of_bp 1071  
              __end_of_cp 1021          preCalculate@temp 00AE           __CFG_OSC$INTIO7 000000  
                 ??_fabsf 000E                   ??_myISR 000A                   ??_sqrtf 0060  
              __pbssBANK0 00B2            ??_preCalculate 00A6            ?_readButtonRB0 0001  
          ?_readButtonRA5 0001     __size_of_handleButton 0146                   ?___flge 003B  
        ??_interrupt_init 000A  preCalculate@count_scaled 00B0                 ?___xxtofl 000A  
                 _OSCTUNE 000F9B              _handleButton 5244                 ?_pin_init 0001  
                 __Hparam 0000                 ?_osc_init 0001                   __Lparam 0000  
         __size_of___flge 0104                   ___fladd 3F72                   ___fldiv 485C  
                 ___awdiv 5684                   ___flneg 58F4                   ___flmul 4432  
                 ___flsub 58AE                   ___fltol 538A                   ___lwmod 5748  
            __psmallconst 1000                   __pcinit 57AC                   __ramtop 1000  
    __size_of_timer0_init 000E                   __ptext0 59B2                   __ptext1 59E0  
                 __ptext2 5596                   __ptext3 1080                   __ptext4 3AB2  
                 __ptext5 5990                   __ptext6 5492                   __ptext7 4E5C  
                 __ptext8 4432                   __ptext9 592C                 _T0CONbits 000FD5  
            __size_of_FSM 0264                   _ivln2_h 1071                   _ivln2_l 1015  
              ??___xxtofl 000E                   _scalbnf 4E5C            __pintcode_body 5960  
    end_of_initialization 5802           ??_readButtonRB0 0003           ??_readButtonRA5 0003  
                 int_func 5960                ??_pin_init 000A                ??_osc_init 000A  
                 powf@p_h 019C                   powf@p_l 0164                   powf@s_h 016C  
                 powf@t_h 0168                   powf@s_l 0130                   powf@t_l 0134  
                 powf@z_h 0120                   powf@z_l 0124                   postdec1 000FE5  
                 postinc0 000FEE                   sqrtf@ix 0089      handleButton@checkRB0 0008  
    handleButton@checkRA5 0006                 _PORTAbits 000F80                 _PORTBbits 000F81  
    __end_of_preCalculate 5684               ___fladd@grs 0019             ___xxtofl@sign 0012  
               _TRISAbits 000F92                 _TRISBbits 000F93               ___fldiv@grs 0067  
             ___fldiv@rem 0060               ___flmul@grs 0027            __end_of___flge 5596  
           __pidataCOMRAM 5A08              _firstReadRB0 00CA              _firstReadRA5 0055  
           _secondReadRB0 0053             _secondReadRA5 0054       start_initialization 57AC  
             __end_of_FSM 4E5C               __end_of_lg2 1031               __end_of_ovt 1025  
       preCalculate@count 00AC              _counter_high 00B8                  ??___flge 0043  
             __pdataBANK0 00C2                 ___fladd@a 000E                 ___fladd@b 000A  
               ___fldiv@a 003F                 ___fldiv@b 003B                 ___flmul@a 001E  
               ___flmul@b 001A               __pbssCOMRAM 004D                 ___flsub@a 0037  
               ___flsub@b 0033             __pcstackBANK0 0060             __pcstackBANK1 0100  
       __end_ofsqrtf@tiny 1015         __size_of___xxtofl 01B4                 _decrease1 00BD  
               _decrease2 00BC            _time_interval1 00C4            _time_interval2 00C2  
               __pintcode 0008         __size_of_pin_init 0012                  ?___fladd 000A  
                ?___fldiv 003B                  ?___awdiv 000A                  ?___flneg 000A  
       __size_of_osc_init 000A     __size_of_preCalculate 00EE                  ?___flmul 001A  
                ?___flsub 0033                  ?___fltol 009E                  ?___lwmod 0001  
               fabsf@F463 00B2               __smallconst 1000                  ?_scalbnf 0033  
               _increase1 00BF                 _increase2 00BE                 _buttonRB0 00C0  
               _buttonRA5 00C1            __size_of_fabsf 0034            __size_of_myISR 5988  
          __size_of_sqrtf 04C0                 _powf$1400 0108                 _powf$1401 010C  
               _powf$1402 0110                 _powf$1403 0114                 _powf$1404 0118  
               _powf$1390 01A4                 _powf$1391 0154                 _powf$1392 0148  
               _powf$1393 0198                 _powf$1394 0138                 _powf$1395 0100  
               _powf$1396 0104                 _powf$1397 0158                 _powf$1398 013C  
               _powf$1399 0140              _preCalculate 5596                  i2u420_40 583C  
                i2u420_41 5838                  i2u422_40 575A                  i2u422_41 5756  
                i2u423_40 5778                  i2u423_41 5774                  i2u424_40 578E  
                i2u424_41 578A                  i2u417_40 587C                  i2u417_41 5878  
                i2u418_40 588C                  i2u450_40 52EC                  i2u418_41 5888  
                i2u450_41 52E8                  i2u419_40 582C                  i2u451_40 531E  
                i2u419_41 5828                  i2u451_41 531A                  i2u452_40 534A  
                i2u452_41 5346                  i2u453_40 5366                  i2u453_41 5362  
                i2u454_40 5378                  i2u454_41 5374                  i2u447_40 5270  
                i2u455_40 5970                  i2u447_41 526C                  i2u455_41 596C  
                i2u448_40 52A2                  i2u456_40 597E                  i2u448_41 529E  
                i2u456_41 597A                  i2u449_40 52CE                  i2u449_41 52CA  
           ??_timer0_init 004D                powf@yisint 0150   __size_of_interrupt_init 0006  
               copy_data0 57C0     __end_of_readButtonRB0 585E     __end_of_readButtonRA5 58AE  
             _counter_low 00BA                  __Hrparam 0000                  __Lrparam 0000  
        __size_of___fladd 04C0          __size_of___fldiv 039C          __size_of___awdiv 00C4  
        __size_of___flneg 0038          __size_of___flmul 042A          __size_of___flsub 0046  
        __size_of___fltol 0108          __size_of___lwmod 0064       __end_of_timer0_init 59EE  
                ___xxtofl 5090          __size_of_scalbnf 0234                  __ptext10 5090  
                __ptext11 58AE                  __ptext20 4BF8                  __ptext12 3F72  
                __ptext13 58F4                  __ptext22 5244                  __ptext14 485C  
                __ptext23 580C                  __ptext15 538A                  __ptext24 585E  
                __ptext16 5684                  __ptext25 5748                  __ptext17 59CE  
                __ptext18 59EE                  __ptext19 5A02                  _ledValue 0051  
           _time_pressed1 00C8             _time_pressed2 00C6                  _countRB0 004D  
                _countRA5 004F             __size_of_main 001C             __size_of_nanf 0022  
           __size_of_powf 2A32                  _pin_init 59CE      powf@__xc8_float_word 01B8  
                _osc_init 59EE                  int$flags 0056                _INTCONbits 000FF2  
                scalbnf@n 0037                  scalbnf@u 003D                  scalbnf@x 0033  
                scalbnf@y 0041                  intlevel2 0000             ?_handleButton 0001  
               sqrtf@tiny 1011          ___lwmod@dividend 0001               _timer0_init 59E0  
         ___lwmod@divisor 0003            _interrupt_init 5A02           ___lwmod@counter 0005  
           ___fladd@signs 0016            ??_handleButton 0006     sqrtf@__xc8_float_word 0071  
            ___fladd@aexp 0017              ___fladd@bexp 0018  
