

Microchip MPLAB XC8 Assembler V2.10 build 88905656 
                                                                                               Sat Oct 05 20:12:10 2019

Microchip MPLAB XC8 C Compiler v2.10 (Free license) build 20190730164152 Og1 
     1                           	processor	18F8722
     2                           	fnconf	rparam,??,?,0
     3                           	opt	pw 120
     4                           	opt	flic
     5                           	psect	idataBANK0,global,class=CODE,delta=1,noexec
     6                           	psect	smallconst,global,reloc=2,class=SMALLCONST,delta=1,noexec
     7                           	psect	cinit,global,reloc=2,class=CODE,delta=1
     8                           	psect	bssCOMRAM,global,class=COMRAM,space=1,delta=1,noexec
     9                           	psect	bssBANK0,global,class=BANK0,space=1,delta=1,lowdata,noexec
    10                           	psect	dataBANK0,global,class=BANK0,space=1,delta=1,lowdata,noexec
    11                           	psect	cstackBANK1,global,class=BANK1,space=1,delta=1,noexec
    12                           	psect	cstackBANK0,global,class=BANK0,space=1,delta=1,noexec
    13                           	psect	cstackCOMRAM,global,class=COMRAM,space=1,delta=1,noexec
    14                           	psect	text0,global,reloc=2,class=CODE,delta=1
    15                           	psect	text1,global,reloc=2,class=CODE,delta=1
    16                           	psect	text2,global,reloc=2,class=CODE,delta=1
    17                           	psect	text3,global,reloc=2,class=CODE,delta=1
    18                           	psect	text4,global,reloc=2,class=CODE,delta=1
    19                           	psect	text5,global,reloc=2,class=CODE,delta=1
    20                           	psect	text6,global,reloc=2,class=CODE,delta=1
    21                           	psect	text7,global,reloc=2,class=CODE,delta=1
    22                           	psect	text8,global,reloc=2,class=CODE,delta=1
    23                           	psect	text9,global,reloc=2,class=CODE,delta=1
    24                           	psect	text10,global,reloc=2,class=CODE,delta=1
    25                           	psect	text11,global,reloc=2,class=CODE,delta=1
    26                           	psect	text12,global,reloc=2,class=CODE,delta=1
    27                           	psect	text13,global,reloc=2,class=CODE,delta=1
    28                           	psect	text14,global,reloc=2,class=CODE,delta=1
    29                           	psect	text15,global,reloc=2,class=CODE,delta=1,group=1
    30                           	psect	text16,global,reloc=2,class=CODE,delta=1
    31                           	psect	text17,global,reloc=2,class=CODE,delta=1
    32                           	psect	text18,global,reloc=2,class=CODE,delta=1,group=1
    33                           	psect	text19,global,reloc=2,class=CODE,delta=1
    34                           	psect	text20,global,reloc=2,class=CODE,delta=1
    35                           	psect	text21,global,reloc=2,class=CODE,delta=1
    36                           	psect	text22,global,reloc=2,class=CODE,delta=1,group=2
    37                           	psect	text23,global,reloc=2,class=CODE,delta=1,group=2
    38                           	psect	text24,global,reloc=2,class=CODE,delta=1,group=2
    39                           	psect	text25,global,reloc=2,class=CODE,delta=1,group=1
    40                           	psect	text26,global,reloc=2,class=CODE,delta=1,group=2
    41                           	psect	text27,global,reloc=2,class=CODE,delta=1,group=1
    42                           	psect	text28,global,reloc=2,class=CODE,delta=1,group=2
    43                           	psect	text29,global,reloc=2,class=CODE,delta=1,group=1
    44                           	psect	text30,global,reloc=2,class=CODE,delta=1,group=1
    45                           	psect	text31,global,reloc=2,class=CODE,delta=1,group=1
    46                           	psect	text32,global,reloc=2,class=CODE,delta=1,group=1
    47                           	psect	text33,global,reloc=2,class=CODE,delta=1,group=1
    48                           	psect	text34,global,reloc=2,class=CODE,delta=1,group=1
    49                           	psect	text35,global,reloc=2,class=CODE,delta=1,group=1
    50                           	psect	text36,global,reloc=2,class=CODE,delta=1
    51                           	psect	text37,global,reloc=2,class=CODE,delta=1
    52                           	psect	text38,global,reloc=2,class=CODE,delta=1
    53                           	psect	text39,global,reloc=2,class=CODE,delta=1
    54                           	psect	text40,global,reloc=2,class=CODE,delta=1
    55                           	psect	text41,global,reloc=2,class=CODE,delta=1
    56                           	psect	text42,global,reloc=2,class=CODE,delta=1
    57                           	psect	text43,global,reloc=2,class=CODE,delta=1
    58                           	psect	text44,global,reloc=2,class=CODE,delta=1
    59                           	psect	intcode,global,reloc=2,class=CODE,delta=1
    60                           	psect	intcode_body,global,reloc=2,class=CODE,delta=1
    61                           	psect	text46,global,reloc=2,class=CODE,delta=1
    62                           	psect	text47,global,reloc=2,class=CODE,delta=1
    63                           	psect	text48,global,reloc=2,class=CODE,delta=1
    64                           	psect	intsave_regs,global,class=BIGRAM,space=1,delta=1,noexec
    65                           	psect	rparam,global,class=COMRAM,space=1,delta=1,noexec
    66                           	psect	temp,global,ovrld,common,class=COMRAM,space=1,delta=1
    67  0000                     
    68                           ; Version 2.10
    69                           ; Generated 31/07/2019 GMT
    70                           ; 
    71                           ; Copyright © 2019, Microchip Technology Inc. and its subsidiaries ("Microchip")
    72                           ; All rights reserved.
    73                           ; 
    74                           ; This software is developed by Microchip Technology Inc. and its subsidiaries ("Microch
      +                          ip").
    75                           ; 
    76                           ; Redistribution and use in source and binary forms, with or without modification, are
    77                           ; permitted provided that the following conditions are met:
    78                           ; 
    79                           ;     1. Redistributions of source code must retain the above copyright notice, this lis
      +                          t of
    80                           ;        conditions and the following disclaimer.
    81                           ; 
    82                           ;     2. Redistributions in binary form must reproduce the above copyright notice, this 
      +                          list
    83                           ;        of conditions and the following disclaimer in the documentation and/or other
    84                           ;        materials provided with the distribution.
    85                           ; 
    86                           ;     3. Microchip's name may not be used to endorse or promote products derived from th
      +                          is
    87                           ;        software without specific prior written permission.
    88                           ; 
    89                           ; THIS SOFTWARE IS PROVIDED BY MICROCHIP "AS IS" AND ANY EXPRESS OR IMPLIED WARRANTIES,
    90                           ; INCLUDING, BUT NOT LIMITED TO, THE IMPLIED WARRANTIES OF MERCHANTABILITY AND FITNESS F
      +                          OR
    91                           ; PURPOSE ARE DISCLAIMED.  IN NO EVENT SHALL MICROCHIP BE LIABLE FOR ANY DIRECT, INDIREC
      +                          T,
    92                           ; INCIDENTAL, SPECIAL, EXEMPLARY, OR CONSEQUENTIAL DAMAGES (INCLUDING BUT NOT LIMITED TO
    93                           ; PROCUREMENT OF SUBSTITUTE GOODS OR SERVICES; LOSS OF USE, DATA OR PROFITS; OR BUSINESS
    94                           ; INTERRUPTION) HOWSOEVER CAUSED AND ON ANY THEORY OF LIABILITY, WHETHER IN CONTRACT, ST
      +                          RICT
    95                           ; LIABILITY, OR TORT (INCLUDING NEGLIGENCE OR OTHERWISE) ARISING IN ANY WAY OUT OF THE U
      +                          SE OF
    96                           ; THIS SOFTWARE, EVEN IF ADVISED OF THE POSSIBILITY OF SUCH DAMAGE.
    97                           ; 
    98                           ; 
    99                           ; Code-generator required, PIC18F8722 Definitions
   100                           ; 
   101                           ; SFR Addresses
   102  0000                     
   103                           	psect	idataBANK0
   104  00655C                     __pidataBANK0:
   105                           	opt callstack 0
   106                           
   107                           ;initializer for _secondReadRB0
   108  00655C  01                 	db	1
   109                           
   110                           ;initializer for _firstReadRB0
   111  00655D  01                 	db	1
   112                           
   113                           ;initializer for _secondReadRA5
   114  00655E  01                 	db	1
   115                           
   116                           ;initializer for _firstReadRA5
   117  00655F  01                 	db	1
   118                           
   119                           ;initializer for _changed_state_flag
   120  006560  01                 	db	1
   121                           
   122                           	psect	smallconst
   123  001000                     __psmallconst:
   124                           	opt callstack 0
   125  001000  00                 	db	0
   126  001001                     _dp_l:
   127                           	opt callstack 0
   128  001001  0000               	dw	0
   129  001003  0000               	dw	0
   130  001005  CFDC               	dw	53212
   131  001007  35D1               	dw	13777
   132  001009                     __end_of_dp_l:
   133                           	opt callstack 0
   134  001009                     _dp_h:
   135                           	opt callstack 0
   136  001009  0000               	dw	0
   137  00100B  0000               	dw	0
   138  00100D  C000               	dw	49152
   139  00100F  3F15               	dw	16149
   140  001011                     __end_of_dp_h:
   141                           	opt callstack 0
   142  001011  4260               	dw	16992
   143  001013  0DA2               	dw	3490
   144  001015                     __end_ofsqrtf@tiny:
   145                           	opt callstack 0
   146  001015  A570               	dw	42352
   147  001017  36EC               	dw	14060
   148  001019                     __end_of_ivln2_l:
   149                           	opt callstack 0
   150  001019  AA3B               	dw	43579
   151  00101B  3FB8               	dw	16312
   152  00101D                     __end_of_ivln2:
   153                           	opt callstack 0
   154  00101D  384F               	dw	14415
   155  00101F  3F76               	dw	16246
   156  001021                     __end_of_cp:
   157                           	opt callstack 0
   158  001021  AA3C               	dw	43580
   159  001023  3338               	dw	13112
   160  001025                     __end_of_ovt:
   161                           	opt callstack 0
   162  001025  BE8C               	dw	48780
   163  001027  35BF               	dw	13759
   164  001029                     __end_of_lg2_l:
   165                           	opt callstack 0
   166  001029  7200               	dw	29184
   167  00102B  3F31               	dw	16177
   168  00102D                     __end_of_lg2_h:
   169                           	opt callstack 0
   170  00102D  7218               	dw	29208
   171  00102F  3F31               	dw	16177
   172  001031                     __end_of_lg2:
   173                           	opt callstack 0
   174  001031  BB4C               	dw	47948
   175  001033  3331               	dw	13105
   176  001035                     __end_of_P5:
   177                           	opt callstack 0
   178  001035  EA0E               	dw	59918
   179  001037  B5DD               	dw	46557
   180  001039                     __end_of_P4:
   181                           	opt callstack 0
   182  001039  B355               	dw	45909
   183  00103B  388A               	dw	14474
   184  00103D                     __end_of_P3:
   185                           	opt callstack 0
   186  00103D  0B61               	dw	2913
   187  00103F  BB36               	dw	47926
   188  001041                     __end_of_P2:
   189                           	opt callstack 0
   190  001041  AAAB               	dw	43691
   191  001043  3E2A               	dw	15914
   192  001045                     __end_of_P1:
   193                           	opt callstack 0
   194  001045  F142               	dw	61762
   195  001047  3E53               	dw	15955
   196  001049                     __end_of_L6:
   197                           	opt callstack 0
   198  001049  3255               	dw	12885
   199  00104B  3E6C               	dw	15980
   200  00104D                     __end_of_L5:
   201                           	opt callstack 0
   202  00104D  A305               	dw	41733
   203  00104F  3E8B               	dw	16011
   204  001051                     __end_of_L4:
   205                           	opt callstack 0
   206  001051  AAAB               	dw	43691
   207  001053  3EAA               	dw	16042
   208  001055                     __end_of_L3:
   209                           	opt callstack 0
   210  001055  6DB7               	dw	28087
   211  001057  3EDB               	dw	16091
   212  001059                     __end_of_L2:
   213                           	opt callstack 0
   214  001059  999A               	dw	39322
   215  00105B  3F19               	dw	16153
   216  00105D                     __end_of_L1:
   217                           	opt callstack 0
   218  00105D  4260               	dw	16992
   219  00105F  0DA2               	dw	3490
   220  001061                     __end_of_tiny:
   221                           	opt callstack 0
   222  001061  F2CA               	dw	62154
   223  001063  7149               	dw	29001
   224  001065                     __end_of_huge:
   225                           	opt callstack 0
   226  001065  0000               	dw	0
   227  001067  4B80               	dw	19328
   228  001069                     __end_of_two24:
   229                           	opt callstack 0
   230  001069                     _bp:
   231                           	opt callstack 0
   232  001069  0000               	dw	0
   233  00106B  3F80               	dw	16256
   234  00106D  0000               	dw	0
   235  00106F  3FC0               	dw	16320
   236  001071                     __end_of_bp:
   237                           	opt callstack 0
   238  001071  AA00               	dw	43520
   239  001073  3FB8               	dw	16312
   240  001075                     __end_of_ivln2_h:
   241                           	opt callstack 0
   242  001075  23C6               	dw	9158
   243  001077  B8F6               	dw	47350
   244  001079                     __end_of_cp_l:
   245                           	opt callstack 0
   246  001079  4000               	dw	16384
   247  00107B  3F76               	dw	16246
   248  00107D                     __end_of_cp_h:
   249                           	opt callstack 0
   250  0000                     _PORTBbits	set	3969
   251  0000                     _PORTAbits	set	3968
   252  0000                     _LATCbits	set	3979
   253  0000                     _LATAbits	set	3977
   254  0000                     _TRISCbits	set	3988
   255  0000                     _TRISAbits	set	3986
   256  0000                     _LATFbits	set	3982
   257  0000                     _TRISFbits	set	3991
   258  0000                     _OSCCON	set	4051
   259  0000                     _ADCON1	set	4033
   260  0000                     _TRISC	set	3988
   261  0000                     _LATC	set	3979
   262  0000                     _TRISB	set	3987
   263  0000                     _LATB	set	3978
   264  0000                     _TRISA	set	3986
   265  0000                     _LATA	set	3977
   266  0000                     _TRISD	set	3989
   267  0000                     _T0CONbits	set	4053
   268  0000                     _T0CON	set	4053
   269  0000                     _TMR0H	set	4055
   270  0000                     _TMR0L	set	4054
   271  0000                     _INTCONbits	set	4082
   272  0000                     _LATD	set	3980
   273  00107D                     STR_10:
   274                           
   275                           ; BSR set to: 0
   276  00107D  53                 	db	83	;'S'
   277  00107E  65                 	db	101	;'e'
   278  00107F  74                 	db	116	;'t'
   279  001080  20                 	db	32
   280  001081  73                 	db	115	;'s'
   281  001082  65                 	db	101	;'e'
   282  001083  63                 	db	99	;'c'
   283  001084  20                 	db	32
   284  001085  20                 	db	32
   285  001086  20                 	db	32
   286  001087  52                 	db	82	;'R'
   287  001088  41                 	db	65	;'A'
   288  001089  35                 	db	53	;'5'
   289  00108A  3D                 	db	61	;'='
   290  00108B  2D                 	db	45
   291  00108C  3E                 	db	62	;'>'
   292  00108D  00                 	db	0
   293  00108E                     STR_9:
   294                           
   295                           ; BSR set to: 0
   296  00108E  53                 	db	83	;'S'
   297  00108F  65                 	db	101	;'e'
   298  001090  74                 	db	116	;'t'
   299  001091  20                 	db	32
   300  001092  6D                 	db	109	;'m'
   301  001093  69                 	db	105	;'i'
   302  001094  6E                 	db	110	;'n'
   303  001095  20                 	db	32
   304  001096  20                 	db	32
   305  001097  20                 	db	32
   306  001098  52                 	db	82	;'R'
   307  001099  41                 	db	65	;'A'
   308  00109A  35                 	db	53	;'5'
   309  00109B  3D                 	db	61	;'='
   310  00109C  2D                 	db	45
   311  00109D  3E                 	db	62	;'>'
   312  00109E  00                 	db	0
   313  00109F                     STR_8:
   314                           
   315                           ; BSR set to: 0
   316  00109F  53                 	db	83	;'S'
   317  0010A0  65                 	db	101	;'e'
   318  0010A1  74                 	db	116	;'t'
   319  0010A2  20                 	db	32
   320  0010A3  68                 	db	104	;'h'
   321  0010A4  6F                 	db	111	;'o'
   322  0010A5  75                 	db	117	;'u'
   323  0010A6  72                 	db	114	;'r'
   324  0010A7  20                 	db	32
   325  0010A8  20                 	db	32
   326  0010A9  52                 	db	82	;'R'
   327  0010AA  41                 	db	65	;'A'
   328  0010AB  35                 	db	53	;'5'
   329  0010AC  3D                 	db	61	;'='
   330  0010AD  2D                 	db	45
   331  0010AE  3E                 	db	62	;'>'
   332  0010AF  00                 	db	0
   333  0010B0                     STR_6:
   334                           
   335                           ; BSR set to: 0
   336  0010B0  53                 	db	83	;'S'
   337  0010B1  74                 	db	116	;'t'
   338  0010B2  6F                 	db	111	;'o'
   339  0010B3  70                 	db	112	;'p'
   340  0010B4  20                 	db	32
   341  0010B5  57                 	db	87	;'W'
   342  0010B6  20                 	db	32
   343  0010B7  20                 	db	32
   344  0010B8  20                 	db	32
   345  0010B9  20                 	db	32
   346  0010BA  52                 	db	82	;'R'
   347  0010BB  41                 	db	65	;'A'
   348  0010BC  35                 	db	53	;'5'
   349  0010BD  3D                 	db	61	;'='
   350  0010BE  2D                 	db	45
   351  0010BF  3E                 	db	62	;'>'
   352  0010C0  00                 	db	0
   353  0010C1                     STR_5:
   354                           
   355                           ; BSR set to: 0
   356  0010C1  43                 	db	67	;'C'
   357  0010C2  6C                 	db	108	;'l'
   358  0010C3  6F                 	db	111	;'o'
   359  0010C4  63                 	db	99	;'c'
   360  0010C5  6B                 	db	107	;'k'
   361  0010C6  20                 	db	32
   362  0010C7  20                 	db	32
   363  0010C8  20                 	db	32
   364  0010C9  20                 	db	32
   365  0010CA  20                 	db	32
   366  0010CB  52                 	db	82	;'R'
   367  0010CC  41                 	db	65	;'A'
   368  0010CD  35                 	db	53	;'5'
   369  0010CE  3D                 	db	61	;'='
   370  0010CF  2D                 	db	45
   371  0010D0  3E                 	db	62	;'>'
   372  0010D1  00                 	db	0
   373  0010D2                     STR_7:
   374                           
   375                           ; BSR set to: 0
   376  0010D2  20                 	db	32
   377  0010D3  20                 	db	32
   378  0010D4  20                 	db	32
   379  0010D5  20                 	db	32
   380  0010D6  20                 	db	32
   381  0010D7  20                 	db	32
   382  0010D8  20                 	db	32
   383  0010D9  20                 	db	32
   384  0010DA  00                 	db	0
   385  0000                     
   386                           ; #config settings
   387  0010DB  00                 	db	0	; dummy byte at the end
   388  0000                     
   389                           	psect	cinit
   390  006338                     __pcinit:
   391                           	opt callstack 0
   392  006338                     start_initialization:
   393                           	opt callstack 0
   394  006338                     __initialization:
   395                           	opt callstack 0
   396                           
   397                           ; Initialize objects allocated to BANK0 (5 bytes)
   398                           ; load TBLPTR registers with __pidataBANK0
   399  006338  0E5C               	movlw	low __pidataBANK0
   400  00633A  6EF6               	movwf	tblptrl,c
   401  00633C  0E65               	movlw	high __pidataBANK0
   402  00633E  6EF7               	movwf	tblptrh,c
   403  006340  0E00               	movlw	low (__pidataBANK0 shr (0+16))
   404  006342  6EF8               	movwf	tblptru,c
   405  006344  EE00  F0D1         	lfsr	0,__pdataBANK0
   406  006348  EE10 F005          	lfsr	1,5
   407  00634C                     copy_data0:
   408  00634C  0009               	tblrd		*+
   409  00634E  CFF5 FFEE          	movff	tablat,postinc0
   410  006352  50E5               	movf	postdec1,w,c
   411  006354  50E1               	movf	fsr1l,w,c
   412  006356  E1FA               	bnz	copy_data0
   413                           
   414                           ; Clear objects allocated to BANK0 (34 bytes)
   415  006358  EE00  F0AF         	lfsr	0,__pbssBANK0
   416  00635C  0E22               	movlw	34
   417  00635E                     clear_0:
   418  00635E  6AEE               	clrf	postinc0,c
   419  006360  06E8               	decf	wreg,f,c
   420  006362  E1FD               	bnz	clear_0
   421                           
   422                           ; Clear objects allocated to COMRAM (8 bytes)
   423  006364  EE00  F04F         	lfsr	0,__pbssCOMRAM
   424  006368  0E08               	movlw	8
   425  00636A                     clear_1:
   426  00636A  6AEE               	clrf	postinc0,c
   427  00636C  06E8               	decf	wreg,f,c
   428  00636E  E1FD               	bnz	clear_1
   429  006370                     end_of_initialization:
   430                           	opt callstack 0
   431  006370                     __end_of__initialization:
   432                           	opt callstack 0
   433  006370  9057               	bcf	int$flags,0,c	;clear compiler interrupt flag (level 1)
   434  006372  9257               	bcf	int$flags,1,c	;clear compiler interrupt flag (level 2)
   435  006374  0100               	movlb	0
   436  006376  EFD7  F02D         	goto	_main	;jump to C main() function
   437                           
   438                           	psect	bssCOMRAM
   439  00004F                     __pbssCOMRAM:
   440                           	opt callstack 0
   441  00004F                     _ms_sw:
   442                           	opt callstack 0
   443  00004F                     	ds	1
   444  000050                     _sec_sw:
   445                           	opt callstack 0
   446  000050                     	ds	1
   447  000051                     _min_sw:
   448                           	opt callstack 0
   449  000051                     	ds	1
   450  000052                     _sec:
   451                           	opt callstack 0
   452  000052                     	ds	1
   453  000053                     _min:
   454                           	opt callstack 0
   455  000053                     	ds	1
   456  000054                     _hr:
   457                           	opt callstack 0
   458  000054                     	ds	1
   459  000055                     _ledValue:
   460                           	opt callstack 0
   461  000055                     	ds	1
   462  000056                     _state:
   463                           	opt callstack 0
   464  000056                     	ds	1
   465                           
   466                           	psect	bssBANK0
   467  0000AF                     __pbssBANK0:
   468                           	opt callstack 0
   469  0000AF                     fabsf@F463:
   470                           	opt callstack 0
   471  0000AF                     	ds	4
   472  0000B3                     _errno:
   473                           	opt callstack 0
   474  0000B3                     	ds	2
   475  0000B5                     _countRB0_1:
   476                           	opt callstack 0
   477  0000B5                     	ds	2
   478  0000B7                     _countRB0:
   479                           	opt callstack 0
   480  0000B7                     	ds	2
   481  0000B9                     _countRA5_1:
   482                           	opt callstack 0
   483  0000B9                     	ds	2
   484  0000BB                     _countRA5:
   485                           	opt callstack 0
   486  0000BB                     	ds	2
   487  0000BD                     _count1:
   488                           	opt callstack 0
   489  0000BD                     	ds	2
   490  0000BF                     _count:
   491                           	opt callstack 0
   492  0000BF                     	ds	2
   493  0000C1                     _stateRB0:
   494                           	opt callstack 0
   495  0000C1                     	ds	1
   496  0000C2                     _stateRA5:
   497                           	opt callstack 0
   498  0000C2                     	ds	1
   499  0000C3                     _min_sw_changed_flag:
   500                           	opt callstack 0
   501  0000C3                     	ds	1
   502  0000C4                     _sec_sw_changed_flag:
   503                           	opt callstack 0
   504  0000C4                     	ds	1
   505  0000C5                     _ms_sw_changed_flag:
   506                           	opt callstack 0
   507  0000C5                     	ds	1
   508  0000C6                     _state_sw:
   509                           	opt callstack 0
   510  0000C6                     	ds	1
   511  0000C7                     _hr_changed_flag:
   512                           	opt callstack 0
   513  0000C7                     	ds	1
   514  0000C8                     _min_changed_flag:
   515                           	opt callstack 0
   516  0000C8                     	ds	1
   517  0000C9                     _sec_changed_flag:
   518                           	opt callstack 0
   519  0000C9                     	ds	1
   520  0000CA                     _ms_flag:
   521                           	opt callstack 0
   522  0000CA                     	ds	1
   523  0000CB                     _hide_flag:
   524                           	opt callstack 0
   525  0000CB                     	ds	1
   526  0000CC                     _second_flag:
   527                           	opt callstack 0
   528  0000CC                     	ds	1
   529  0000CD                     _buttonRB0:
   530                           	opt callstack 0
   531  0000CD                     	ds	1
   532  0000CE                     _buttonRA5:
   533                           	opt callstack 0
   534  0000CE                     	ds	1
   535  0000CF                     _counter_high:
   536                           	opt callstack 0
   537  0000CF                     	ds	1
   538  0000D0                     _counter_low:
   539                           	opt callstack 0
   540  0000D0                     	ds	1
   541                           
   542                           	psect	dataBANK0
   543  0000D1                     __pdataBANK0:
   544                           	opt callstack 0
   545  0000D1                     _secondReadRB0:
   546                           	opt callstack 0
   547  0000D1                     	ds	1
   548  0000D2                     _firstReadRB0:
   549                           	opt callstack 0
   550  0000D2                     	ds	1
   551  0000D3                     _secondReadRA5:
   552                           	opt callstack 0
   553  0000D3                     	ds	1
   554  0000D4                     _firstReadRA5:
   555                           	opt callstack 0
   556  0000D4                     	ds	1
   557  0000D5                     _changed_state_flag:
   558                           	opt callstack 0
   559  0000D5                     	ds	1
   560                           
   561                           	psect	cstackBANK1
   562  000100                     __pcstackBANK1:
   563                           	opt callstack 0
   564  000100                     _powf$1827:
   565                           	opt callstack 0
   566                           
   567                           ; 4 bytes @ 0x0
   568  000100                     	ds	4
   569  000104                     _powf$1828:
   570                           	opt callstack 0
   571                           
   572                           ; 4 bytes @ 0x4
   573  000104                     	ds	4
   574  000108                     _powf$1832:
   575                           	opt callstack 0
   576                           
   577                           ; 4 bytes @ 0x8
   578  000108                     	ds	4
   579  00010C                     _powf$1833:
   580                           	opt callstack 0
   581                           
   582                           ; 4 bytes @ 0xC
   583  00010C                     	ds	4
   584  000110                     _powf$1834:
   585                           	opt callstack 0
   586                           
   587                           ; 4 bytes @ 0x10
   588  000110                     	ds	4
   589  000114                     _powf$1835:
   590                           	opt callstack 0
   591                           
   592                           ; 4 bytes @ 0x14
   593  000114                     	ds	4
   594  000118                     _powf$1836:
   595                           	opt callstack 0
   596                           
   597                           ; 4 bytes @ 0x18
   598  000118                     	ds	4
   599  00011C                     powf@t2:
   600                           	opt callstack 0
   601                           
   602                           ; 4 bytes @ 0x1C
   603  00011C                     	ds	4
   604  000120                     powf@z_h:
   605                           	opt callstack 0
   606                           
   607                           ; 4 bytes @ 0x20
   608  000120                     	ds	4
   609  000124                     powf@z_l:
   610                           	opt callstack 0
   611                           
   612                           ; 4 bytes @ 0x24
   613  000124                     	ds	4
   614  000128                     powf@y1:
   615                           	opt callstack 0
   616                           
   617                           ; 4 bytes @ 0x28
   618  000128                     	ds	4
   619  00012C                     powf@i:
   620                           	opt callstack 0
   621                           
   622                           ; 4 bytes @ 0x2C
   623  00012C                     	ds	4
   624  000130                     powf@s_l:
   625                           	opt callstack 0
   626                           
   627                           ; 4 bytes @ 0x30
   628  000130                     	ds	4
   629  000134                     powf@t_l:
   630                           	opt callstack 0
   631                           
   632                           ; 4 bytes @ 0x34
   633  000134                     	ds	4
   634  000138                     _powf$1826:
   635                           	opt callstack 0
   636                           
   637                           ; 4 bytes @ 0x38
   638  000138                     	ds	4
   639  00013C                     _powf$1830:
   640                           	opt callstack 0
   641                           
   642                           ; 4 bytes @ 0x3C
   643  00013C                     	ds	4
   644  000140                     _powf$1831:
   645                           	opt callstack 0
   646                           
   647                           ; 4 bytes @ 0x40
   648  000140                     	ds	4
   649  000144                     powf@w:
   650                           	opt callstack 0
   651                           
   652                           ; 4 bytes @ 0x44
   653  000144                     	ds	4
   654  000148                     _powf$1824:
   655                           	opt callstack 0
   656                           
   657                           ; 4 bytes @ 0x48
   658  000148                     	ds	4
   659  00014C                     powf@r:
   660                           	opt callstack 0
   661                           
   662                           ; 4 bytes @ 0x4C
   663  00014C                     	ds	4
   664  000150                     powf@yisint:
   665                           	opt callstack 0
   666                           
   667                           ; 4 bytes @ 0x50
   668  000150                     	ds	4
   669  000154                     _powf$1823:
   670                           	opt callstack 0
   671                           
   672                           ; 4 bytes @ 0x54
   673  000154                     	ds	4
   674  000158                     _powf$1829:
   675                           	opt callstack 0
   676                           
   677                           ; 4 bytes @ 0x58
   678  000158                     	ds	4
   679  00015C                     powf@s:
   680                           	opt callstack 0
   681                           
   682                           ; 4 bytes @ 0x5C
   683  00015C                     	ds	4
   684  000160                     powf@hx:
   685                           	opt callstack 0
   686                           
   687                           ; 4 bytes @ 0x60
   688  000160                     	ds	4
   689  000164                     powf@p_l:
   690                           	opt callstack 0
   691                           
   692                           ; 4 bytes @ 0x64
   693  000164                     	ds	4
   694  000168                     powf@t_h:
   695                           	opt callstack 0
   696                           
   697                           ; 4 bytes @ 0x68
   698  000168                     	ds	4
   699  00016C                     powf@s_h:
   700                           	opt callstack 0
   701                           
   702                           ; 4 bytes @ 0x6C
   703  00016C                     	ds	4
   704  000170                     powf@ax:
   705                           	opt callstack 0
   706                           
   707                           ; 4 bytes @ 0x70
   708  000170                     	ds	4
   709  000174                     powf@u:
   710                           	opt callstack 0
   711                           
   712                           ; 4 bytes @ 0x74
   713  000174                     	ds	4
   714  000178                     powf@v:
   715                           	opt callstack 0
   716                           
   717                           ; 4 bytes @ 0x78
   718  000178                     	ds	4
   719  00017C                     powf@hy:
   720                           	opt callstack 0
   721                           
   722                           ; 4 bytes @ 0x7C
   723  00017C                     	ds	4
   724  000180                     powf@n:
   725                           	opt callstack 0
   726                           
   727                           ; 4 bytes @ 0x80
   728  000180                     	ds	4
   729  000184                     powf@t1:
   730                           	opt callstack 0
   731                           
   732                           ; 4 bytes @ 0x84
   733  000184                     	ds	4
   734  000188                     powf@sn:
   735                           	opt callstack 0
   736                           
   737                           ; 4 bytes @ 0x88
   738  000188                     	ds	4
   739  00018C                     powf@s2:
   740                           	opt callstack 0
   741                           
   742                           ; 4 bytes @ 0x8C
   743  00018C                     	ds	4
   744  000190                     powf@iy:
   745                           	opt callstack 0
   746                           
   747                           ; 4 bytes @ 0x90
   748  000190                     	ds	4
   749  000194                     powf@is:
   750                           	opt callstack 0
   751                           
   752                           ; 4 bytes @ 0x94
   753  000194                     	ds	4
   754  000198                     _powf$1825:
   755                           	opt callstack 0
   756                           
   757                           ; 4 bytes @ 0x98
   758  000198                     	ds	4
   759  00019C                     powf@p_h:
   760                           	opt callstack 0
   761                           
   762                           ; 4 bytes @ 0x9C
   763  00019C                     	ds	4
   764  0001A0                     powf@k:
   765                           	opt callstack 0
   766                           
   767                           ; 4 bytes @ 0xA0
   768  0001A0                     	ds	4
   769  0001A4                     _powf$1822:
   770                           	opt callstack 0
   771                           
   772                           ; 4 bytes @ 0xA4
   773  0001A4                     	ds	4
   774  0001A8                     powf@ix:
   775                           	opt callstack 0
   776                           
   777                           ; 4 bytes @ 0xA8
   778  0001A8                     	ds	4
   779  0001AC                     powf@j:
   780                           	opt callstack 0
   781                           
   782                           ; 4 bytes @ 0xAC
   783  0001AC                     	ds	4
   784  0001B0                     powf@t:
   785                           	opt callstack 0
   786                           
   787                           ; 4 bytes @ 0xB0
   788  0001B0                     	ds	4
   789  0001B4                     powf@z:
   790                           	opt callstack 0
   791                           
   792                           ; 4 bytes @ 0xB4
   793  0001B4                     	ds	4
   794  0001B8                     powf@__xc8_float_word:
   795                           	opt callstack 0
   796                           
   797                           ; 4 bytes @ 0xB8
   798  0001B8                     	ds	4
   799                           
   800                           	psect	cstackBANK0
   801  000060                     __pcstackBANK0:
   802                           	opt callstack 0
   803  000060                     ___fldiv@rem:
   804                           	opt callstack 0
   805                           
   806                           ; 4 bytes @ 0x0
   807  000060                     	ds	4
   808  000064                     ___fldiv@sign:
   809                           	opt callstack 0
   810  000064                     sqrtf@s:
   811                           	opt callstack 0
   812                           
   813                           ; 4 bytes @ 0x4
   814  000064                     	ds	1
   815  000065                     ___fldiv@new_exp:
   816                           	opt callstack 0
   817                           
   818                           ; 2 bytes @ 0x5
   819  000065                     	ds	2
   820  000067                     ___fldiv@grs:
   821                           	opt callstack 0
   822                           
   823                           ; 4 bytes @ 0x7
   824  000067                     	ds	1
   825  000068                     sqrtf@i:
   826                           	opt callstack 0
   827                           
   828                           ; 4 bytes @ 0x8
   829  000068                     	ds	3
   830  00006B                     ___fldiv@bexp:
   831                           	opt callstack 0
   832                           
   833                           ; 1 bytes @ 0xB
   834  00006B                     	ds	1
   835  00006C                     ___fldiv@aexp:
   836                           	opt callstack 0
   837  00006C                     sqrtf@__xc8_float_word:
   838                           	opt callstack 0
   839                           
   840                           ; 4 bytes @ 0xC
   841  00006C                     	ds	4
   842  000070                     sqrtf@q:
   843                           	opt callstack 0
   844                           
   845                           ; 4 bytes @ 0x10
   846  000070                     	ds	4
   847  000074                     sqrtf@t:
   848                           	opt callstack 0
   849                           
   850                           ; 4 bytes @ 0x14
   851  000074                     	ds	4
   852  000078                     sqrtf@z:
   853                           	opt callstack 0
   854                           
   855                           ; 4 bytes @ 0x18
   856  000078                     	ds	4
   857  00007C                     sqrtf@m:
   858                           	opt callstack 0
   859                           
   860                           ; 4 bytes @ 0x1C
   861  00007C                     	ds	4
   862  000080                     sqrtf@r:
   863                           	opt callstack 0
   864                           
   865                           ; 4 bytes @ 0x20
   866  000080                     	ds	4
   867  000084                     sqrtf@ix:
   868                           	opt callstack 0
   869                           
   870                           ; 4 bytes @ 0x24
   871  000084                     	ds	4
   872  000088                     ?_powf:
   873                           	opt callstack 0
   874  000088                     powf@x:
   875                           	opt callstack 0
   876                           
   877                           ; 4 bytes @ 0x28
   878  000088                     	ds	4
   879  00008C                     powf@y:
   880                           	opt callstack 0
   881                           
   882                           ; 4 bytes @ 0x2C
   883  00008C                     	ds	4
   884  000090                     ??_powf:
   885                           
   886                           ; 1 bytes @ 0x30
   887  000090                     	ds	9
   888  000099                     ?___fltol:
   889                           	opt callstack 0
   890  000099                     ___fltol@f1:
   891                           	opt callstack 0
   892                           
   893                           ; 4 bytes @ 0x39
   894  000099                     	ds	4
   895  00009D                     ??___fltol:
   896                           
   897                           ; 1 bytes @ 0x3D
   898  00009D                     	ds	4
   899  0000A1                     ___fltol@sign1:
   900                           	opt callstack 0
   901                           
   902                           ; 1 bytes @ 0x41
   903  0000A1                     	ds	1
   904  0000A2                     ___fltol@exp1:
   905                           	opt callstack 0
   906                           
   907                           ; 1 bytes @ 0x42
   908  0000A2                     	ds	1
   909  0000A3                     _preCalculate$1821:
   910                           	opt callstack 0
   911                           
   912                           ; 4 bytes @ 0x43
   913  0000A3                     	ds	4
   914  0000A7                     preCalculate@count:
   915                           	opt callstack 0
   916                           
   917                           ; 2 bytes @ 0x47
   918  0000A7                     	ds	2
   919  0000A9                     preCalculate@temp:
   920                           	opt callstack 0
   921                           
   922                           ; 2 bytes @ 0x49
   923  0000A9                     	ds	2
   924  0000AB                     preCalculate@count_scaled:
   925                           	opt callstack 0
   926                           
   927                           ; 2 bytes @ 0x4B
   928  0000AB                     	ds	2
   929  0000AD                     ??_main:
   930                           
   931                           ; 1 bytes @ 0x4D
   932  0000AD                     	ds	2
   933                           
   934                           	psect	cstackCOMRAM
   935  000001                     __pcstackCOMRAM:
   936                           	opt callstack 0
   937  000001                     ?_readButtonRA5:
   938                           	opt callstack 0
   939  000001                     ?_readButtonRB0:
   940                           	opt callstack 0
   941                           
   942                           ; 2 bytes @ 0x0
   943  000001                     	ds	2
   944  000003                     ??_handleButton:
   945  000003                     
   946                           ; 1 bytes @ 0x2
   947  000003                     	ds	2
   948  000005                     handleButton@checkRA5:
   949                           	opt callstack 0
   950                           
   951                           ; 2 bytes @ 0x4
   952  000005                     	ds	2
   953  000007                     handleButton@checkRB0:
   954                           	opt callstack 0
   955                           
   956                           ; 2 bytes @ 0x6
   957  000007                     	ds	2
   958  000009                     ?___awdiv:
   959                           	opt callstack 0
   960  000009                     ?___awmod:
   961                           	opt callstack 0
   962  000009                     ?___lwmod:
   963                           	opt callstack 0
   964  000009                     ?___fladd:
   965                           	opt callstack 0
   966  000009                     ?_fabsf:
   967                           	opt callstack 0
   968  000009                     ?_nanf:
   969                           	opt callstack 0
   970  000009                     ?___flneg:
   971                           	opt callstack 0
   972  000009                     ?___xxtofl:
   973                           	opt callstack 0
   974  000009                     SendByteBBSPI@output:
   975                           	opt callstack 0
   976  000009                     ___awdiv@dividend:
   977                           	opt callstack 0
   978  000009                     ___awmod@dividend:
   979                           	opt callstack 0
   980  000009                     ___lwmod@dividend:
   981                           	opt callstack 0
   982  000009                     nanf@s:
   983                           	opt callstack 0
   984  000009                     ___flneg@f1:
   985                           	opt callstack 0
   986  000009                     ___fladd@b:
   987                           	opt callstack 0
   988  000009                     ___xxtofl@val:
   989                           	opt callstack 0
   990  000009                     fabsf@x:
   991                           	opt callstack 0
   992                           
   993                           ; 4 bytes @ 0x8
   994  000009                     	ds	1
   995  00000A                     SendByteBBSPI@bitcount:
   996                           	opt callstack 0
   997                           
   998                           ; 1 bytes @ 0x9
   999  00000A                     	ds	1
  1000  00000B                     SendByteBBSPI@input:
  1001                           	opt callstack 0
  1002  00000B                     ___awdiv@divisor:
  1003                           	opt callstack 0
  1004  00000B                     ___awmod@divisor:
  1005                           	opt callstack 0
  1006  00000B                     ___lwmod@divisor:
  1007                           	opt callstack 0
  1008                           
  1009                           ; 2 bytes @ 0xA
  1010  00000B                     	ds	1
  1011  00000C                     Port_BBSPIInit@port_dir:
  1012                           	opt callstack 0
  1013  00000C                     WritePort_BBSPI@a:
  1014                           	opt callstack 0
  1015                           
  1016                           ; 1 bytes @ 0xB
  1017  00000C                     	ds	1
  1018  00000D                     ??___xxtofl:
  1019  00000D                     WritePort_BBSPI@port_add:
  1020                           	opt callstack 0
  1021  00000D                     ___awdiv@counter:
  1022                           	opt callstack 0
  1023  00000D                     ___awmod@counter:
  1024                           	opt callstack 0
  1025  00000D                     ___lwmod@counter:
  1026                           	opt callstack 0
  1027  00000D                     ___fladd@a:
  1028                           	opt callstack 0
  1029  00000D                     fabsf@u:
  1030                           	opt callstack 0
  1031  00000D                     nanf@u:
  1032                           	opt callstack 0
  1033                           
  1034                           ; 4 bytes @ 0xC
  1035  00000D                     	ds	1
  1036  00000E                     LCDPutChar@ch:
  1037                           	opt callstack 0
  1038  00000E                     LCDPutInst@ch:
  1039                           	opt callstack 0
  1040  00000E                     ___awdiv@sign:
  1041                           	opt callstack 0
  1042  00000E                     ___awmod@sign:
  1043                           	opt callstack 0
  1044                           
  1045                           ; 1 bytes @ 0xD
  1046  00000E                     	ds	1
  1047  00000F                     ??_LCDInit:
  1048  00000F                     LCDMoveCursor@pos:
  1049                           	opt callstack 0
  1050  00000F                     LCDPutStr@ptr:
  1051                           	opt callstack 0
  1052  00000F                     ___awdiv@quotient:
  1053                           	opt callstack 0
  1054                           
  1055                           ; 2 bytes @ 0xE
  1056  00000F                     	ds	1
  1057  000010                     LCDMoveCursor@line:
  1058                           	opt callstack 0
  1059                           
  1060                           ; 1 bytes @ 0xF
  1061  000010                     	ds	1
  1062  000011                     ??___fladd:
  1063  000011                     ___xxtofl@sign:
  1064                           	opt callstack 0
  1065  000011                     _LCDMoveCursor$673:
  1066                           	opt callstack 0
  1067                           
  1068                           ; 2 bytes @ 0x10
  1069  000011                     	ds	1
  1070  000012                     ___xxtofl@exp:
  1071                           	opt callstack 0
  1072                           
  1073                           ; 1 bytes @ 0x11
  1074  000012                     	ds	1
  1075  000013                     LCDMoveCursor@position:
  1076                           	opt callstack 0
  1077  000013                     ___xxtofl@arg:
  1078                           	opt callstack 0
  1079                           
  1080                           ; 4 bytes @ 0x12
  1081  000013                     	ds	1
  1082  000014                     ??_state_stop_watch:
  1083  000014                     LCDPrint@pos:
  1084                           	opt callstack 0
  1085  000014                     _state_clock$757:
  1086                           	opt callstack 0
  1087                           
  1088                           ; 2 bytes @ 0x13
  1089  000014                     	ds	1
  1090  000015                     ___fladd@signs:
  1091                           	opt callstack 0
  1092  000015                     LCDPrint@ptr:
  1093                           	opt callstack 0
  1094                           
  1095                           ; 2 bytes @ 0x14
  1096  000015                     	ds	1
  1097  000016                     ___fladd@aexp:
  1098                           	opt callstack 0
  1099  000016                     _state_stop_watch$800:
  1100                           	opt callstack 0
  1101                           
  1102                           ; 2 bytes @ 0x15
  1103  000016                     	ds	1
  1104  000017                     LCDPrint@line:
  1105                           	opt callstack 0
  1106  000017                     ___fladd@bexp:
  1107                           	opt callstack 0
  1108                           
  1109                           ; 1 bytes @ 0x16
  1110  000017                     	ds	1
  1111  000018                     ??_disp_Clock_Hide:
  1112  000018                     ___fladd@grs:
  1113                           	opt callstack 0
  1114                           
  1115                           ; 1 bytes @ 0x17
  1116  000018                     	ds	1
  1117  000019                     ?___flmul:
  1118                           	opt callstack 0
  1119  000019                     ___flmul@b:
  1120                           	opt callstack 0
  1121                           
  1122                           ; 4 bytes @ 0x18
  1123  000019                     	ds	1
  1124  00001A                     disp_Clock_Hide@state:
  1125                           	opt callstack 0
  1126                           
  1127                           ; 1 bytes @ 0x19
  1128  00001A                     	ds	1
  1129  00001B                     _state_set_hour$1025:
  1130                           	opt callstack 0
  1131  00001B                     _state_set_minute$1029:
  1132                           	opt callstack 0
  1133  00001B                     _state_set_second$1032:
  1134                           	opt callstack 0
  1135                           
  1136                           ; 2 bytes @ 0x1A
  1137  00001B                     	ds	2
  1138  00001D                     ___flmul@a:
  1139                           	opt callstack 0
  1140                           
  1141                           ; 4 bytes @ 0x1C
  1142  00001D                     	ds	4
  1143  000021                     ??___flmul:
  1144                           
  1145                           ; 1 bytes @ 0x20
  1146  000021                     	ds	4
  1147  000025                     ___flmul@sign:
  1148                           	opt callstack 0
  1149                           
  1150                           ; 1 bytes @ 0x24
  1151  000025                     	ds	1
  1152  000026                     ___flmul@grs:
  1153                           	opt callstack 0
  1154                           
  1155                           ; 4 bytes @ 0x25
  1156  000026                     	ds	4
  1157  00002A                     ___flmul@aexp:
  1158                           	opt callstack 0
  1159                           
  1160                           ; 1 bytes @ 0x29
  1161  00002A                     	ds	1
  1162  00002B                     ___flmul@bexp:
  1163                           	opt callstack 0
  1164                           
  1165                           ; 1 bytes @ 0x2A
  1166  00002B                     	ds	1
  1167  00002C                     ___flmul@prod:
  1168                           	opt callstack 0
  1169                           
  1170                           ; 4 bytes @ 0x2B
  1171  00002C                     	ds	4
  1172  000030                     ___flmul@temp:
  1173                           	opt callstack 0
  1174                           
  1175                           ; 2 bytes @ 0x2F
  1176  000030                     	ds	2
  1177  000032                     ?___flsub:
  1178                           	opt callstack 0
  1179  000032                     ?_scalbnf:
  1180                           	opt callstack 0
  1181  000032                     ___flsub@b:
  1182                           	opt callstack 0
  1183  000032                     scalbnf@x:
  1184                           	opt callstack 0
  1185                           
  1186                           ; 4 bytes @ 0x31
  1187  000032                     	ds	4
  1188  000036                     scalbnf@n:
  1189                           	opt callstack 0
  1190  000036                     ___flsub@a:
  1191                           	opt callstack 0
  1192                           
  1193                           ; 4 bytes @ 0x35
  1194  000036                     	ds	2
  1195  000038                     ??_scalbnf:
  1196                           
  1197                           ; 1 bytes @ 0x37
  1198  000038                     	ds	2
  1199  00003A                     ?___fldiv:
  1200                           	opt callstack 0
  1201  00003A                     ___flge@ff1:
  1202                           	opt callstack 0
  1203  00003A                     ___fldiv@b:
  1204                           	opt callstack 0
  1205                           
  1206                           ; 4 bytes @ 0x39
  1207  00003A                     	ds	2
  1208  00003C                     scalbnf@u:
  1209                           	opt callstack 0
  1210                           
  1211                           ; 4 bytes @ 0x3B
  1212  00003C                     	ds	2
  1213  00003E                     ___flge@ff2:
  1214                           	opt callstack 0
  1215  00003E                     ___fldiv@a:
  1216                           	opt callstack 0
  1217                           
  1218                           ; 4 bytes @ 0x3D
  1219  00003E                     	ds	2
  1220  000040                     scalbnf@y:
  1221                           	opt callstack 0
  1222                           
  1223                           ; 4 bytes @ 0x3F
  1224  000040                     	ds	2
  1225  000042                     ??___fldiv:
  1226  000042                     ??___flge:
  1227                           
  1228                           ; 1 bytes @ 0x41
  1229  000042                     	ds	4
  1230  000046                     ?_sqrtf:
  1231                           	opt callstack 0
  1232  000046                     sqrtf@x:
  1233                           	opt callstack 0
  1234                           
  1235                           ; 4 bytes @ 0x45
  1236  000046                     	ds	4
  1237  00004A                     ??_sqrtf:
  1238                           
  1239                           ; 1 bytes @ 0x49
  1240  00004A                     	ds	5
  1241  00004F                     
  1242                           ; 1 bytes @ 0x4E
  1243 ;;
  1244 ;;Main: autosize = 0, tempsize = 2, incstack = 0, save=0
  1245 ;;
  1246 ;; *************** function _main *****************
  1247 ;; Defined at:
  1248 ;;		line 9 in file "main.c"
  1249 ;; Parameters:    Size  Location     Type
  1250 ;;		None
  1251 ;; Auto vars:     Size  Location     Type
  1252 ;;		None
  1253 ;; Return value:  Size  Location     Type
  1254 ;;                  1    wreg      void 
  1255 ;; Registers used:
  1256 ;;		wreg, status,2, status,0, tblptrl, tblptrh, tblptru, prodl, prodh, cstack
  1257 ;; Tracked objects:
  1258 ;;		On entry : 0/0
  1259 ;;		On exit  : 0/0
  1260 ;;		Unchanged: 0/0
  1261 ;; Data sizes:     COMRAM   BANK0   BANK1   BANK2   BANK3   BANK4   BANK5   BANK6   BANK7   BANK8   BANK9  BANK10  BANK1
      +1  BANK12  BANK13  BANK14  BANK15
  1262 ;;      Params:         0       0       0       0       0       0       0       0       0       0       0       0       
      +0       0       0       0       0
  1263 ;;      Locals:         0       0       0       0       0       0       0       0       0       0       0       0       
      +0       0       0       0       0
  1264 ;;      Temps:          0       2       0       0       0       0       0       0       0       0       0       0       
      +0       0       0       0       0
  1265 ;;      Totals:         0       2       0       0       0       0       0       0       0       0       0       0       
      +0       0       0       0       0
  1266 ;;Total ram usage:        2 bytes
  1267 ;; Hardware stack levels required when called:   10
  1268 ;; This function calls:
  1269 ;;		_SYSTEM_Initialize
  1270 ;;		___lwmod
  1271 ;;		_state_clock
  1272 ;;		_state_set_hour
  1273 ;;		_state_set_minute
  1274 ;;		_state_set_second
  1275 ;;		_state_stop_watch
  1276 ;; This function is called by:
  1277 ;;		Startup code after reset
  1278 ;; This function uses a non-reentrant model
  1279 ;;
  1280                           
  1281                           	psect	text0
  1282  005BAE                     __ptext0:
  1283                           	opt callstack 0
  1284  005BAE                     _main:
  1285                           	opt callstack 21
  1286  005BAE                     
  1287                           ;main.c: 10:     SYSTEM_Initialize();
  1288  005BAE  EC8B  F032         	call	_SYSTEM_Initialize	;wreg free
  1289  005BB2                     l6459:
  1290                           
  1291                           ;main.c: 12:         LATD = ledValue;
  1292  005BB2  C055  FF8C         	movff	_ledValue,3980	;volatile
  1293  005BB6                     
  1294                           ;main.c: 13:         if(buttonRA5) {
  1295  005BB6  0100               	movlb	0	; () banked
  1296  005BB8  51CE               	movf	_buttonRA5& (0+255),w,b
  1297  005BBA  B4D8               	btfsc	status,2,c
  1298  005BBC  EFE2  F02D         	goto	u6171
  1299  005BC0  EFE4  F02D         	goto	u6170
  1300  005BC4                     u6171:
  1301  005BC4  EF0D  F02E         	goto	l6483
  1302  005BC8                     u6170:
  1303  005BC8                     
  1304                           ; BSR set to: 0
  1305                           ;main.c: 14:             buttonRA5 = 0;
  1306  005BC8  0E00               	movlw	0
  1307  005BCA  6FCE               	movwf	_buttonRA5& (0+255),b
  1308  005BCC                     
  1309                           ; BSR set to: 0
  1310                           ;main.c: 15:             state = (state + 1) % 5;
  1311  005BCC  0E01               	movlw	1
  1312  005BCE  2456               	addwf	_state^0,w,c	;volatile
  1313  005BD0  6E09               	movwf	___lwmod@dividend^0,c
  1314  005BD2  6A0A               	clrf	(___lwmod@dividend+1)^0,c
  1315  005BD4  0E00               	movlw	0
  1316  005BD6  220A               	addwfc	(___lwmod@dividend+1)^0,f,c
  1317  005BD8  0E00               	movlw	0
  1318  005BDA  6E0C               	movwf	(___lwmod@divisor+1)^0,c
  1319  005BDC  0E05               	movlw	5
  1320  005BDE  6E0B               	movwf	___lwmod@divisor^0,c
  1321  005BE0  ECF8  F02F         	call	___lwmod	;wreg free
  1322  005BE4  5009               	movf	?___lwmod^0,w,c
  1323  005BE6  6E56               	movwf	_state^0,c	;volatile
  1324  005BE8                     
  1325                           ;main.c: 16:             changed_state_flag = 1;
  1326  005BE8  0E01               	movlw	1
  1327  005BEA  0100               	movlb	0	; () banked
  1328  005BEC  6FD5               	movwf	_changed_state_flag& (0+255),b
  1329  005BEE  EF0D  F02E         	goto	l6483
  1330  005BF2                     l6469:
  1331                           
  1332                           ; BSR set to: 0
  1333  005BF2  ECBE  F02F         	call	_state_clock	;wreg free
  1334                           
  1335                           ;main.c: 20:                 break;
  1336  005BF6  EFD9  F02D         	goto	l6459
  1337  005BFA                     l6471:
  1338                           
  1339                           ; BSR set to: 0
  1340  005BFA  EC7B  F02D         	call	_state_set_hour	;wreg free
  1341                           
  1342                           ;main.c: 22:                 break;
  1343  005BFE  EFD9  F02D         	goto	l6459
  1344  005C02                     l6473:
  1345                           
  1346                           ; BSR set to: 0
  1347  005C02  EC1F  F02D         	call	_state_set_minute	;wreg free
  1348                           
  1349                           ;main.c: 24:                 break;
  1350  005C06  EFD9  F02D         	goto	l6459
  1351  005C0A                     l6475:
  1352                           
  1353                           ; BSR set to: 0
  1354  005C0A  EC88  F02E         	call	_state_set_second	;wreg free
  1355                           
  1356                           ;main.c: 26:                 break;
  1357  005C0E  EFD9  F02D         	goto	l6459
  1358  005C12                     l6477:
  1359                           
  1360                           ; BSR set to: 0
  1361  005C12  EC60  F029         	call	_state_stop_watch	;wreg free
  1362                           
  1363                           ;main.c: 28:                 break;
  1364  005C16  EFD9  F02D         	goto	l6459
  1365  005C1A                     l6483:
  1366                           
  1367                           ; BSR set to: 0
  1368  005C1A  5056               	movf	_state^0,w,c	;volatile
  1369  005C1C  6FAD               	movwf	??_main& (0+255),b
  1370  005C1E  6BAE               	clrf	(??_main+1)& (0+255),b
  1371                           
  1372                           ; Switch on 2 bytes has been partitioned into a top level switch of size 1, and 1 sub-sw
      +                          itches
  1373                           ; Switch size 1, requested type "simple"
  1374                           ; Number of cases is 1, Range of values is 0 to 0
  1375                           ; switch strategies available:
  1376                           ; Name         Instructions Cycles
  1377                           ; simple_byte            4     3 (average)
  1378                           ;	Chosen strategy is simple_byte
  1379  005C20  51AE               	movf	(??_main+1)& (0+255),w,b
  1380  005C22  0A00               	xorlw	0	; case 0
  1381  005C24  B4D8               	btfsc	status,2,c
  1382  005C26  EF17  F02E         	goto	l6589
  1383  005C2A  EFF9  F02D         	goto	l6469
  1384  005C2E                     l6589:
  1385                           
  1386                           ; BSR set to: 0
  1387                           ; Switch size 1, requested type "simple"
  1388                           ; Number of cases is 5, Range of values is 0 to 4
  1389                           ; switch strategies available:
  1390                           ; Name         Instructions Cycles
  1391                           ; simple_byte           16     9 (average)
  1392                           ;	Chosen strategy is simple_byte
  1393  005C2E  51AD               	movf	??_main& (0+255),w,b
  1394  005C30  0A00               	xorlw	0	; case 0
  1395  005C32  B4D8               	btfsc	status,2,c
  1396  005C34  EFF9  F02D         	goto	l6469
  1397  005C38  0A01               	xorlw	1	; case 1
  1398  005C3A  B4D8               	btfsc	status,2,c
  1399  005C3C  EFFD  F02D         	goto	l6471
  1400  005C40  0A03               	xorlw	3	; case 2
  1401  005C42  B4D8               	btfsc	status,2,c
  1402  005C44  EF01  F02E         	goto	l6473
  1403  005C48  0A01               	xorlw	1	; case 3
  1404  005C4A  B4D8               	btfsc	status,2,c
  1405  005C4C  EF05  F02E         	goto	l6475
  1406  005C50  0A07               	xorlw	7	; case 4
  1407  005C52  B4D8               	btfsc	status,2,c
  1408  005C54  EF09  F02E         	goto	l6477
  1409  005C58  EFF9  F02D         	goto	l6469
  1410  005C5C  EF07  F000         	goto	start
  1411  005C60                     __end_of_main:
  1412                           	opt callstack 0
  1413                           
  1414 ;; *************** function _state_stop_watch *****************
  1415 ;; Defined at:
  1416 ;;		line 55 in file "State_Stop_Watch.c"
  1417 ;; Parameters:    Size  Location     Type
  1418 ;;		None
  1419 ;; Auto vars:     Size  Location     Type
  1420 ;;		None
  1421 ;; Return value:  Size  Location     Type
  1422 ;;                  1    wreg      void 
  1423 ;; Registers used:
  1424 ;;		wreg, status,2, status,0, tblptrl, tblptrh, tblptru, cstack
  1425 ;; Tracked objects:
  1426 ;;		On entry : 0/0
  1427 ;;		On exit  : 0/0
  1428 ;;		Unchanged: 0/0
  1429 ;; Data sizes:     COMRAM   BANK0   BANK1   BANK2   BANK3   BANK4   BANK5   BANK6   BANK7   BANK8   BANK9  BANK10  BANK1
      +1  BANK12  BANK13  BANK14  BANK15
  1430 ;;      Params:         0       0       0       0       0       0       0       0       0       0       0       0       
      +0       0       0       0       0
  1431 ;;      Locals:         2       0       0       0       0       0       0       0       0       0       0       0       
      +0       0       0       0       0
  1432 ;;      Temps:          2       0       0       0       0       0       0       0       0       0       0       0       
      +0       0       0       0       0
  1433 ;;      Totals:         4       0       0       0       0       0       0       0       0       0       0       0       
      +0       0       0       0       0
  1434 ;;Total ram usage:        4 bytes
  1435 ;; Hardware stack levels used:    1
  1436 ;; Hardware stack levels required when called:    8
  1437 ;; This function calls:
  1438 ;;		_LCDPutInst
  1439 ;;		_LCDPutStr
  1440 ;;		_disp_Changed_SW
  1441 ;;		_disp_Clock_SW
  1442 ;;		_handle_Time
  1443 ;;		_handle_Time_SW
  1444 ;; This function is called by:
  1445 ;;		_main
  1446 ;; This function uses a non-reentrant model
  1447 ;;
  1448                           
  1449                           	psect	text1
  1450  0052C0                     __ptext1:
  1451                           	opt callstack 0
  1452  0052C0                     _state_stop_watch:
  1453                           	opt callstack 22
  1454  0052C0                     
  1455                           ;State_Stop_Watch.c: 56:     if(changed_state_flag) {
  1456  0052C0  0100               	movlb	0	; () banked
  1457  0052C2  51D5               	movf	_changed_state_flag& (0+255),w,b
  1458  0052C4  B4D8               	btfsc	status,2,c
  1459  0052C6  EF67  F029         	goto	u5011
  1460  0052CA  EF69  F029         	goto	u5010
  1461  0052CE                     u5011:
  1462  0052CE  EF7C  F029         	goto	l571
  1463  0052D2                     u5010:
  1464  0052D2                     
  1465                           ; BSR set to: 0
  1466                           ;State_Stop_Watch.c: 57:         changed_state_flag = 0;
  1467  0052D2  0E00               	movlw	0
  1468  0052D4  6FD5               	movwf	_changed_state_flag& (0+255),b
  1469  0052D6                     
  1470                           ; BSR set to: 0
  1471                           ;State_Stop_Watch.c: 58:         LCDPutInst(0x80);
  1472  0052D6  0E80               	movlw	128
  1473  0052D8  EC53  F031         	call	_LCDPutInst
  1474  0052DC                     
  1475                           ;State_Stop_Watch.c: 59:         LCDPutStr("Stop W    RA5=->");
  1476  0052DC  0EB0               	movlw	low STR_6
  1477  0052DE  6E0F               	movwf	LCDPutStr@ptr^0,c
  1478  0052E0  0E10               	movlw	high STR_6
  1479  0052E2  6E10               	movwf	(LCDPutStr@ptr+1)^0,c
  1480  0052E4  ECDC  F031         	call	_LCDPutStr	;wreg free
  1481  0052E8                     
  1482                           ;State_Stop_Watch.c: 60:         disp_Clock_SW();
  1483  0052E8  EC30  F02E         	call	_disp_Clock_SW	;wreg free
  1484  0052EC                     
  1485                           ;State_Stop_Watch.c: 61:         LCDPutStr("        ");
  1486  0052EC  0ED2               	movlw	low STR_7
  1487  0052EE  6E0F               	movwf	LCDPutStr@ptr^0,c
  1488  0052F0  0E10               	movlw	high STR_7
  1489  0052F2  6E10               	movwf	(LCDPutStr@ptr+1)^0,c
  1490  0052F4  ECDC  F031         	call	_LCDPutStr	;wreg free
  1491  0052F8                     l571:
  1492                           
  1493                           ;State_Stop_Watch.c: 63:     if(buttonRA5) {
  1494  0052F8  0100               	movlb	0	; () banked
  1495  0052FA  51CE               	movf	_buttonRA5& (0+255),w,b
  1496  0052FC  B4D8               	btfsc	status,2,c
  1497  0052FE  EF83  F029         	goto	u5021
  1498  005302  EF85  F029         	goto	u5020
  1499  005306                     u5021:
  1500  005306  EF91  F029         	goto	l5503
  1501  00530A                     u5020:
  1502  00530A                     
  1503                           ; BSR set to: 0
  1504                           ;State_Stop_Watch.c: 64:         state = STATE_CLOCK;
  1505  00530A  0E00               	movlw	0
  1506  00530C  6E56               	movwf	_state^0,c	;volatile
  1507                           
  1508                           ;State_Stop_Watch.c: 65:         buttonRA5 = 0;
  1509  00530E  0E00               	movlw	0
  1510  005310  6FCE               	movwf	_buttonRA5& (0+255),b
  1511                           
  1512                           ;State_Stop_Watch.c: 66:         state_sw = 0;
  1513  005312  0E00               	movlw	0
  1514  005314  6FC6               	movwf	_state_sw& (0+255),b
  1515                           
  1516                           ;State_Stop_Watch.c: 67:         min_sw = 0;
  1517  005316  0E00               	movlw	0
  1518  005318  6E51               	movwf	_min_sw^0,c	;volatile
  1519                           
  1520                           ;State_Stop_Watch.c: 68:         sec_sw = 0;
  1521  00531A  0E00               	movlw	0
  1522  00531C  6E50               	movwf	_sec_sw^0,c	;volatile
  1523                           
  1524                           ;State_Stop_Watch.c: 69:         ms_sw = 0;
  1525  00531E  0E00               	movlw	0
  1526  005320  6E4F               	movwf	_ms_sw^0,c	;volatile
  1527  005322                     l5503:
  1528                           
  1529                           ; BSR set to: 0
  1530                           ;State_Stop_Watch.c: 71:     if(second_flag == 1) {
  1531  005322  05CC               	decf	_second_flag& (0+255),w,b
  1532  005324  A4D8               	btfss	status,2,c
  1533  005326  EF97  F029         	goto	u5031
  1534  00532A  EF99  F029         	goto	u5030
  1535  00532E                     u5031:
  1536  00532E  EFDE  F029         	goto	l5537
  1537  005332                     u5030:
  1538  005332                     
  1539                           ; BSR set to: 0
  1540                           ;State_Stop_Watch.c: 72:         second_flag = 0;
  1541  005332  0E00               	movlw	0
  1542  005334  6FCC               	movwf	_second_flag& (0+255),b
  1543  005336                     
  1544                           ; BSR set to: 0
  1545                           ;State_Stop_Watch.c: 73:         sec++;
  1546  005336  2A52               	incf	_sec^0,f,c	;volatile
  1547  005338                     
  1548                           ; BSR set to: 0
  1549                           ;State_Stop_Watch.c: 74:         handle_Time();
  1550  005338  EC05  F031         	call	_handle_Time	;wreg free
  1551  00533C                     
  1552                           ;State_Stop_Watch.c: 75:         ledValue = (ledValue == 0) ? 255 : 0;
  1553  00533C  5055               	movf	_ledValue^0,w,c
  1554  00533E  B4D8               	btfsc	status,2,c
  1555  005340  EFA4  F029         	goto	u5041
  1556  005344  EFA6  F029         	goto	u5040
  1557  005348                     u5041:
  1558  005348  EFAC  F029         	goto	l5515
  1559  00534C                     u5040:
  1560  00534C  0E00               	movlw	0
  1561  00534E  6E17               	movwf	(_state_stop_watch$800+1)^0,c
  1562  005350  0E00               	movlw	0
  1563  005352  6E16               	movwf	_state_stop_watch$800^0,c
  1564  005354  EFAF  F029         	goto	l5517
  1565  005358                     l5515:
  1566  005358  0E00               	movlw	0
  1567  00535A  6E17               	movwf	(_state_stop_watch$800+1)^0,c
  1568  00535C  6816               	setf	_state_stop_watch$800^0,c
  1569  00535E                     l5517:
  1570  00535E  C016  F055         	movff	_state_stop_watch$800,_ledValue
  1571  005362  EFDE  F029         	goto	l5537
  1572  005366                     l5519:
  1573                           
  1574                           ; BSR set to: 0
  1575                           ;State_Stop_Watch.c: 79:             if(buttonRB0) {
  1576  005366  51CD               	movf	_buttonRB0& (0+255),w,b
  1577  005368  B4D8               	btfsc	status,2,c
  1578  00536A  EFB9  F029         	goto	u5051
  1579  00536E  EFBB  F029         	goto	u5050
  1580  005372                     u5051:
  1581  005372  EFF4  F029         	goto	l585
  1582  005376                     u5050:
  1583  005376                     
  1584                           ; BSR set to: 0
  1585                           ;State_Stop_Watch.c: 80:                 buttonRB0 = 0;
  1586  005376  0E00               	movlw	0
  1587  005378  6FCD               	movwf	_buttonRB0& (0+255),b
  1588                           
  1589                           ;State_Stop_Watch.c: 81:                 state_sw = 1;
  1590  00537A  0E01               	movlw	1
  1591  00537C  6FC6               	movwf	_state_sw& (0+255),b
  1592  00537E  EFF4  F029         	goto	l585
  1593  005382                     l5523:
  1594                           
  1595                           ; BSR set to: 0
  1596                           ;State_Stop_Watch.c: 85:             if(buttonRB0) {
  1597  005382  51CD               	movf	_buttonRB0& (0+255),w,b
  1598  005384  B4D8               	btfsc	status,2,c
  1599  005386  EFC7  F029         	goto	u5061
  1600  00538A  EFC9  F029         	goto	u5060
  1601  00538E                     u5061:
  1602  00538E  EFCD  F029         	goto	l583
  1603  005392                     u5060:
  1604  005392                     
  1605                           ; BSR set to: 0
  1606                           ;State_Stop_Watch.c: 86:                 buttonRB0 = 0;
  1607  005392  0E00               	movlw	0
  1608  005394  6FCD               	movwf	_buttonRB0& (0+255),b
  1609                           
  1610                           ;State_Stop_Watch.c: 87:                 state_sw = 0;
  1611  005396  0E00               	movlw	0
  1612  005398  6FC6               	movwf	_state_sw& (0+255),b
  1613  00539A                     l583:
  1614                           
  1615                           ; BSR set to: 0
  1616                           ;State_Stop_Watch.c: 89:             if(ms_flag) {
  1617  00539A  51CA               	movf	_ms_flag& (0+255),w,b
  1618  00539C  B4D8               	btfsc	status,2,c
  1619  00539E  EFD3  F029         	goto	u5071
  1620  0053A2  EFD5  F029         	goto	u5070
  1621  0053A6                     u5071:
  1622  0053A6  EFF4  F029         	goto	l585
  1623  0053AA                     u5070:
  1624  0053AA                     
  1625                           ; BSR set to: 0
  1626                           ;State_Stop_Watch.c: 90:                 ms_flag = 0;
  1627  0053AA  0E00               	movlw	0
  1628  0053AC  6FCA               	movwf	_ms_flag& (0+255),b
  1629  0053AE                     
  1630                           ; BSR set to: 0
  1631                           ;State_Stop_Watch.c: 91:                 ms_sw++;
  1632  0053AE  2A4F               	incf	_ms_sw^0,f,c	;volatile
  1633  0053B0                     
  1634                           ; BSR set to: 0
  1635                           ;State_Stop_Watch.c: 92:                 handle_Time_SW();
  1636  0053B0  ECDD  F030         	call	_handle_Time_SW	;wreg free
  1637  0053B4                     
  1638                           ;State_Stop_Watch.c: 93:                 disp_Changed_SW();
  1639  0053B4  ECFB  F02A         	call	_disp_Changed_SW	;wreg free
  1640  0053B8  EFF4  F029         	goto	l585
  1641  0053BC                     l5537:
  1642  0053BC  0100               	movlb	0	; () banked
  1643  0053BE  51C6               	movf	_state_sw& (0+255),w,b
  1644  0053C0  6E14               	movwf	??_state_stop_watch^0,c
  1645  0053C2  6A15               	clrf	(??_state_stop_watch+1)^0,c
  1646                           
  1647                           ; Switch on 2 bytes has been partitioned into a top level switch of size 1, and 1 sub-sw
      +                          itches
  1648                           ; Switch size 1, requested type "simple"
  1649                           ; Number of cases is 1, Range of values is 0 to 0
  1650                           ; switch strategies available:
  1651                           ; Name         Instructions Cycles
  1652                           ; simple_byte            4     3 (average)
  1653                           ;	Chosen strategy is simple_byte
  1654  0053C4  5015               	movf	(??_state_stop_watch+1)^0,w,c
  1655  0053C6  0A00               	xorlw	0	; case 0
  1656  0053C8  B4D8               	btfsc	status,2,c
  1657  0053CA  EFE9  F029         	goto	l6591
  1658  0053CE  EFF4  F029         	goto	l585
  1659  0053D2                     l6591:
  1660                           
  1661                           ; BSR set to: 0
  1662                           ; Switch size 1, requested type "simple"
  1663                           ; Number of cases is 2, Range of values is 0 to 1
  1664                           ; switch strategies available:
  1665                           ; Name         Instructions Cycles
  1666                           ; simple_byte            7     4 (average)
  1667                           ;	Chosen strategy is simple_byte
  1668  0053D2  5014               	movf	??_state_stop_watch^0,w,c
  1669  0053D4  0A00               	xorlw	0	; case 0
  1670  0053D6  B4D8               	btfsc	status,2,c
  1671  0053D8  EFB3  F029         	goto	l5519
  1672  0053DC  0A01               	xorlw	1	; case 1
  1673  0053DE  B4D8               	btfsc	status,2,c
  1674  0053E0  EFC1  F029         	goto	l5523
  1675  0053E4  EFF4  F029         	goto	l585
  1676  0053E8                     l585:
  1677  0053E8  0012               	return		;funcret
  1678  0053EA                     __end_of_state_stop_watch:
  1679                           	opt callstack 0
  1680                           
  1681 ;; *************** function _handle_Time_SW *****************
  1682 ;; Defined at:
  1683 ;;		line 25 in file "State_Stop_Watch.c"
  1684 ;; Parameters:    Size  Location     Type
  1685 ;;		None
  1686 ;; Auto vars:     Size  Location     Type
  1687 ;;		None
  1688 ;; Return value:  Size  Location     Type
  1689 ;;                  1    wreg      void 
  1690 ;; Registers used:
  1691 ;;		wreg, status,2, status,0
  1692 ;; Tracked objects:
  1693 ;;		On entry : 0/0
  1694 ;;		On exit  : 0/0
  1695 ;;		Unchanged: 0/0
  1696 ;; Data sizes:     COMRAM   BANK0   BANK1   BANK2   BANK3   BANK4   BANK5   BANK6   BANK7   BANK8   BANK9  BANK10  BANK1
      +1  BANK12  BANK13  BANK14  BANK15
  1697 ;;      Params:         0       0       0       0       0       0       0       0       0       0       0       0       
      +0       0       0       0       0
  1698 ;;      Locals:         0       0       0       0       0       0       0       0       0       0       0       0       
      +0       0       0       0       0
  1699 ;;      Temps:          0       0       0       0       0       0       0       0       0       0       0       0       
      +0       0       0       0       0
  1700 ;;      Totals:         0       0       0       0       0       0       0       0       0       0       0       0       
      +0       0       0       0       0
  1701 ;;Total ram usage:        0 bytes
  1702 ;; Hardware stack levels used:    1
  1703 ;; Hardware stack levels required when called:    3
  1704 ;; This function calls:
  1705 ;;		Nothing
  1706 ;; This function is called by:
  1707 ;;		_state_stop_watch
  1708 ;; This function uses a non-reentrant model
  1709 ;;
  1710                           
  1711                           	psect	text2
  1712  0061BA                     __ptext2:
  1713                           	opt callstack 0
  1714  0061BA                     _handle_Time_SW:
  1715                           	opt callstack 26
  1716  0061BA                     
  1717                           ;State_Stop_Watch.c: 26:     ms_sw_changed_flag = 1;
  1718  0061BA  0E01               	movlw	1
  1719  0061BC  0100               	movlb	0	; () banked
  1720  0061BE  6FC5               	movwf	_ms_sw_changed_flag& (0+255),b
  1721  0061C0                     
  1722                           ; BSR set to: 0
  1723                           ;State_Stop_Watch.c: 27:     if (ms_sw > 99) {
  1724  0061C0  0E63               	movlw	99
  1725  0061C2  644F               	cpfsgt	_ms_sw^0,c	;volatile
  1726  0061C4  EFE6  F030         	goto	u4761
  1727  0061C8  EFE8  F030         	goto	u4760
  1728  0061CC                     u4761:
  1729  0061CC  EFED  F030         	goto	l5269
  1730  0061D0                     u4760:
  1731  0061D0                     
  1732                           ; BSR set to: 0
  1733                           ;State_Stop_Watch.c: 28:         ms_sw = 0;
  1734  0061D0  0E00               	movlw	0
  1735  0061D2  6E4F               	movwf	_ms_sw^0,c	;volatile
  1736  0061D4                     
  1737                           ; BSR set to: 0
  1738                           ;State_Stop_Watch.c: 29:         sec_sw++;
  1739  0061D4  2A50               	incf	_sec_sw^0,f,c	;volatile
  1740  0061D6                     
  1741                           ; BSR set to: 0
  1742                           ;State_Stop_Watch.c: 30:         sec_sw_changed_flag = 1;
  1743  0061D6  0E01               	movlw	1
  1744  0061D8  6FC4               	movwf	_sec_sw_changed_flag& (0+255),b
  1745  0061DA                     l5269:
  1746                           
  1747                           ; BSR set to: 0
  1748                           ;State_Stop_Watch.c: 32:     if (sec_sw > 59) {
  1749  0061DA  0E3B               	movlw	59
  1750  0061DC  6450               	cpfsgt	_sec_sw^0,c	;volatile
  1751  0061DE  EFF3  F030         	goto	u4771
  1752  0061E2  EFF5  F030         	goto	u4770
  1753  0061E6                     u4771:
  1754  0061E6  EFFA  F030         	goto	l5277
  1755  0061EA                     u4770:
  1756  0061EA                     
  1757                           ; BSR set to: 0
  1758                           ;State_Stop_Watch.c: 33:         sec_sw = 0;
  1759  0061EA  0E00               	movlw	0
  1760  0061EC  6E50               	movwf	_sec_sw^0,c	;volatile
  1761  0061EE                     
  1762                           ; BSR set to: 0
  1763                           ;State_Stop_Watch.c: 34:         min_sw ++;
  1764  0061EE  2A51               	incf	_min_sw^0,f,c	;volatile
  1765  0061F0                     
  1766                           ; BSR set to: 0
  1767                           ;State_Stop_Watch.c: 35:         min_sw_changed_flag = 1;
  1768  0061F0  0E01               	movlw	1
  1769  0061F2  6FC3               	movwf	_min_sw_changed_flag& (0+255),b
  1770  0061F4                     l5277:
  1771                           
  1772                           ; BSR set to: 0
  1773                           ;State_Stop_Watch.c: 37:     if (min_sw > 59) {
  1774  0061F4  0E3B               	movlw	59
  1775  0061F6  6451               	cpfsgt	_min_sw^0,c	;volatile
  1776  0061F8  EF00  F031         	goto	u4781
  1777  0061FC  EF02  F031         	goto	u4780
  1778  006200                     u4781:
  1779  006200  EF04  F031         	goto	l565
  1780  006204                     u4780:
  1781  006204                     
  1782                           ; BSR set to: 0
  1783                           ;State_Stop_Watch.c: 38:         min_sw = 0;
  1784  006204  0E00               	movlw	0
  1785  006206  6E51               	movwf	_min_sw^0,c	;volatile
  1786  006208                     l565:
  1787                           
  1788                           ; BSR set to: 0
  1789  006208  0012               	return		;funcret
  1790  00620A                     __end_of_handle_Time_SW:
  1791                           	opt callstack 0
  1792                           
  1793 ;; *************** function _disp_Clock_SW *****************
  1794 ;; Defined at:
  1795 ;;		line 42 in file "State_Stop_Watch.c"
  1796 ;; Parameters:    Size  Location     Type
  1797 ;;		None
  1798 ;; Auto vars:     Size  Location     Type
  1799 ;;		None
  1800 ;; Return value:  Size  Location     Type
  1801 ;;                  1    wreg      void 
  1802 ;; Registers used:
  1803 ;;		wreg, status,2, status,0, cstack
  1804 ;; Tracked objects:
  1805 ;;		On entry : 0/0
  1806 ;;		On exit  : 0/0
  1807 ;;		Unchanged: 0/0
  1808 ;; Data sizes:     COMRAM   BANK0   BANK1   BANK2   BANK3   BANK4   BANK5   BANK6   BANK7   BANK8   BANK9  BANK10  BANK1
      +1  BANK12  BANK13  BANK14  BANK15
  1809 ;;      Params:         0       0       0       0       0       0       0       0       0       0       0       0       
      +0       0       0       0       0
  1810 ;;      Locals:         0       0       0       0       0       0       0       0       0       0       0       0       
      +0       0       0       0       0
  1811 ;;      Temps:          0       0       0       0       0       0       0       0       0       0       0       0       
      +0       0       0       0       0
  1812 ;;      Totals:         0       0       0       0       0       0       0       0       0       0       0       0       
      +0       0       0       0       0
  1813 ;;Total ram usage:        0 bytes
  1814 ;; Hardware stack levels used:    1
  1815 ;; Hardware stack levels required when called:    6
  1816 ;; This function calls:
  1817 ;;		_LCDPutChar
  1818 ;;		_LCDPutInst
  1819 ;;		___awdiv
  1820 ;;		___awmod
  1821 ;; This function is called by:
  1822 ;;		_state_stop_watch
  1823 ;; This function uses a non-reentrant model
  1824 ;;
  1825                           
  1826                           	psect	text3
  1827  005C60                     __ptext3:
  1828                           	opt callstack 0
  1829  005C60                     _disp_Clock_SW:
  1830                           	opt callstack 23
  1831  005C60                     
  1832                           ;State_Stop_Watch.c: 44:     LCDPutInst(0xC0);
  1833  005C60  0EC0               	movlw	192
  1834  005C62  EC53  F031         	call	_LCDPutInst
  1835                           
  1836                           ;State_Stop_Watch.c: 45:     LCDPutChar(min_sw/10+'0');
  1837  005C66  C051  F009         	movff	_min_sw,___awdiv@dividend	;volatile
  1838  005C6A  6A0A               	clrf	(___awdiv@dividend+1)^0,c
  1839  005C6C  0E00               	movlw	0
  1840  005C6E  6E0C               	movwf	(___awdiv@divisor+1)^0,c
  1841  005C70  0E0A               	movlw	10
  1842  005C72  6E0B               	movwf	___awdiv@divisor^0,c
  1843  005C74  EC5F  F02C         	call	___awdiv	;wreg free
  1844  005C78  5009               	movf	?___awdiv^0,w,c
  1845  005C7A  0F30               	addlw	48
  1846  005C7C  EC2D  F031         	call	_LCDPutChar
  1847                           
  1848                           ;State_Stop_Watch.c: 46:     LCDPutChar(min_sw%10+'0');
  1849  005C80  C051  F009         	movff	_min_sw,___awmod@dividend	;volatile
  1850  005C84  6A0A               	clrf	(___awmod@dividend+1)^0,c
  1851  005C86  0E00               	movlw	0
  1852  005C88  6E0C               	movwf	(___awmod@divisor+1)^0,c
  1853  005C8A  0E0A               	movlw	10
  1854  005C8C  6E0B               	movwf	___awmod@divisor^0,c
  1855  005C8E  ECE0  F02E         	call	___awmod	;wreg free
  1856  005C92  5009               	movf	?___awmod^0,w,c
  1857  005C94  0F30               	addlw	48
  1858  005C96  EC2D  F031         	call	_LCDPutChar
  1859                           
  1860                           ;State_Stop_Watch.c: 47:     LCDPutChar(':');
  1861  005C9A  0E3A               	movlw	58
  1862  005C9C  EC2D  F031         	call	_LCDPutChar
  1863                           
  1864                           ;State_Stop_Watch.c: 48:     LCDPutChar(sec_sw/10+'0');
  1865  005CA0  C050  F009         	movff	_sec_sw,___awdiv@dividend	;volatile
  1866  005CA4  6A0A               	clrf	(___awdiv@dividend+1)^0,c
  1867  005CA6  0E00               	movlw	0
  1868  005CA8  6E0C               	movwf	(___awdiv@divisor+1)^0,c
  1869  005CAA  0E0A               	movlw	10
  1870  005CAC  6E0B               	movwf	___awdiv@divisor^0,c
  1871  005CAE  EC5F  F02C         	call	___awdiv	;wreg free
  1872  005CB2  5009               	movf	?___awdiv^0,w,c
  1873  005CB4  0F30               	addlw	48
  1874  005CB6  EC2D  F031         	call	_LCDPutChar
  1875                           
  1876                           ;State_Stop_Watch.c: 49:     LCDPutChar(sec_sw%10+'0');
  1877  005CBA  C050  F009         	movff	_sec_sw,___awmod@dividend	;volatile
  1878  005CBE  6A0A               	clrf	(___awmod@dividend+1)^0,c
  1879  005CC0  0E00               	movlw	0
  1880  005CC2  6E0C               	movwf	(___awmod@divisor+1)^0,c
  1881  005CC4  0E0A               	movlw	10
  1882  005CC6  6E0B               	movwf	___awmod@divisor^0,c
  1883  005CC8  ECE0  F02E         	call	___awmod	;wreg free
  1884  005CCC  5009               	movf	?___awmod^0,w,c
  1885  005CCE  0F30               	addlw	48
  1886  005CD0  EC2D  F031         	call	_LCDPutChar
  1887                           
  1888                           ;State_Stop_Watch.c: 50:     LCDPutChar(':');
  1889  005CD4  0E3A               	movlw	58
  1890  005CD6  EC2D  F031         	call	_LCDPutChar
  1891                           
  1892                           ;State_Stop_Watch.c: 51:     LCDPutChar(ms_sw/10+'0');
  1893  005CDA  C04F  F009         	movff	_ms_sw,___awdiv@dividend	;volatile
  1894  005CDE  6A0A               	clrf	(___awdiv@dividend+1)^0,c
  1895  005CE0  0E00               	movlw	0
  1896  005CE2  6E0C               	movwf	(___awdiv@divisor+1)^0,c
  1897  005CE4  0E0A               	movlw	10
  1898  005CE6  6E0B               	movwf	___awdiv@divisor^0,c
  1899  005CE8  EC5F  F02C         	call	___awdiv	;wreg free
  1900  005CEC  5009               	movf	?___awdiv^0,w,c
  1901  005CEE  0F30               	addlw	48
  1902  005CF0  EC2D  F031         	call	_LCDPutChar
  1903                           
  1904                           ;State_Stop_Watch.c: 52:     LCDPutChar(ms_sw%10+'0');
  1905  005CF4  C04F  F009         	movff	_ms_sw,___awmod@dividend	;volatile
  1906  005CF8  6A0A               	clrf	(___awmod@dividend+1)^0,c
  1907  005CFA  0E00               	movlw	0
  1908  005CFC  6E0C               	movwf	(___awmod@divisor+1)^0,c
  1909  005CFE  0E0A               	movlw	10
  1910  005D00  6E0B               	movwf	___awmod@divisor^0,c
  1911  005D02  ECE0  F02E         	call	___awmod	;wreg free
  1912  005D06  5009               	movf	?___awmod^0,w,c
  1913  005D08  0F30               	addlw	48
  1914  005D0A  EC2D  F031         	call	_LCDPutChar
  1915  005D0E  0012               	return		;funcret
  1916  005D10                     __end_of_disp_Clock_SW:
  1917                           	opt callstack 0
  1918                           
  1919 ;; *************** function _disp_Changed_SW *****************
  1920 ;; Defined at:
  1921 ;;		line 4 in file "State_Stop_Watch.c"
  1922 ;; Parameters:    Size  Location     Type
  1923 ;;		None
  1924 ;; Auto vars:     Size  Location     Type
  1925 ;;		None
  1926 ;; Return value:  Size  Location     Type
  1927 ;;                  1    wreg      void 
  1928 ;; Registers used:
  1929 ;;		wreg, status,2, status,0, cstack
  1930 ;; Tracked objects:
  1931 ;;		On entry : 0/0
  1932 ;;		On exit  : 0/0
  1933 ;;		Unchanged: 0/0
  1934 ;; Data sizes:     COMRAM   BANK0   BANK1   BANK2   BANK3   BANK4   BANK5   BANK6   BANK7   BANK8   BANK9  BANK10  BANK1
      +1  BANK12  BANK13  BANK14  BANK15
  1935 ;;      Params:         0       0       0       0       0       0       0       0       0       0       0       0       
      +0       0       0       0       0
  1936 ;;      Locals:         0       0       0       0       0       0       0       0       0       0       0       0       
      +0       0       0       0       0
  1937 ;;      Temps:          0       0       0       0       0       0       0       0       0       0       0       0       
      +0       0       0       0       0
  1938 ;;      Totals:         0       0       0       0       0       0       0       0       0       0       0       0       
      +0       0       0       0       0
  1939 ;;Total ram usage:        0 bytes
  1940 ;; Hardware stack levels used:    1
  1941 ;; Hardware stack levels required when called:    7
  1942 ;; This function calls:
  1943 ;;		_LCDMoveCursor
  1944 ;;		_LCDPutChar
  1945 ;;		___awdiv
  1946 ;;		___awmod
  1947 ;; This function is called by:
  1948 ;;		_state_stop_watch
  1949 ;; This function uses a non-reentrant model
  1950 ;;
  1951                           
  1952                           	psect	text4
  1953  0055F6                     __ptext4:
  1954                           	opt callstack 0
  1955  0055F6                     _disp_Changed_SW:
  1956                           	opt callstack 22
  1957  0055F6                     
  1958                           ;State_Stop_Watch.c: 5:     if(ms_sw_changed_flag) {
  1959  0055F6  0100               	movlb	0	; () banked
  1960  0055F8  51C5               	movf	_ms_sw_changed_flag& (0+255),w,b
  1961  0055FA  B4D8               	btfsc	status,2,c
  1962  0055FC  EF02  F02B         	goto	u4731
  1963  005600  EF04  F02B         	goto	u4730
  1964  005604                     u4731:
  1965  005604  EF25  F02B         	goto	l5239
  1966  005608                     u4730:
  1967  005608                     
  1968                           ; BSR set to: 0
  1969                           ;State_Stop_Watch.c: 6:         ms_sw_changed_flag = 0;
  1970  005608  0E00               	movlw	0
  1971  00560A  6FC5               	movwf	_ms_sw_changed_flag& (0+255),b
  1972  00560C                     
  1973                           ; BSR set to: 0
  1974                           ;State_Stop_Watch.c: 7:         LCDMoveCursor(1, 6);
  1975  00560C  0E06               	movlw	6
  1976  00560E  6E0F               	movwf	LCDMoveCursor@pos^0,c
  1977  005610  0E01               	movlw	1
  1978  005612  ECFB  F031         	call	_LCDMoveCursor
  1979  005616                     
  1980                           ;State_Stop_Watch.c: 8:         LCDPutChar(ms_sw/10+'0');
  1981  005616  C04F  F009         	movff	_ms_sw,___awdiv@dividend	;volatile
  1982  00561A  6A0A               	clrf	(___awdiv@dividend+1)^0,c
  1983  00561C  0E00               	movlw	0
  1984  00561E  6E0C               	movwf	(___awdiv@divisor+1)^0,c
  1985  005620  0E0A               	movlw	10
  1986  005622  6E0B               	movwf	___awdiv@divisor^0,c
  1987  005624  EC5F  F02C         	call	___awdiv	;wreg free
  1988  005628  5009               	movf	?___awdiv^0,w,c
  1989  00562A  0F30               	addlw	48
  1990  00562C  EC2D  F031         	call	_LCDPutChar
  1991  005630                     
  1992                           ;State_Stop_Watch.c: 9:         LCDPutChar(ms_sw%10+'0');
  1993  005630  C04F  F009         	movff	_ms_sw,___awmod@dividend	;volatile
  1994  005634  6A0A               	clrf	(___awmod@dividend+1)^0,c
  1995  005636  0E00               	movlw	0
  1996  005638  6E0C               	movwf	(___awmod@divisor+1)^0,c
  1997  00563A  0E0A               	movlw	10
  1998  00563C  6E0B               	movwf	___awmod@divisor^0,c
  1999  00563E  ECE0  F02E         	call	___awmod	;wreg free
  2000  005642  5009               	movf	?___awmod^0,w,c
  2001  005644  0F30               	addlw	48
  2002  005646  EC2D  F031         	call	_LCDPutChar
  2003  00564A                     l5239:
  2004                           
  2005                           ;State_Stop_Watch.c: 11:     if(sec_sw_changed_flag) {
  2006  00564A  0100               	movlb	0	; () banked
  2007  00564C  51C4               	movf	_sec_sw_changed_flag& (0+255),w,b
  2008  00564E  B4D8               	btfsc	status,2,c
  2009  005650  EF2C  F02B         	goto	u4741
  2010  005654  EF2E  F02B         	goto	u4740
  2011  005658                     u4741:
  2012  005658  EF4F  F02B         	goto	l5249
  2013  00565C                     u4740:
  2014  00565C                     
  2015                           ; BSR set to: 0
  2016                           ;State_Stop_Watch.c: 12:         sec_changed_flag = 0;
  2017  00565C  0E00               	movlw	0
  2018  00565E  6FC9               	movwf	_sec_changed_flag& (0+255),b
  2019  005660                     
  2020                           ; BSR set to: 0
  2021                           ;State_Stop_Watch.c: 13:         LCDMoveCursor(1, 3);
  2022  005660  0E03               	movlw	3
  2023  005662  6E0F               	movwf	LCDMoveCursor@pos^0,c
  2024  005664  0E01               	movlw	1
  2025  005666  ECFB  F031         	call	_LCDMoveCursor
  2026  00566A                     
  2027                           ;State_Stop_Watch.c: 14:         LCDPutChar(sec_sw/10+'0');
  2028  00566A  C050  F009         	movff	_sec_sw,___awdiv@dividend	;volatile
  2029  00566E  6A0A               	clrf	(___awdiv@dividend+1)^0,c
  2030  005670  0E00               	movlw	0
  2031  005672  6E0C               	movwf	(___awdiv@divisor+1)^0,c
  2032  005674  0E0A               	movlw	10
  2033  005676  6E0B               	movwf	___awdiv@divisor^0,c
  2034  005678  EC5F  F02C         	call	___awdiv	;wreg free
  2035  00567C  5009               	movf	?___awdiv^0,w,c
  2036  00567E  0F30               	addlw	48
  2037  005680  EC2D  F031         	call	_LCDPutChar
  2038  005684                     
  2039                           ;State_Stop_Watch.c: 15:         LCDPutChar(sec_sw%10+'0');
  2040  005684  C050  F009         	movff	_sec_sw,___awmod@dividend	;volatile
  2041  005688  6A0A               	clrf	(___awmod@dividend+1)^0,c
  2042  00568A  0E00               	movlw	0
  2043  00568C  6E0C               	movwf	(___awmod@divisor+1)^0,c
  2044  00568E  0E0A               	movlw	10
  2045  005690  6E0B               	movwf	___awmod@divisor^0,c
  2046  005692  ECE0  F02E         	call	___awmod	;wreg free
  2047  005696  5009               	movf	?___awmod^0,w,c
  2048  005698  0F30               	addlw	48
  2049  00569A  EC2D  F031         	call	_LCDPutChar
  2050  00569E                     l5249:
  2051                           
  2052                           ;State_Stop_Watch.c: 17:     if(min_sw_changed_flag) {
  2053  00569E  0100               	movlb	0	; () banked
  2054  0056A0  51C3               	movf	_min_sw_changed_flag& (0+255),w,b
  2055  0056A2  B4D8               	btfsc	status,2,c
  2056  0056A4  EF56  F02B         	goto	u4751
  2057  0056A8  EF58  F02B         	goto	u4750
  2058  0056AC                     u4751:
  2059  0056AC  EF79  F02B         	goto	l559
  2060  0056B0                     u4750:
  2061  0056B0                     
  2062                           ; BSR set to: 0
  2063                           ;State_Stop_Watch.c: 18:         min_changed_flag = 0;
  2064  0056B0  0E00               	movlw	0
  2065  0056B2  6FC8               	movwf	_min_changed_flag& (0+255),b
  2066  0056B4                     
  2067                           ; BSR set to: 0
  2068                           ;State_Stop_Watch.c: 19:         LCDMoveCursor(1, 0);
  2069  0056B4  0E00               	movlw	0
  2070  0056B6  6E0F               	movwf	LCDMoveCursor@pos^0,c
  2071  0056B8  0E01               	movlw	1
  2072  0056BA  ECFB  F031         	call	_LCDMoveCursor
  2073  0056BE                     
  2074                           ;State_Stop_Watch.c: 20:         LCDPutChar(min_sw/10+'0');
  2075  0056BE  C051  F009         	movff	_min_sw,___awdiv@dividend	;volatile
  2076  0056C2  6A0A               	clrf	(___awdiv@dividend+1)^0,c
  2077  0056C4  0E00               	movlw	0
  2078  0056C6  6E0C               	movwf	(___awdiv@divisor+1)^0,c
  2079  0056C8  0E0A               	movlw	10
  2080  0056CA  6E0B               	movwf	___awdiv@divisor^0,c
  2081  0056CC  EC5F  F02C         	call	___awdiv	;wreg free
  2082  0056D0  5009               	movf	?___awdiv^0,w,c
  2083  0056D2  0F30               	addlw	48
  2084  0056D4  EC2D  F031         	call	_LCDPutChar
  2085  0056D8                     
  2086                           ;State_Stop_Watch.c: 21:         LCDPutChar(min_sw%10+'0');
  2087  0056D8  C051  F009         	movff	_min_sw,___awmod@dividend	;volatile
  2088  0056DC  6A0A               	clrf	(___awmod@dividend+1)^0,c
  2089  0056DE  0E00               	movlw	0
  2090  0056E0  6E0C               	movwf	(___awmod@divisor+1)^0,c
  2091  0056E2  0E0A               	movlw	10
  2092  0056E4  6E0B               	movwf	___awmod@divisor^0,c
  2093  0056E6  ECE0  F02E         	call	___awmod	;wreg free
  2094  0056EA  5009               	movf	?___awmod^0,w,c
  2095  0056EC  0F30               	addlw	48
  2096  0056EE  EC2D  F031         	call	_LCDPutChar
  2097  0056F2                     l559:
  2098  0056F2  0012               	return		;funcret
  2099  0056F4                     __end_of_disp_Changed_SW:
  2100                           	opt callstack 0
  2101                           
  2102 ;; *************** function _state_set_second *****************
  2103 ;; Defined at:
  2104 ;;		line 61 in file "State_Set.c"
  2105 ;; Parameters:    Size  Location     Type
  2106 ;;		None
  2107 ;; Auto vars:     Size  Location     Type
  2108 ;;		None
  2109 ;; Return value:  Size  Location     Type
  2110 ;;                  1    wreg      void 
  2111 ;; Registers used:
  2112 ;;		wreg, status,2, status,0, tblptrl, tblptrh, tblptru, cstack
  2113 ;; Tracked objects:
  2114 ;;		On entry : 0/0
  2115 ;;		On exit  : 0/0
  2116 ;;		Unchanged: 0/0
  2117 ;; Data sizes:     COMRAM   BANK0   BANK1   BANK2   BANK3   BANK4   BANK5   BANK6   BANK7   BANK8   BANK9  BANK10  BANK1
      +1  BANK12  BANK13  BANK14  BANK15
  2118 ;;      Params:         0       0       0       0       0       0       0       0       0       0       0       0       
      +0       0       0       0       0
  2119 ;;      Locals:         2       0       0       0       0       0       0       0       0       0       0       0       
      +0       0       0       0       0
  2120 ;;      Temps:          0       0       0       0       0       0       0       0       0       0       0       0       
      +0       0       0       0       0
  2121 ;;      Totals:         2       0       0       0       0       0       0       0       0       0       0       0       
      +0       0       0       0       0
  2122 ;;Total ram usage:        2 bytes
  2123 ;; Hardware stack levels used:    1
  2124 ;; Hardware stack levels required when called:    9
  2125 ;; This function calls:
  2126 ;;		_LCDPutInst
  2127 ;;		_LCDPutStr
  2128 ;;		_disp_Changed
  2129 ;;		_disp_Clock
  2130 ;;		_disp_Clock_Hide
  2131 ;;		_handle_Time
  2132 ;; This function is called by:
  2133 ;;		_main
  2134 ;; This function uses a non-reentrant model
  2135 ;;
  2136                           
  2137                           	psect	text5
  2138  005D10                     __ptext5:
  2139                           	opt callstack 0
  2140  005D10                     _state_set_second:
  2141                           	opt callstack 21
  2142  005D10                     
  2143                           ;State_Set.c: 62:     if(changed_state_flag) {
  2144  005D10  0100               	movlb	0	; () banked
  2145  005D12  51D5               	movf	_changed_state_flag& (0+255),w,b
  2146  005D14  B4D8               	btfsc	status,2,c
  2147  005D16  EF8F  F02E         	goto	u4961
  2148  005D1A  EF91  F02E         	goto	u4960
  2149  005D1E                     u4961:
  2150  005D1E  EF9E  F02E         	goto	l5457
  2151  005D22                     u4960:
  2152  005D22                     
  2153                           ; BSR set to: 0
  2154                           ;State_Set.c: 63:         changed_state_flag = 0;
  2155  005D22  0E00               	movlw	0
  2156  005D24  6FD5               	movwf	_changed_state_flag& (0+255),b
  2157  005D26                     
  2158                           ; BSR set to: 0
  2159                           ;State_Set.c: 64:         LCDPutInst(0x80);
  2160  005D26  0E80               	movlw	128
  2161  005D28  EC53  F031         	call	_LCDPutInst
  2162  005D2C                     
  2163                           ;State_Set.c: 65:         LCDPutStr("Set sec   RA5=->");
  2164  005D2C  0E7D               	movlw	low STR_10
  2165  005D2E  6E0F               	movwf	LCDPutStr@ptr^0,c
  2166  005D30  0E10               	movlw	high STR_10
  2167  005D32  6E10               	movwf	(LCDPutStr@ptr+1)^0,c
  2168  005D34  ECDC  F031         	call	_LCDPutStr	;wreg free
  2169  005D38                     
  2170                           ;State_Set.c: 66:         disp_Clock();
  2171  005D38  ECC1  F02C         	call	_disp_Clock	;wreg free
  2172  005D3C                     l5457:
  2173                           
  2174                           ;State_Set.c: 68:     if(second_flag) {
  2175  005D3C  0100               	movlb	0	; () banked
  2176  005D3E  51CC               	movf	_second_flag& (0+255),w,b
  2177  005D40  B4D8               	btfsc	status,2,c
  2178  005D42  EFA5  F02E         	goto	u4971
  2179  005D46  EFA7  F02E         	goto	u4970
  2180  005D4A                     u4971:
  2181  005D4A  EFC1  F02E         	goto	l761
  2182  005D4E                     u4970:
  2183  005D4E                     
  2184                           ; BSR set to: 0
  2185                           ;State_Set.c: 69:         second_flag = 0;
  2186  005D4E  0E00               	movlw	0
  2187  005D50  6FCC               	movwf	_second_flag& (0+255),b
  2188  005D52                     
  2189                           ; BSR set to: 0
  2190                           ;State_Set.c: 70:         sec++;
  2191  005D52  2A52               	incf	_sec^0,f,c	;volatile
  2192  005D54                     
  2193                           ; BSR set to: 0
  2194                           ;State_Set.c: 71:         handle_Time();
  2195  005D54  EC05  F031         	call	_handle_Time	;wreg free
  2196  005D58                     
  2197                           ;State_Set.c: 72:         disp_Changed();
  2198  005D58  EC7A  F02B         	call	_disp_Changed	;wreg free
  2199  005D5C                     
  2200                           ;State_Set.c: 73:         ledValue = (ledValue == 0) ? 255 : 0;
  2201  005D5C  5055               	movf	_ledValue^0,w,c
  2202  005D5E  B4D8               	btfsc	status,2,c
  2203  005D60  EFB4  F02E         	goto	u4981
  2204  005D64  EFB6  F02E         	goto	u4980
  2205  005D68                     u4981:
  2206  005D68  EFBC  F02E         	goto	l5471
  2207  005D6C                     u4980:
  2208  005D6C  0E00               	movlw	0
  2209  005D6E  6E1C               	movwf	(_state_set_second$1032+1)^0,c
  2210  005D70  0E00               	movlw	0
  2211  005D72  6E1B               	movwf	_state_set_second$1032^0,c
  2212  005D74  EFBF  F02E         	goto	l5473
  2213  005D78                     l5471:
  2214  005D78  0E00               	movlw	0
  2215  005D7A  6E1C               	movwf	(_state_set_second$1032+1)^0,c
  2216  005D7C  681B               	setf	_state_set_second$1032^0,c
  2217  005D7E                     l5473:
  2218  005D7E  C01B  F055         	movff	_state_set_second$1032,_ledValue
  2219  005D82                     l761:
  2220                           
  2221                           ;State_Set.c: 75:     if(buttonRB0) {
  2222  005D82  0100               	movlb	0	; () banked
  2223  005D84  51CD               	movf	_buttonRB0& (0+255),w,b
  2224  005D86  B4D8               	btfsc	status,2,c
  2225  005D88  EFC8  F02E         	goto	u4991
  2226  005D8C  EFCA  F02E         	goto	u4990
  2227  005D90                     u4991:
  2228  005D90  EFD1  F02E         	goto	l5483
  2229  005D94                     u4990:
  2230  005D94                     
  2231                           ; BSR set to: 0
  2232                           ;State_Set.c: 76:         buttonRB0 = 0;
  2233  005D94  0E00               	movlw	0
  2234  005D96  6FCD               	movwf	_buttonRB0& (0+255),b
  2235  005D98                     
  2236                           ; BSR set to: 0
  2237                           ;State_Set.c: 77:         sec++;
  2238  005D98  2A52               	incf	_sec^0,f,c	;volatile
  2239  005D9A                     
  2240                           ; BSR set to: 0
  2241                           ;State_Set.c: 78:         handle_Time();
  2242  005D9A  EC05  F031         	call	_handle_Time	;wreg free
  2243  005D9E                     
  2244                           ;State_Set.c: 79:         disp_Changed();
  2245  005D9E  EC7A  F02B         	call	_disp_Changed	;wreg free
  2246  005DA2                     l5483:
  2247                           
  2248                           ;State_Set.c: 81:     if(hide_flag) {
  2249  005DA2  0100               	movlb	0	; () banked
  2250  005DA4  51CB               	movf	_hide_flag& (0+255),w,b
  2251  005DA6  B4D8               	btfsc	status,2,c
  2252  005DA8  EFD8  F02E         	goto	u5001
  2253  005DAC  EFDA  F02E         	goto	u5000
  2254  005DB0                     u5001:
  2255  005DB0  EFDF  F02E         	goto	l768
  2256  005DB4                     u5000:
  2257  005DB4                     
  2258                           ; BSR set to: 0
  2259                           ;State_Set.c: 82:         hide_flag = 0;
  2260  005DB4  0E00               	movlw	0
  2261  005DB6  6FCB               	movwf	_hide_flag& (0+255),b
  2262  005DB8                     
  2263                           ; BSR set to: 0
  2264                           ;State_Set.c: 83:         disp_Clock_Hide(state);
  2265  005DB8  5056               	movf	_state^0,w,c	;volatile
  2266  005DBA  EC80  F02F         	call	_disp_Clock_Hide
  2267  005DBE                     l768:
  2268  005DBE  0012               	return		;funcret
  2269  005DC0                     __end_of_state_set_second:
  2270                           	opt callstack 0
  2271                           
  2272 ;; *************** function _state_set_minute *****************
  2273 ;; Defined at:
  2274 ;;		line 33 in file "State_Set.c"
  2275 ;; Parameters:    Size  Location     Type
  2276 ;;		None
  2277 ;; Auto vars:     Size  Location     Type
  2278 ;;		None
  2279 ;; Return value:  Size  Location     Type
  2280 ;;                  1    wreg      void 
  2281 ;; Registers used:
  2282 ;;		wreg, status,2, status,0, tblptrl, tblptrh, tblptru, cstack
  2283 ;; Tracked objects:
  2284 ;;		On entry : 0/0
  2285 ;;		On exit  : 0/0
  2286 ;;		Unchanged: 0/0
  2287 ;; Data sizes:     COMRAM   BANK0   BANK1   BANK2   BANK3   BANK4   BANK5   BANK6   BANK7   BANK8   BANK9  BANK10  BANK1
      +1  BANK12  BANK13  BANK14  BANK15
  2288 ;;      Params:         0       0       0       0       0       0       0       0       0       0       0       0       
      +0       0       0       0       0
  2289 ;;      Locals:         2       0       0       0       0       0       0       0       0       0       0       0       
      +0       0       0       0       0
  2290 ;;      Temps:          0       0       0       0       0       0       0       0       0       0       0       0       
      +0       0       0       0       0
  2291 ;;      Totals:         2       0       0       0       0       0       0       0       0       0       0       0       
      +0       0       0       0       0
  2292 ;;Total ram usage:        2 bytes
  2293 ;; Hardware stack levels used:    1
  2294 ;; Hardware stack levels required when called:    9
  2295 ;; This function calls:
  2296 ;;		_LCDPutInst
  2297 ;;		_LCDPutStr
  2298 ;;		_disp_Changed
  2299 ;;		_disp_Clock
  2300 ;;		_disp_Clock_Hide
  2301 ;;		_handle_Time
  2302 ;; This function is called by:
  2303 ;;		_main
  2304 ;; This function uses a non-reentrant model
  2305 ;;
  2306                           
  2307                           	psect	text6
  2308  005A3E                     __ptext6:
  2309                           	opt callstack 0
  2310  005A3E                     _state_set_minute:
  2311                           	opt callstack 21
  2312  005A3E                     
  2313                           ;State_Set.c: 34:     if(changed_state_flag) {
  2314  005A3E  0100               	movlb	0	; () banked
  2315  005A40  51D5               	movf	_changed_state_flag& (0+255),w,b
  2316  005A42  B4D8               	btfsc	status,2,c
  2317  005A44  EF26  F02D         	goto	u4911
  2318  005A48  EF28  F02D         	goto	u4910
  2319  005A4C                     u4911:
  2320  005A4C  EF35  F02D         	goto	l5411
  2321  005A50                     u4910:
  2322  005A50                     
  2323                           ; BSR set to: 0
  2324                           ;State_Set.c: 35:         changed_state_flag = 0;
  2325  005A50  0E00               	movlw	0
  2326  005A52  6FD5               	movwf	_changed_state_flag& (0+255),b
  2327  005A54                     
  2328                           ; BSR set to: 0
  2329                           ;State_Set.c: 36:         LCDPutInst(0x80);
  2330  005A54  0E80               	movlw	128
  2331  005A56  EC53  F031         	call	_LCDPutInst
  2332  005A5A                     
  2333                           ;State_Set.c: 37:         LCDPutStr("Set min   RA5=->");
  2334  005A5A  0E8E               	movlw	low STR_9
  2335  005A5C  6E0F               	movwf	LCDPutStr@ptr^0,c
  2336  005A5E  0E10               	movlw	high STR_9
  2337  005A60  6E10               	movwf	(LCDPutStr@ptr+1)^0,c
  2338  005A62  ECDC  F031         	call	_LCDPutStr	;wreg free
  2339  005A66                     
  2340                           ;State_Set.c: 38:         disp_Clock();
  2341  005A66  ECC1  F02C         	call	_disp_Clock	;wreg free
  2342  005A6A                     l5411:
  2343                           
  2344                           ;State_Set.c: 40:     if(second_flag) {
  2345  005A6A  0100               	movlb	0	; () banked
  2346  005A6C  51CC               	movf	_second_flag& (0+255),w,b
  2347  005A6E  B4D8               	btfsc	status,2,c
  2348  005A70  EF3C  F02D         	goto	u4921
  2349  005A74  EF3E  F02D         	goto	u4920
  2350  005A78                     u4921:
  2351  005A78  EF5A  F02D         	goto	l750
  2352  005A7C                     u4920:
  2353  005A7C                     
  2354                           ; BSR set to: 0
  2355                           ;State_Set.c: 41:         second_flag = 0;
  2356  005A7C  0E00               	movlw	0
  2357  005A7E  6FCC               	movwf	_second_flag& (0+255),b
  2358  005A80                     
  2359                           ; BSR set to: 0
  2360                           ;State_Set.c: 42:         sec++;
  2361  005A80  2A52               	incf	_sec^0,f,c	;volatile
  2362  005A82                     
  2363                           ; BSR set to: 0
  2364                           ;State_Set.c: 43:         min_changed_flag = 1;
  2365  005A82  0E01               	movlw	1
  2366  005A84  6FC8               	movwf	_min_changed_flag& (0+255),b
  2367  005A86                     
  2368                           ; BSR set to: 0
  2369                           ;State_Set.c: 44:         handle_Time();
  2370  005A86  EC05  F031         	call	_handle_Time	;wreg free
  2371  005A8A                     
  2372                           ;State_Set.c: 45:         disp_Changed();
  2373  005A8A  EC7A  F02B         	call	_disp_Changed	;wreg free
  2374  005A8E                     
  2375                           ;State_Set.c: 46:         ledValue = (ledValue == 0) ? 255 : 0;
  2376  005A8E  5055               	movf	_ledValue^0,w,c
  2377  005A90  B4D8               	btfsc	status,2,c
  2378  005A92  EF4D  F02D         	goto	u4931
  2379  005A96  EF4F  F02D         	goto	u4930
  2380  005A9A                     u4931:
  2381  005A9A  EF55  F02D         	goto	l5427
  2382  005A9E                     u4930:
  2383  005A9E  0E00               	movlw	0
  2384  005AA0  6E1C               	movwf	(_state_set_minute$1029+1)^0,c
  2385  005AA2  0E00               	movlw	0
  2386  005AA4  6E1B               	movwf	_state_set_minute$1029^0,c
  2387  005AA6  EF58  F02D         	goto	l5429
  2388  005AAA                     l5427:
  2389  005AAA  0E00               	movlw	0
  2390  005AAC  6E1C               	movwf	(_state_set_minute$1029+1)^0,c
  2391  005AAE  681B               	setf	_state_set_minute$1029^0,c
  2392  005AB0                     l5429:
  2393  005AB0  C01B  F055         	movff	_state_set_minute$1029,_ledValue
  2394  005AB4                     l750:
  2395                           
  2396                           ;State_Set.c: 48:     if(buttonRB0) {
  2397  005AB4  0100               	movlb	0	; () banked
  2398  005AB6  51CD               	movf	_buttonRB0& (0+255),w,b
  2399  005AB8  B4D8               	btfsc	status,2,c
  2400  005ABA  EF61  F02D         	goto	u4941
  2401  005ABE  EF63  F02D         	goto	u4940
  2402  005AC2                     u4941:
  2403  005AC2  EF6C  F02D         	goto	l5441
  2404  005AC6                     u4940:
  2405  005AC6                     
  2406                           ; BSR set to: 0
  2407                           ;State_Set.c: 49:         buttonRB0 = 0;
  2408  005AC6  0E00               	movlw	0
  2409  005AC8  6FCD               	movwf	_buttonRB0& (0+255),b
  2410  005ACA                     
  2411                           ; BSR set to: 0
  2412                           ;State_Set.c: 50:         min++;
  2413  005ACA  2A53               	incf	_min^0,f,c	;volatile
  2414  005ACC                     
  2415                           ; BSR set to: 0
  2416                           ;State_Set.c: 51:         min_changed_flag = 1;
  2417  005ACC  0E01               	movlw	1
  2418  005ACE  6FC8               	movwf	_min_changed_flag& (0+255),b
  2419  005AD0                     
  2420                           ; BSR set to: 0
  2421                           ;State_Set.c: 52:         handle_Time();
  2422  005AD0  EC05  F031         	call	_handle_Time	;wreg free
  2423  005AD4                     
  2424                           ;State_Set.c: 53:         disp_Changed();
  2425  005AD4  EC7A  F02B         	call	_disp_Changed	;wreg free
  2426  005AD8                     l5441:
  2427                           
  2428                           ;State_Set.c: 55:     if(hide_flag) {
  2429  005AD8  0100               	movlb	0	; () banked
  2430  005ADA  51CB               	movf	_hide_flag& (0+255),w,b
  2431  005ADC  B4D8               	btfsc	status,2,c
  2432  005ADE  EF73  F02D         	goto	u4951
  2433  005AE2  EF75  F02D         	goto	u4950
  2434  005AE6                     u4951:
  2435  005AE6  EF7A  F02D         	goto	l757
  2436  005AEA                     u4950:
  2437  005AEA                     
  2438                           ; BSR set to: 0
  2439                           ;State_Set.c: 56:         hide_flag = 0;
  2440  005AEA  0E00               	movlw	0
  2441  005AEC  6FCB               	movwf	_hide_flag& (0+255),b
  2442  005AEE                     
  2443                           ; BSR set to: 0
  2444                           ;State_Set.c: 57:         disp_Clock_Hide(state);
  2445  005AEE  5056               	movf	_state^0,w,c	;volatile
  2446  005AF0  EC80  F02F         	call	_disp_Clock_Hide
  2447  005AF4                     l757:
  2448  005AF4  0012               	return		;funcret
  2449  005AF6                     __end_of_state_set_minute:
  2450                           	opt callstack 0
  2451                           
  2452 ;; *************** function _state_set_hour *****************
  2453 ;; Defined at:
  2454 ;;		line 5 in file "State_Set.c"
  2455 ;; Parameters:    Size  Location     Type
  2456 ;;		None
  2457 ;; Auto vars:     Size  Location     Type
  2458 ;;		None
  2459 ;; Return value:  Size  Location     Type
  2460 ;;                  1    wreg      void 
  2461 ;; Registers used:
  2462 ;;		wreg, status,2, status,0, tblptrl, tblptrh, tblptru, cstack
  2463 ;; Tracked objects:
  2464 ;;		On entry : 0/0
  2465 ;;		On exit  : 0/0
  2466 ;;		Unchanged: 0/0
  2467 ;; Data sizes:     COMRAM   BANK0   BANK1   BANK2   BANK3   BANK4   BANK5   BANK6   BANK7   BANK8   BANK9  BANK10  BANK1
      +1  BANK12  BANK13  BANK14  BANK15
  2468 ;;      Params:         0       0       0       0       0       0       0       0       0       0       0       0       
      +0       0       0       0       0
  2469 ;;      Locals:         2       0       0       0       0       0       0       0       0       0       0       0       
      +0       0       0       0       0
  2470 ;;      Temps:          0       0       0       0       0       0       0       0       0       0       0       0       
      +0       0       0       0       0
  2471 ;;      Totals:         2       0       0       0       0       0       0       0       0       0       0       0       
      +0       0       0       0       0
  2472 ;;Total ram usage:        2 bytes
  2473 ;; Hardware stack levels used:    1
  2474 ;; Hardware stack levels required when called:    9
  2475 ;; This function calls:
  2476 ;;		_LCDPutInst
  2477 ;;		_LCDPutStr
  2478 ;;		_disp_Changed
  2479 ;;		_disp_Clock
  2480 ;;		_disp_Clock_Hide
  2481 ;;		_handle_Time
  2482 ;; This function is called by:
  2483 ;;		_main
  2484 ;; This function uses a non-reentrant model
  2485 ;;
  2486                           
  2487                           	psect	text7
  2488  005AF6                     __ptext7:
  2489                           	opt callstack 0
  2490  005AF6                     _state_set_hour:
  2491                           	opt callstack 21
  2492  005AF6                     
  2493                           ;State_Set.c: 6:     if(changed_state_flag) {
  2494  005AF6  0100               	movlb	0	; () banked
  2495  005AF8  51D5               	movf	_changed_state_flag& (0+255),w,b
  2496  005AFA  B4D8               	btfsc	status,2,c
  2497  005AFC  EF82  F02D         	goto	u4861
  2498  005B00  EF84  F02D         	goto	u4860
  2499  005B04                     u4861:
  2500  005B04  EF91  F02D         	goto	l5365
  2501  005B08                     u4860:
  2502  005B08                     
  2503                           ; BSR set to: 0
  2504                           ;State_Set.c: 7:         changed_state_flag = 0;
  2505  005B08  0E00               	movlw	0
  2506  005B0A  6FD5               	movwf	_changed_state_flag& (0+255),b
  2507  005B0C                     
  2508                           ; BSR set to: 0
  2509                           ;State_Set.c: 8:         LCDPutInst(0x80);
  2510  005B0C  0E80               	movlw	128
  2511  005B0E  EC53  F031         	call	_LCDPutInst
  2512  005B12                     
  2513                           ;State_Set.c: 9:         LCDPutStr("Set hour  RA5=->");
  2514  005B12  0E9F               	movlw	low STR_8
  2515  005B14  6E0F               	movwf	LCDPutStr@ptr^0,c
  2516  005B16  0E10               	movlw	high STR_8
  2517  005B18  6E10               	movwf	(LCDPutStr@ptr+1)^0,c
  2518  005B1A  ECDC  F031         	call	_LCDPutStr	;wreg free
  2519  005B1E                     
  2520                           ;State_Set.c: 10:         disp_Clock();
  2521  005B1E  ECC1  F02C         	call	_disp_Clock	;wreg free
  2522  005B22                     l5365:
  2523                           
  2524                           ;State_Set.c: 12:     if(second_flag) {
  2525  005B22  0100               	movlb	0	; () banked
  2526  005B24  51CC               	movf	_second_flag& (0+255),w,b
  2527  005B26  B4D8               	btfsc	status,2,c
  2528  005B28  EF98  F02D         	goto	u4871
  2529  005B2C  EF9A  F02D         	goto	u4870
  2530  005B30                     u4871:
  2531  005B30  EFB6  F02D         	goto	l739
  2532  005B34                     u4870:
  2533  005B34                     
  2534                           ; BSR set to: 0
  2535                           ;State_Set.c: 13:         second_flag = 0;
  2536  005B34  0E00               	movlw	0
  2537  005B36  6FCC               	movwf	_second_flag& (0+255),b
  2538  005B38                     
  2539                           ; BSR set to: 0
  2540                           ;State_Set.c: 14:         sec++;
  2541  005B38  2A52               	incf	_sec^0,f,c	;volatile
  2542  005B3A                     
  2543                           ; BSR set to: 0
  2544                           ;State_Set.c: 15:         hr_changed_flag = 1;
  2545  005B3A  0E01               	movlw	1
  2546  005B3C  6FC7               	movwf	_hr_changed_flag& (0+255),b
  2547  005B3E                     
  2548                           ; BSR set to: 0
  2549                           ;State_Set.c: 16:         handle_Time();
  2550  005B3E  EC05  F031         	call	_handle_Time	;wreg free
  2551  005B42                     
  2552                           ;State_Set.c: 17:         disp_Changed();
  2553  005B42  EC7A  F02B         	call	_disp_Changed	;wreg free
  2554  005B46                     
  2555                           ;State_Set.c: 18:         ledValue = (ledValue == 0) ? 255 : 0;
  2556  005B46  5055               	movf	_ledValue^0,w,c
  2557  005B48  B4D8               	btfsc	status,2,c
  2558  005B4A  EFA9  F02D         	goto	u4881
  2559  005B4E  EFAB  F02D         	goto	u4880
  2560  005B52                     u4881:
  2561  005B52  EFB1  F02D         	goto	l5381
  2562  005B56                     u4880:
  2563  005B56  0E00               	movlw	0
  2564  005B58  6E1C               	movwf	(_state_set_hour$1025+1)^0,c
  2565  005B5A  0E00               	movlw	0
  2566  005B5C  6E1B               	movwf	_state_set_hour$1025^0,c
  2567  005B5E  EFB4  F02D         	goto	l5383
  2568  005B62                     l5381:
  2569  005B62  0E00               	movlw	0
  2570  005B64  6E1C               	movwf	(_state_set_hour$1025+1)^0,c
  2571  005B66  681B               	setf	_state_set_hour$1025^0,c
  2572  005B68                     l5383:
  2573  005B68  C01B  F055         	movff	_state_set_hour$1025,_ledValue
  2574  005B6C                     l739:
  2575                           
  2576                           ;State_Set.c: 20:     if(buttonRB0) {
  2577  005B6C  0100               	movlb	0	; () banked
  2578  005B6E  51CD               	movf	_buttonRB0& (0+255),w,b
  2579  005B70  B4D8               	btfsc	status,2,c
  2580  005B72  EFBD  F02D         	goto	u4891
  2581  005B76  EFBF  F02D         	goto	u4890
  2582  005B7A                     u4891:
  2583  005B7A  EFC8  F02D         	goto	l5395
  2584  005B7E                     u4890:
  2585  005B7E                     
  2586                           ; BSR set to: 0
  2587                           ;State_Set.c: 21:         buttonRB0 = 0;
  2588  005B7E  0E00               	movlw	0
  2589  005B80  6FCD               	movwf	_buttonRB0& (0+255),b
  2590  005B82                     
  2591                           ; BSR set to: 0
  2592                           ;State_Set.c: 22:         hr++;
  2593  005B82  2A54               	incf	_hr^0,f,c	;volatile
  2594  005B84                     
  2595                           ; BSR set to: 0
  2596                           ;State_Set.c: 23:         hr_changed_flag = 1;
  2597  005B84  0E01               	movlw	1
  2598  005B86  6FC7               	movwf	_hr_changed_flag& (0+255),b
  2599  005B88                     
  2600                           ; BSR set to: 0
  2601                           ;State_Set.c: 24:         handle_Time();
  2602  005B88  EC05  F031         	call	_handle_Time	;wreg free
  2603  005B8C                     
  2604                           ;State_Set.c: 25:         disp_Changed();
  2605  005B8C  EC7A  F02B         	call	_disp_Changed	;wreg free
  2606  005B90                     l5395:
  2607                           
  2608                           ;State_Set.c: 27:     if(hide_flag) {
  2609  005B90  0100               	movlb	0	; () banked
  2610  005B92  51CB               	movf	_hide_flag& (0+255),w,b
  2611  005B94  B4D8               	btfsc	status,2,c
  2612  005B96  EFCF  F02D         	goto	u4901
  2613  005B9A  EFD1  F02D         	goto	u4900
  2614  005B9E                     u4901:
  2615  005B9E  EFD6  F02D         	goto	l746
  2616  005BA2                     u4900:
  2617  005BA2                     
  2618                           ; BSR set to: 0
  2619                           ;State_Set.c: 28:         hide_flag = 0;
  2620  005BA2  0E00               	movlw	0
  2621  005BA4  6FCB               	movwf	_hide_flag& (0+255),b
  2622  005BA6                     
  2623                           ; BSR set to: 0
  2624                           ;State_Set.c: 29:         disp_Clock_Hide(state);
  2625  005BA6  5056               	movf	_state^0,w,c	;volatile
  2626  005BA8  EC80  F02F         	call	_disp_Clock_Hide
  2627  005BAC                     l746:
  2628  005BAC  0012               	return		;funcret
  2629  005BAE                     __end_of_state_set_hour:
  2630                           	opt callstack 0
  2631                           
  2632 ;; *************** function _disp_Clock_Hide *****************
  2633 ;; Defined at:
  2634 ;;		line 55 in file "State_Clock.c"
  2635 ;; Parameters:    Size  Location     Type
  2636 ;;  state           1    wreg     unsigned char 
  2637 ;; Auto vars:     Size  Location     Type
  2638 ;;  state           1   25[COMRAM] unsigned char 
  2639 ;; Return value:  Size  Location     Type
  2640 ;;                  1    wreg      void 
  2641 ;; Registers used:
  2642 ;;		wreg, status,2, status,0, tblptrl, tblptrh, tblptru, cstack
  2643 ;; Tracked objects:
  2644 ;;		On entry : 0/0
  2645 ;;		On exit  : 0/0
  2646 ;;		Unchanged: 0/0
  2647 ;; Data sizes:     COMRAM   BANK0   BANK1   BANK2   BANK3   BANK4   BANK5   BANK6   BANK7   BANK8   BANK9  BANK10  BANK1
      +1  BANK12  BANK13  BANK14  BANK15
  2648 ;;      Params:         0       0       0       0       0       0       0       0       0       0       0       0       
      +0       0       0       0       0
  2649 ;;      Locals:         1       0       0       0       0       0       0       0       0       0       0       0       
      +0       0       0       0       0
  2650 ;;      Temps:          2       0       0       0       0       0       0       0       0       0       0       0       
      +0       0       0       0       0
  2651 ;;      Totals:         3       0       0       0       0       0       0       0       0       0       0       0       
      +0       0       0       0       0
  2652 ;;Total ram usage:        3 bytes
  2653 ;; Hardware stack levels used:    1
  2654 ;; Hardware stack levels required when called:    8
  2655 ;; This function calls:
  2656 ;;		_LCDPrint
  2657 ;; This function is called by:
  2658 ;;		_state_set_hour
  2659 ;;		_state_set_minute
  2660 ;;		_state_set_second
  2661 ;; This function uses a non-reentrant model
  2662 ;;
  2663                           
  2664                           	psect	text8
  2665  005F00                     __ptext8:
  2666                           	opt callstack 0
  2667  005F00                     _disp_Clock_Hide:
  2668                           	opt callstack 21
  2669                           
  2670                           ;incstack = 0
  2671                           ;disp_Clock_Hide@state stored from wreg
  2672  005F00  6E1A               	movwf	disp_Clock_Hide@state^0,c
  2673  005F02                     
  2674                           ;State_Clock.c: 56:     switch(state) {
  2675  005F02  EFA4  F02F         	goto	l5223
  2676  005F06                     l5215:
  2677                           
  2678                           ;State_Clock.c: 58:             LCDPrint(1, 0, "  ");
  2679  005F06  0E00               	movlw	0
  2680  005F08  6E14               	movwf	LCDPrint@pos^0,c
  2681  005F0A  0ED8               	movlw	low (STR_7+6)
  2682  005F0C  6E15               	movwf	LCDPrint@ptr^0,c
  2683  005F0E  0E10               	movlw	high (STR_7+6)
  2684  005F10  6E16               	movwf	(LCDPrint@ptr+1)^0,c
  2685  005F12  0E01               	movlw	1
  2686  005F14  ECBD  F031         	call	_LCDPrint
  2687                           
  2688                           ;State_Clock.c: 59:             break;
  2689  005F18  EFBD  F02F         	goto	l486
  2690  005F1C                     l5217:
  2691                           
  2692                           ;State_Clock.c: 61:             LCDPrint(1, 3, "  ");
  2693  005F1C  0E03               	movlw	3
  2694  005F1E  6E14               	movwf	LCDPrint@pos^0,c
  2695  005F20  0ED8               	movlw	low (STR_7+6)
  2696  005F22  6E15               	movwf	LCDPrint@ptr^0,c
  2697  005F24  0E10               	movlw	high (STR_7+6)
  2698  005F26  6E16               	movwf	(LCDPrint@ptr+1)^0,c
  2699  005F28  0E01               	movlw	1
  2700  005F2A  ECBD  F031         	call	_LCDPrint
  2701                           
  2702                           ;State_Clock.c: 62:             break;
  2703  005F2E  EFBD  F02F         	goto	l486
  2704  005F32                     l5219:
  2705                           
  2706                           ;State_Clock.c: 64:             LCDPrint(1, 6, "  ");
  2707  005F32  0E06               	movlw	6
  2708  005F34  6E14               	movwf	LCDPrint@pos^0,c
  2709  005F36  0ED8               	movlw	low (STR_7+6)
  2710  005F38  6E15               	movwf	LCDPrint@ptr^0,c
  2711  005F3A  0E10               	movlw	high (STR_7+6)
  2712  005F3C  6E16               	movwf	(LCDPrint@ptr+1)^0,c
  2713  005F3E  0E01               	movlw	1
  2714  005F40  ECBD  F031         	call	_LCDPrint
  2715                           
  2716                           ;State_Clock.c: 65:             break;
  2717  005F44  EFBD  F02F         	goto	l486
  2718  005F48                     l5223:
  2719  005F48  501A               	movf	disp_Clock_Hide@state^0,w,c
  2720  005F4A  6E18               	movwf	??_disp_Clock_Hide^0,c
  2721  005F4C  6A19               	clrf	(??_disp_Clock_Hide+1)^0,c
  2722                           
  2723                           ; Switch on 2 bytes has been partitioned into a top level switch of size 1, and 1 sub-sw
      +                          itches
  2724                           ; Switch size 1, requested type "simple"
  2725                           ; Number of cases is 1, Range of values is 0 to 0
  2726                           ; switch strategies available:
  2727                           ; Name         Instructions Cycles
  2728                           ; simple_byte            4     3 (average)
  2729                           ;	Chosen strategy is simple_byte
  2730  005F4E  5019               	movf	(??_disp_Clock_Hide+1)^0,w,c
  2731  005F50  0A00               	xorlw	0	; case 0
  2732  005F52  B4D8               	btfsc	status,2,c
  2733  005F54  EFAE  F02F         	goto	l6593
  2734  005F58  EFBD  F02F         	goto	l486
  2735  005F5C                     l6593:
  2736                           
  2737                           ; Switch size 1, requested type "simple"
  2738                           ; Number of cases is 3, Range of values is 1 to 3
  2739                           ; switch strategies available:
  2740                           ; Name         Instructions Cycles
  2741                           ; simple_byte           10     6 (average)
  2742                           ;	Chosen strategy is simple_byte
  2743  005F5C  5018               	movf	??_disp_Clock_Hide^0,w,c
  2744  005F5E  0A01               	xorlw	1	; case 1
  2745  005F60  B4D8               	btfsc	status,2,c
  2746  005F62  EF83  F02F         	goto	l5215
  2747  005F66  0A03               	xorlw	3	; case 2
  2748  005F68  B4D8               	btfsc	status,2,c
  2749  005F6A  EF8E  F02F         	goto	l5217
  2750  005F6E  0A01               	xorlw	1	; case 3
  2751  005F70  B4D8               	btfsc	status,2,c
  2752  005F72  EF99  F02F         	goto	l5219
  2753  005F76  EFBD  F02F         	goto	l486
  2754  005F7A                     l486:
  2755  005F7A  0012               	return		;funcret
  2756  005F7C                     __end_of_disp_Clock_Hide:
  2757                           	opt callstack 0
  2758                           
  2759 ;; *************** function _LCDPrint *****************
  2760 ;; Defined at:
  2761 ;;		line 233 in file "SPI_LCD.c"
  2762 ;; Parameters:    Size  Location     Type
  2763 ;;  line            1    wreg     unsigned char 
  2764 ;;  pos             1   19[COMRAM] unsigned char 
  2765 ;;  ptr             2   20[COMRAM] PTR const unsigned char 
  2766 ;;		 -> STR_4(3), STR_3(3), STR_2(3), 
  2767 ;; Auto vars:     Size  Location     Type
  2768 ;;  line            1   22[COMRAM] unsigned char 
  2769 ;; Return value:  Size  Location     Type
  2770 ;;                  1    wreg      void 
  2771 ;; Registers used:
  2772 ;;		wreg, status,2, status,0, tblptrl, tblptrh, tblptru, cstack
  2773 ;; Tracked objects:
  2774 ;;		On entry : 0/0
  2775 ;;		On exit  : 0/0
  2776 ;;		Unchanged: 0/0
  2777 ;; Data sizes:     COMRAM   BANK0   BANK1   BANK2   BANK3   BANK4   BANK5   BANK6   BANK7   BANK8   BANK9  BANK10  BANK1
      +1  BANK12  BANK13  BANK14  BANK15
  2778 ;;      Params:         3       0       0       0       0       0       0       0       0       0       0       0       
      +0       0       0       0       0
  2779 ;;      Locals:         1       0       0       0       0       0       0       0       0       0       0       0       
      +0       0       0       0       0
  2780 ;;      Temps:          0       0       0       0       0       0       0       0       0       0       0       0       
      +0       0       0       0       0
  2781 ;;      Totals:         4       0       0       0       0       0       0       0       0       0       0       0       
      +0       0       0       0       0
  2782 ;;Total ram usage:        4 bytes
  2783 ;; Hardware stack levels used:    1
  2784 ;; Hardware stack levels required when called:    7
  2785 ;; This function calls:
  2786 ;;		_LCDMoveCursor
  2787 ;;		_LCDPutStr
  2788 ;; This function is called by:
  2789 ;;		_disp_Clock_Hide
  2790 ;; This function uses a non-reentrant model
  2791 ;;
  2792                           
  2793                           	psect	text9
  2794  00637A                     __ptext9:
  2795                           	opt callstack 0
  2796  00637A                     _LCDPrint:
  2797                           	opt callstack 21
  2798                           
  2799                           ;incstack = 0
  2800                           ;LCDPrint@line stored from wreg
  2801  00637A  6E17               	movwf	LCDPrint@line^0,c
  2802  00637C                     
  2803                           ;SPI_LCD.c: 234:     if(line <0 || line > 2 || pos < 0 || pos > 15)
  2804  00637C  0E03               	movlw	3
  2805  00637E  6017               	cpfslt	LCDPrint@line^0,c
  2806  006380  EFC4  F031         	goto	u4591
  2807  006384  EFC6  F031         	goto	u4590
  2808  006388                     u4591:
  2809  006388  EFDB  F031         	goto	l371
  2810  00638C                     u4590:
  2811  00638C  0E0F               	movlw	15
  2812  00638E  6414               	cpfsgt	LCDPrint@pos^0,c
  2813  006390  EFCC  F031         	goto	u4601
  2814  006394  EFCE  F031         	goto	u4600
  2815  006398                     u4601:
  2816  006398  EFD0  F031         	goto	l5075
  2817  00639C                     u4600:
  2818  00639C  EFDB  F031         	goto	l371
  2819  0063A0                     l5075:
  2820                           
  2821                           ;SPI_LCD.c: 236:     LCDMoveCursor(line, pos);
  2822  0063A0  C014  F00F         	movff	LCDPrint@pos,LCDMoveCursor@pos
  2823  0063A4  5017               	movf	LCDPrint@line^0,w,c
  2824  0063A6  ECFB  F031         	call	_LCDMoveCursor
  2825  0063AA                     
  2826                           ;SPI_LCD.c: 237:     LCDPutStr(ptr);
  2827  0063AA  C015  F00F         	movff	LCDPrint@ptr,LCDPutStr@ptr
  2828  0063AE  C016  F010         	movff	LCDPrint@ptr+1,LCDPutStr@ptr+1
  2829  0063B2  ECDC  F031         	call	_LCDPutStr	;wreg free
  2830  0063B6                     l371:
  2831  0063B6  0012               	return		;funcret
  2832  0063B8                     __end_of_LCDPrint:
  2833                           	opt callstack 0
  2834                           
  2835 ;; *************** function _state_clock *****************
  2836 ;; Defined at:
  2837 ;;		line 71 in file "State_Clock.c"
  2838 ;; Parameters:    Size  Location     Type
  2839 ;;		None
  2840 ;; Auto vars:     Size  Location     Type
  2841 ;;		None
  2842 ;; Return value:  Size  Location     Type
  2843 ;;                  1    wreg      void 
  2844 ;; Registers used:
  2845 ;;		wreg, status,2, status,0, tblptrl, tblptrh, tblptru, cstack
  2846 ;; Tracked objects:
  2847 ;;		On entry : 0/0
  2848 ;;		On exit  : 0/0
  2849 ;;		Unchanged: 0/0
  2850 ;; Data sizes:     COMRAM   BANK0   BANK1   BANK2   BANK3   BANK4   BANK5   BANK6   BANK7   BANK8   BANK9  BANK10  BANK1
      +1  BANK12  BANK13  BANK14  BANK15
  2851 ;;      Params:         0       0       0       0       0       0       0       0       0       0       0       0       
      +0       0       0       0       0
  2852 ;;      Locals:         2       0       0       0       0       0       0       0       0       0       0       0       
      +0       0       0       0       0
  2853 ;;      Temps:          0       0       0       0       0       0       0       0       0       0       0       0       
      +0       0       0       0       0
  2854 ;;      Totals:         2       0       0       0       0       0       0       0       0       0       0       0       
      +0       0       0       0       0
  2855 ;;Total ram usage:        2 bytes
  2856 ;; Hardware stack levels used:    1
  2857 ;; Hardware stack levels required when called:    8
  2858 ;; This function calls:
  2859 ;;		_LCDPutInst
  2860 ;;		_LCDPutStr
  2861 ;;		_disp_Changed
  2862 ;;		_disp_Clock
  2863 ;;		_handle_Time
  2864 ;; This function is called by:
  2865 ;;		_main
  2866 ;; This function uses a non-reentrant model
  2867 ;;
  2868                           
  2869                           	psect	text10
  2870  005F7C                     __ptext10:
  2871                           	opt callstack 0
  2872  005F7C                     _state_clock:
  2873                           	opt callstack 22
  2874  005F7C                     
  2875                           ;State_Clock.c: 72:     if(changed_state_flag) {
  2876  005F7C  0100               	movlb	0	; () banked
  2877  005F7E  51D5               	movf	_changed_state_flag& (0+255),w,b
  2878  005F80  B4D8               	btfsc	status,2,c
  2879  005F82  EFC5  F02F         	goto	u4831
  2880  005F86  EFC7  F02F         	goto	u4830
  2881  005F8A                     u4831:
  2882  005F8A  EFD4  F02F         	goto	l5337
  2883  005F8E                     u4830:
  2884  005F8E                     
  2885                           ; BSR set to: 0
  2886                           ;State_Clock.c: 73:         changed_state_flag = 0;
  2887  005F8E  0E00               	movlw	0
  2888  005F90  6FD5               	movwf	_changed_state_flag& (0+255),b
  2889  005F92                     
  2890                           ; BSR set to: 0
  2891                           ;State_Clock.c: 74:         LCDPutInst(0x80);
  2892  005F92  0E80               	movlw	128
  2893  005F94  EC53  F031         	call	_LCDPutInst
  2894  005F98                     
  2895                           ;State_Clock.c: 75:         LCDPutStr("Clock     RA5=->");
  2896  005F98  0EC1               	movlw	low STR_5
  2897  005F9A  6E0F               	movwf	LCDPutStr@ptr^0,c
  2898  005F9C  0E10               	movlw	high STR_5
  2899  005F9E  6E10               	movwf	(LCDPutStr@ptr+1)^0,c
  2900  005FA0  ECDC  F031         	call	_LCDPutStr	;wreg free
  2901  005FA4                     
  2902                           ;State_Clock.c: 76:         disp_Clock();
  2903  005FA4  ECC1  F02C         	call	_disp_Clock	;wreg free
  2904  005FA8                     l5337:
  2905                           
  2906                           ;State_Clock.c: 78:     if(second_flag == 1) {
  2907  005FA8  0100               	movlb	0	; () banked
  2908  005FAA  05CC               	decf	_second_flag& (0+255),w,b
  2909  005FAC  A4D8               	btfss	status,2,c
  2910  005FAE  EFDB  F02F         	goto	u4841
  2911  005FB2  EFDD  F02F         	goto	u4840
  2912  005FB6                     u4841:
  2913  005FB6  EFF7  F02F         	goto	l495
  2914  005FBA                     u4840:
  2915  005FBA                     
  2916                           ; BSR set to: 0
  2917                           ;State_Clock.c: 79:         second_flag = 0;
  2918  005FBA  0E00               	movlw	0
  2919  005FBC  6FCC               	movwf	_second_flag& (0+255),b
  2920  005FBE                     
  2921                           ; BSR set to: 0
  2922                           ;State_Clock.c: 80:         sec++;
  2923  005FBE  2A52               	incf	_sec^0,f,c	;volatile
  2924  005FC0                     
  2925                           ; BSR set to: 0
  2926                           ;State_Clock.c: 81:         handle_Time();
  2927  005FC0  EC05  F031         	call	_handle_Time	;wreg free
  2928  005FC4                     
  2929                           ;State_Clock.c: 82:         disp_Changed();
  2930  005FC4  EC7A  F02B         	call	_disp_Changed	;wreg free
  2931  005FC8                     
  2932                           ;State_Clock.c: 83:         ledValue = (ledValue == 0) ? 255 : 0;
  2933  005FC8  5055               	movf	_ledValue^0,w,c
  2934  005FCA  B4D8               	btfsc	status,2,c
  2935  005FCC  EFEA  F02F         	goto	u4851
  2936  005FD0  EFEC  F02F         	goto	u4850
  2937  005FD4                     u4851:
  2938  005FD4  EFF2  F02F         	goto	l5351
  2939  005FD8                     u4850:
  2940  005FD8  0E00               	movlw	0
  2941  005FDA  6E15               	movwf	(_state_clock$757+1)^0,c
  2942  005FDC  0E00               	movlw	0
  2943  005FDE  6E14               	movwf	_state_clock$757^0,c
  2944  005FE0  EFF5  F02F         	goto	l5353
  2945  005FE4                     l5351:
  2946  005FE4  0E00               	movlw	0
  2947  005FE6  6E15               	movwf	(_state_clock$757+1)^0,c
  2948  005FE8  6814               	setf	_state_clock$757^0,c
  2949  005FEA                     l5353:
  2950  005FEA  C014  F055         	movff	_state_clock$757,_ledValue
  2951  005FEE                     l495:
  2952  005FEE  0012               	return		;funcret
  2953  005FF0                     __end_of_state_clock:
  2954                           	opt callstack 0
  2955                           
  2956 ;; *************** function _handle_Time *****************
  2957 ;; Defined at:
  2958 ;;		line 24 in file "State_Clock.c"
  2959 ;; Parameters:    Size  Location     Type
  2960 ;;		None
  2961 ;; Auto vars:     Size  Location     Type
  2962 ;;		None
  2963 ;; Return value:  Size  Location     Type
  2964 ;;                  1    wreg      void 
  2965 ;; Registers used:
  2966 ;;		wreg, status,2, status,0
  2967 ;; Tracked objects:
  2968 ;;		On entry : 0/0
  2969 ;;		On exit  : 0/0
  2970 ;;		Unchanged: 0/0
  2971 ;; Data sizes:     COMRAM   BANK0   BANK1   BANK2   BANK3   BANK4   BANK5   BANK6   BANK7   BANK8   BANK9  BANK10  BANK1
      +1  BANK12  BANK13  BANK14  BANK15
  2972 ;;      Params:         0       0       0       0       0       0       0       0       0       0       0       0       
      +0       0       0       0       0
  2973 ;;      Locals:         0       0       0       0       0       0       0       0       0       0       0       0       
      +0       0       0       0       0
  2974 ;;      Temps:          0       0       0       0       0       0       0       0       0       0       0       0       
      +0       0       0       0       0
  2975 ;;      Totals:         0       0       0       0       0       0       0       0       0       0       0       0       
      +0       0       0       0       0
  2976 ;;Total ram usage:        0 bytes
  2977 ;; Hardware stack levels used:    1
  2978 ;; Hardware stack levels required when called:    3
  2979 ;; This function calls:
  2980 ;;		Nothing
  2981 ;; This function is called by:
  2982 ;;		_state_clock
  2983 ;;		_state_stop_watch
  2984 ;;		_state_set_hour
  2985 ;;		_state_set_minute
  2986 ;;		_state_set_second
  2987 ;; This function uses a non-reentrant model
  2988 ;;
  2989                           
  2990                           	psect	text11
  2991  00620A                     __ptext11:
  2992                           	opt callstack 0
  2993  00620A                     _handle_Time:
  2994                           	opt callstack 26
  2995  00620A                     
  2996                           ;State_Clock.c: 25:     sec_changed_flag = 1;
  2997  00620A  0E01               	movlw	1
  2998  00620C  0100               	movlb	0	; () banked
  2999  00620E  6FC9               	movwf	_sec_changed_flag& (0+255),b
  3000  006210                     
  3001                           ; BSR set to: 0
  3002                           ;State_Clock.c: 26:     if (sec > 59) {
  3003  006210  0E3B               	movlw	59
  3004  006212  6452               	cpfsgt	_sec^0,c	;volatile
  3005  006214  EF0E  F031         	goto	u4701
  3006  006218  EF10  F031         	goto	u4700
  3007  00621C                     u4701:
  3008  00621C  EF15  F031         	goto	l5197
  3009  006220                     u4700:
  3010  006220                     
  3011                           ; BSR set to: 0
  3012                           ;State_Clock.c: 27:         sec = 0;
  3013  006220  0E00               	movlw	0
  3014  006222  6E52               	movwf	_sec^0,c	;volatile
  3015  006224                     
  3016                           ; BSR set to: 0
  3017                           ;State_Clock.c: 28:         min++;
  3018  006224  2A53               	incf	_min^0,f,c	;volatile
  3019  006226                     
  3020                           ; BSR set to: 0
  3021                           ;State_Clock.c: 29:         min_changed_flag = 1;
  3022  006226  0E01               	movlw	1
  3023  006228  6FC8               	movwf	_min_changed_flag& (0+255),b
  3024  00622A                     l5197:
  3025                           
  3026                           ; BSR set to: 0
  3027                           ;State_Clock.c: 31:     if (min > 59) {
  3028  00622A  0E3B               	movlw	59
  3029  00622C  6453               	cpfsgt	_min^0,c	;volatile
  3030  00622E  EF1B  F031         	goto	u4711
  3031  006232  EF1D  F031         	goto	u4710
  3032  006236                     u4711:
  3033  006236  EF22  F031         	goto	l5205
  3034  00623A                     u4710:
  3035  00623A                     
  3036                           ; BSR set to: 0
  3037                           ;State_Clock.c: 32:         min = 0;
  3038  00623A  0E00               	movlw	0
  3039  00623C  6E53               	movwf	_min^0,c	;volatile
  3040  00623E                     
  3041                           ; BSR set to: 0
  3042                           ;State_Clock.c: 33:         hr++;
  3043  00623E  2A54               	incf	_hr^0,f,c	;volatile
  3044  006240                     
  3045                           ; BSR set to: 0
  3046                           ;State_Clock.c: 34:         hr_changed_flag = 1;
  3047  006240  0E01               	movlw	1
  3048  006242  6FC7               	movwf	_hr_changed_flag& (0+255),b
  3049  006244                     l5205:
  3050                           
  3051                           ; BSR set to: 0
  3052                           ;State_Clock.c: 36:     if (hr > 23 ) {
  3053  006244  0E17               	movlw	23
  3054  006246  6454               	cpfsgt	_hr^0,c	;volatile
  3055  006248  EF28  F031         	goto	u4721
  3056  00624C  EF2A  F031         	goto	u4720
  3057  006250                     u4721:
  3058  006250  EF2C  F031         	goto	l474
  3059  006254                     u4720:
  3060  006254                     
  3061                           ; BSR set to: 0
  3062                           ;State_Clock.c: 37:         hr = 0;
  3063  006254  0E00               	movlw	0
  3064  006256  6E54               	movwf	_hr^0,c	;volatile
  3065  006258                     l474:
  3066                           
  3067                           ; BSR set to: 0
  3068  006258  0012               	return		;funcret
  3069  00625A                     __end_of_handle_Time:
  3070                           	opt callstack 0
  3071                           
  3072 ;; *************** function _disp_Clock *****************
  3073 ;; Defined at:
  3074 ;;		line 41 in file "State_Clock.c"
  3075 ;; Parameters:    Size  Location     Type
  3076 ;;		None
  3077 ;; Auto vars:     Size  Location     Type
  3078 ;;		None
  3079 ;; Return value:  Size  Location     Type
  3080 ;;                  1    wreg      void 
  3081 ;; Registers used:
  3082 ;;		wreg, status,2, status,0, tblptrl, tblptrh, tblptru, cstack
  3083 ;; Tracked objects:
  3084 ;;		On entry : 0/0
  3085 ;;		On exit  : 0/0
  3086 ;;		Unchanged: 0/0
  3087 ;; Data sizes:     COMRAM   BANK0   BANK1   BANK2   BANK3   BANK4   BANK5   BANK6   BANK7   BANK8   BANK9  BANK10  BANK1
      +1  BANK12  BANK13  BANK14  BANK15
  3088 ;;      Params:         0       0       0       0       0       0       0       0       0       0       0       0       
      +0       0       0       0       0
  3089 ;;      Locals:         0       0       0       0       0       0       0       0       0       0       0       0       
      +0       0       0       0       0
  3090 ;;      Temps:          0       0       0       0       0       0       0       0       0       0       0       0       
      +0       0       0       0       0
  3091 ;;      Totals:         0       0       0       0       0       0       0       0       0       0       0       0       
      +0       0       0       0       0
  3092 ;;Total ram usage:        0 bytes
  3093 ;; Hardware stack levels used:    1
  3094 ;; Hardware stack levels required when called:    7
  3095 ;; This function calls:
  3096 ;;		_LCDPutChar
  3097 ;;		_LCDPutInst
  3098 ;;		_LCDPutStr
  3099 ;;		___awdiv
  3100 ;;		___awmod
  3101 ;; This function is called by:
  3102 ;;		_state_clock
  3103 ;;		_state_set_hour
  3104 ;;		_state_set_minute
  3105 ;;		_state_set_second
  3106 ;; This function uses a non-reentrant model
  3107 ;;
  3108                           
  3109                           	psect	text12
  3110  005982                     __ptext12:
  3111                           	opt callstack 0
  3112  005982                     _disp_Clock:
  3113                           	opt callstack 22
  3114  005982                     
  3115                           ;State_Clock.c: 43:     LCDPutInst(0xC0);
  3116  005982  0EC0               	movlw	192
  3117  005984  EC53  F031         	call	_LCDPutInst
  3118                           
  3119                           ;State_Clock.c: 44:     LCDPutChar(hr/10+'0');
  3120  005988  C054  F009         	movff	_hr,___awdiv@dividend	;volatile
  3121  00598C  6A0A               	clrf	(___awdiv@dividend+1)^0,c
  3122  00598E  0E00               	movlw	0
  3123  005990  6E0C               	movwf	(___awdiv@divisor+1)^0,c
  3124  005992  0E0A               	movlw	10
  3125  005994  6E0B               	movwf	___awdiv@divisor^0,c
  3126  005996  EC5F  F02C         	call	___awdiv	;wreg free
  3127  00599A  5009               	movf	?___awdiv^0,w,c
  3128  00599C  0F30               	addlw	48
  3129  00599E  EC2D  F031         	call	_LCDPutChar
  3130                           
  3131                           ;State_Clock.c: 45:     LCDPutChar(hr%10+'0');
  3132  0059A2  C054  F009         	movff	_hr,___awmod@dividend	;volatile
  3133  0059A6  6A0A               	clrf	(___awmod@dividend+1)^0,c
  3134  0059A8  0E00               	movlw	0
  3135  0059AA  6E0C               	movwf	(___awmod@divisor+1)^0,c
  3136  0059AC  0E0A               	movlw	10
  3137  0059AE  6E0B               	movwf	___awmod@divisor^0,c
  3138  0059B0  ECE0  F02E         	call	___awmod	;wreg free
  3139  0059B4  5009               	movf	?___awmod^0,w,c
  3140  0059B6  0F30               	addlw	48
  3141  0059B8  EC2D  F031         	call	_LCDPutChar
  3142                           
  3143                           ;State_Clock.c: 46:     LCDPutChar(':');
  3144  0059BC  0E3A               	movlw	58
  3145  0059BE  EC2D  F031         	call	_LCDPutChar
  3146                           
  3147                           ;State_Clock.c: 47:     LCDPutChar(min/10+'0');
  3148  0059C2  C053  F009         	movff	_min,___awdiv@dividend	;volatile
  3149  0059C6  6A0A               	clrf	(___awdiv@dividend+1)^0,c
  3150  0059C8  0E00               	movlw	0
  3151  0059CA  6E0C               	movwf	(___awdiv@divisor+1)^0,c
  3152  0059CC  0E0A               	movlw	10
  3153  0059CE  6E0B               	movwf	___awdiv@divisor^0,c
  3154  0059D0  EC5F  F02C         	call	___awdiv	;wreg free
  3155  0059D4  5009               	movf	?___awdiv^0,w,c
  3156  0059D6  0F30               	addlw	48
  3157  0059D8  EC2D  F031         	call	_LCDPutChar
  3158                           
  3159                           ;State_Clock.c: 48:     LCDPutChar(min%10+'0');
  3160  0059DC  C053  F009         	movff	_min,___awmod@dividend	;volatile
  3161  0059E0  6A0A               	clrf	(___awmod@dividend+1)^0,c
  3162  0059E2  0E00               	movlw	0
  3163  0059E4  6E0C               	movwf	(___awmod@divisor+1)^0,c
  3164  0059E6  0E0A               	movlw	10
  3165  0059E8  6E0B               	movwf	___awmod@divisor^0,c
  3166  0059EA  ECE0  F02E         	call	___awmod	;wreg free
  3167  0059EE  5009               	movf	?___awmod^0,w,c
  3168  0059F0  0F30               	addlw	48
  3169  0059F2  EC2D  F031         	call	_LCDPutChar
  3170                           
  3171                           ;State_Clock.c: 49:     LCDPutChar(':');
  3172  0059F6  0E3A               	movlw	58
  3173  0059F8  EC2D  F031         	call	_LCDPutChar
  3174                           
  3175                           ;State_Clock.c: 50:     LCDPutChar(sec/10+'0');
  3176  0059FC  C052  F009         	movff	_sec,___awdiv@dividend	;volatile
  3177  005A00  6A0A               	clrf	(___awdiv@dividend+1)^0,c
  3178  005A02  0E00               	movlw	0
  3179  005A04  6E0C               	movwf	(___awdiv@divisor+1)^0,c
  3180  005A06  0E0A               	movlw	10
  3181  005A08  6E0B               	movwf	___awdiv@divisor^0,c
  3182  005A0A  EC5F  F02C         	call	___awdiv	;wreg free
  3183  005A0E  5009               	movf	?___awdiv^0,w,c
  3184  005A10  0F30               	addlw	48
  3185  005A12  EC2D  F031         	call	_LCDPutChar
  3186                           
  3187                           ;State_Clock.c: 51:     LCDPutChar(sec%10+'0');
  3188  005A16  C052  F009         	movff	_sec,___awmod@dividend	;volatile
  3189  005A1A  6A0A               	clrf	(___awmod@dividend+1)^0,c
  3190  005A1C  0E00               	movlw	0
  3191  005A1E  6E0C               	movwf	(___awmod@divisor+1)^0,c
  3192  005A20  0E0A               	movlw	10
  3193  005A22  6E0B               	movwf	___awmod@divisor^0,c
  3194  005A24  ECE0  F02E         	call	___awmod	;wreg free
  3195  005A28  5009               	movf	?___awmod^0,w,c
  3196  005A2A  0F30               	addlw	48
  3197  005A2C  EC2D  F031         	call	_LCDPutChar
  3198  005A30                     
  3199                           ;State_Clock.c: 52:     LCDPutStr("       ");
  3200  005A30  0ED3               	movlw	low (STR_7+1)
  3201  005A32  6E0F               	movwf	LCDPutStr@ptr^0,c
  3202  005A34  0E10               	movlw	high (STR_7+1)
  3203  005A36  6E10               	movwf	(LCDPutStr@ptr+1)^0,c
  3204  005A38  ECDC  F031         	call	_LCDPutStr	;wreg free
  3205  005A3C  0012               	return		;funcret
  3206  005A3E                     __end_of_disp_Clock:
  3207                           	opt callstack 0
  3208                           
  3209 ;; *************** function _LCDPutStr *****************
  3210 ;; Defined at:
  3211 ;;		line 223 in file "SPI_LCD.c"
  3212 ;; Parameters:    Size  Location     Type
  3213 ;;  ptr             2   14[COMRAM] PTR const unsigned char 
  3214 ;;		 -> STR_10(17), STR_9(17), STR_8(17), STR_7(9), 
  3215 ;;		 -> STR_6(17), STR_5(17), STR_4(3), STR_3(3), 
  3216 ;;		 -> STR_2(3), STR_1(8), 
  3217 ;; Auto vars:     Size  Location     Type
  3218 ;;		None
  3219 ;; Return value:  Size  Location     Type
  3220 ;;                  1    wreg      void 
  3221 ;; Registers used:
  3222 ;;		wreg, status,2, status,0, tblptrl, tblptrh, tblptru, cstack
  3223 ;; Tracked objects:
  3224 ;;		On entry : 0/0
  3225 ;;		On exit  : 0/0
  3226 ;;		Unchanged: 0/0
  3227 ;; Data sizes:     COMRAM   BANK0   BANK1   BANK2   BANK3   BANK4   BANK5   BANK6   BANK7   BANK8   BANK9  BANK10  BANK1
      +1  BANK12  BANK13  BANK14  BANK15
  3228 ;;      Params:         2       0       0       0       0       0       0       0       0       0       0       0       
      +0       0       0       0       0
  3229 ;;      Locals:         0       0       0       0       0       0       0       0       0       0       0       0       
      +0       0       0       0       0
  3230 ;;      Temps:          0       0       0       0       0       0       0       0       0       0       0       0       
      +0       0       0       0       0
  3231 ;;      Totals:         2       0       0       0       0       0       0       0       0       0       0       0       
      +0       0       0       0       0
  3232 ;;Total ram usage:        2 bytes
  3233 ;; Hardware stack levels used:    1
  3234 ;; Hardware stack levels required when called:    6
  3235 ;; This function calls:
  3236 ;;		_LCDPutChar
  3237 ;; This function is called by:
  3238 ;;		_LCDPrint
  3239 ;;		_disp_Clock
  3240 ;;		_state_clock
  3241 ;;		_state_stop_watch
  3242 ;;		_state_set_hour
  3243 ;;		_state_set_minute
  3244 ;;		_state_set_second
  3245 ;; This function uses a non-reentrant model
  3246 ;;
  3247                           
  3248                           	psect	text13
  3249  0063B8                     __ptext13:
  3250                           	opt callstack 0
  3251  0063B8                     _LCDPutStr:
  3252                           	opt callstack 23
  3253  0063B8                     
  3254                           ;SPI_LCD.c: 223: void LCDPutStr (const char *ptr);SPI_LCD.c: 224: {;SPI_LCD.c: 225:     
      +                          while(*ptr) LCDPutChar(*(ptr++));
  3255  0063B8  EFEA  F031         	goto	l4945
  3256  0063BC                     l4941:
  3257  0063BC  C00F  FFF6         	movff	LCDPutStr@ptr,tblptrl
  3258  0063C0  C010  FFF7         	movff	LCDPutStr@ptr+1,tblptrh
  3259  0063C4                     	if	0	;tblptru may be non-zero
  3260  0063C4                     	endif
  3261  0063C4                     	if	1	;Program memory is > 0xFFFF, there are 3 active tblptr bytes
  3262  0063C4  0E00               	movlw	low (__mediumconst shr (0+16))
  3263  0063C6  6EF8               	movwf	tblptru,c
  3264  0063C8                     	endif
  3265  0063C8  0008               	tblrd		*
  3266  0063CA  50F5               	movf	tablat,w,c
  3267  0063CC  EC2D  F031         	call	_LCDPutChar
  3268  0063D0  4A0F               	infsnz	LCDPutStr@ptr^0,f,c
  3269  0063D2  2A10               	incf	(LCDPutStr@ptr+1)^0,f,c
  3270  0063D4                     l4945:
  3271  0063D4  C00F  FFF6         	movff	LCDPutStr@ptr,tblptrl
  3272  0063D8  C010  FFF7         	movff	LCDPutStr@ptr+1,tblptrh
  3273  0063DC                     	if	0	;tblptru may be non-zero
  3274  0063DC                     	endif
  3275  0063DC                     	if	1	;Program memory is > 0xFFFF, there are 3 active tblptr bytes
  3276  0063DC  0E00               	movlw	low (__mediumconst shr (0+16))
  3277  0063DE  6EF8               	movwf	tblptru,c
  3278  0063E0                     	endif
  3279  0063E0  0008               	tblrd		*
  3280  0063E2  50F5               	movf	tablat,w,c
  3281  0063E4  0900               	iorlw	0
  3282  0063E6  A4D8               	btfss	status,2,c
  3283  0063E8  EFF8  F031         	goto	u4431
  3284  0063EC  EFFA  F031         	goto	u4430
  3285  0063F0                     u4431:
  3286  0063F0  EFDE  F031         	goto	l4941
  3287  0063F4                     u4430:
  3288  0063F4  0012               	return		;funcret
  3289  0063F6                     __end_of_LCDPutStr:
  3290                           	opt callstack 0
  3291                           
  3292 ;; *************** function _disp_Changed *****************
  3293 ;; Defined at:
  3294 ;;		line 3 in file "State_Clock.c"
  3295 ;; Parameters:    Size  Location     Type
  3296 ;;		None
  3297 ;; Auto vars:     Size  Location     Type
  3298 ;;		None
  3299 ;; Return value:  Size  Location     Type
  3300 ;;                  1    wreg      void 
  3301 ;; Registers used:
  3302 ;;		wreg, status,2, status,0, cstack
  3303 ;; Tracked objects:
  3304 ;;		On entry : 0/0
  3305 ;;		On exit  : 0/0
  3306 ;;		Unchanged: 0/0
  3307 ;; Data sizes:     COMRAM   BANK0   BANK1   BANK2   BANK3   BANK4   BANK5   BANK6   BANK7   BANK8   BANK9  BANK10  BANK1
      +1  BANK12  BANK13  BANK14  BANK15
  3308 ;;      Params:         0       0       0       0       0       0       0       0       0       0       0       0       
      +0       0       0       0       0
  3309 ;;      Locals:         0       0       0       0       0       0       0       0       0       0       0       0       
      +0       0       0       0       0
  3310 ;;      Temps:          0       0       0       0       0       0       0       0       0       0       0       0       
      +0       0       0       0       0
  3311 ;;      Totals:         0       0       0       0       0       0       0       0       0       0       0       0       
      +0       0       0       0       0
  3312 ;;Total ram usage:        0 bytes
  3313 ;; Hardware stack levels used:    1
  3314 ;; Hardware stack levels required when called:    7
  3315 ;; This function calls:
  3316 ;;		_LCDMoveCursor
  3317 ;;		_LCDPutChar
  3318 ;;		___awdiv
  3319 ;;		___awmod
  3320 ;; This function is called by:
  3321 ;;		_state_clock
  3322 ;;		_state_set_hour
  3323 ;;		_state_set_minute
  3324 ;;		_state_set_second
  3325 ;; This function uses a non-reentrant model
  3326 ;;
  3327                           
  3328                           	psect	text14
  3329  0056F4                     __ptext14:
  3330                           	opt callstack 0
  3331  0056F4                     _disp_Changed:
  3332                           	opt callstack 22
  3333  0056F4                     
  3334                           ;State_Clock.c: 4:     if(sec_changed_flag) {
  3335  0056F4  0100               	movlb	0	; () banked
  3336  0056F6  51C9               	movf	_sec_changed_flag& (0+255),w,b
  3337  0056F8  B4D8               	btfsc	status,2,c
  3338  0056FA  EF81  F02B         	goto	u4671
  3339  0056FE  EF83  F02B         	goto	u4670
  3340  005702                     u4671:
  3341  005702  EFA4  F02B         	goto	l5167
  3342  005706                     u4670:
  3343  005706                     
  3344                           ; BSR set to: 0
  3345                           ;State_Clock.c: 5:         sec_changed_flag = 0;
  3346  005706  0E00               	movlw	0
  3347  005708  6FC9               	movwf	_sec_changed_flag& (0+255),b
  3348  00570A                     
  3349                           ; BSR set to: 0
  3350                           ;State_Clock.c: 6:         LCDMoveCursor(1, 6);
  3351  00570A  0E06               	movlw	6
  3352  00570C  6E0F               	movwf	LCDMoveCursor@pos^0,c
  3353  00570E  0E01               	movlw	1
  3354  005710  ECFB  F031         	call	_LCDMoveCursor
  3355  005714                     
  3356                           ;State_Clock.c: 7:         LCDPutChar(sec/10+'0');
  3357  005714  C052  F009         	movff	_sec,___awdiv@dividend	;volatile
  3358  005718  6A0A               	clrf	(___awdiv@dividend+1)^0,c
  3359  00571A  0E00               	movlw	0
  3360  00571C  6E0C               	movwf	(___awdiv@divisor+1)^0,c
  3361  00571E  0E0A               	movlw	10
  3362  005720  6E0B               	movwf	___awdiv@divisor^0,c
  3363  005722  EC5F  F02C         	call	___awdiv	;wreg free
  3364  005726  5009               	movf	?___awdiv^0,w,c
  3365  005728  0F30               	addlw	48
  3366  00572A  EC2D  F031         	call	_LCDPutChar
  3367  00572E                     
  3368                           ;State_Clock.c: 8:         LCDPutChar(sec%10+'0');
  3369  00572E  C052  F009         	movff	_sec,___awmod@dividend	;volatile
  3370  005732  6A0A               	clrf	(___awmod@dividend+1)^0,c
  3371  005734  0E00               	movlw	0
  3372  005736  6E0C               	movwf	(___awmod@divisor+1)^0,c
  3373  005738  0E0A               	movlw	10
  3374  00573A  6E0B               	movwf	___awmod@divisor^0,c
  3375  00573C  ECE0  F02E         	call	___awmod	;wreg free
  3376  005740  5009               	movf	?___awmod^0,w,c
  3377  005742  0F30               	addlw	48
  3378  005744  EC2D  F031         	call	_LCDPutChar
  3379  005748                     l5167:
  3380                           
  3381                           ;State_Clock.c: 10:     if(min_changed_flag) {
  3382  005748  0100               	movlb	0	; () banked
  3383  00574A  51C8               	movf	_min_changed_flag& (0+255),w,b
  3384  00574C  B4D8               	btfsc	status,2,c
  3385  00574E  EFAB  F02B         	goto	u4681
  3386  005752  EFAD  F02B         	goto	u4680
  3387  005756                     u4681:
  3388  005756  EFCE  F02B         	goto	l5177
  3389  00575A                     u4680:
  3390  00575A                     
  3391                           ; BSR set to: 0
  3392                           ;State_Clock.c: 11:         min_changed_flag = 0;
  3393  00575A  0E00               	movlw	0
  3394  00575C  6FC8               	movwf	_min_changed_flag& (0+255),b
  3395  00575E                     
  3396                           ; BSR set to: 0
  3397                           ;State_Clock.c: 12:         LCDMoveCursor(1, 3);
  3398  00575E  0E03               	movlw	3
  3399  005760  6E0F               	movwf	LCDMoveCursor@pos^0,c
  3400  005762  0E01               	movlw	1
  3401  005764  ECFB  F031         	call	_LCDMoveCursor
  3402  005768                     
  3403                           ;State_Clock.c: 13:         LCDPutChar(min/10+'0');
  3404  005768  C053  F009         	movff	_min,___awdiv@dividend	;volatile
  3405  00576C  6A0A               	clrf	(___awdiv@dividend+1)^0,c
  3406  00576E  0E00               	movlw	0
  3407  005770  6E0C               	movwf	(___awdiv@divisor+1)^0,c
  3408  005772  0E0A               	movlw	10
  3409  005774  6E0B               	movwf	___awdiv@divisor^0,c
  3410  005776  EC5F  F02C         	call	___awdiv	;wreg free
  3411  00577A  5009               	movf	?___awdiv^0,w,c
  3412  00577C  0F30               	addlw	48
  3413  00577E  EC2D  F031         	call	_LCDPutChar
  3414  005782                     
  3415                           ;State_Clock.c: 14:         LCDPutChar(min%10+'0');
  3416  005782  C053  F009         	movff	_min,___awmod@dividend	;volatile
  3417  005786  6A0A               	clrf	(___awmod@dividend+1)^0,c
  3418  005788  0E00               	movlw	0
  3419  00578A  6E0C               	movwf	(___awmod@divisor+1)^0,c
  3420  00578C  0E0A               	movlw	10
  3421  00578E  6E0B               	movwf	___awmod@divisor^0,c
  3422  005790  ECE0  F02E         	call	___awmod	;wreg free
  3423  005794  5009               	movf	?___awmod^0,w,c
  3424  005796  0F30               	addlw	48
  3425  005798  EC2D  F031         	call	_LCDPutChar
  3426  00579C                     l5177:
  3427                           
  3428                           ;State_Clock.c: 16:     if(hr_changed_flag) {
  3429  00579C  0100               	movlb	0	; () banked
  3430  00579E  51C7               	movf	_hr_changed_flag& (0+255),w,b
  3431  0057A0  B4D8               	btfsc	status,2,c
  3432  0057A2  EFD5  F02B         	goto	u4691
  3433  0057A6  EFD7  F02B         	goto	u4690
  3434  0057AA                     u4691:
  3435  0057AA  EFF8  F02B         	goto	l468
  3436  0057AE                     u4690:
  3437  0057AE                     
  3438                           ; BSR set to: 0
  3439                           ;State_Clock.c: 17:         hr_changed_flag = 0;
  3440  0057AE  0E00               	movlw	0
  3441  0057B0  6FC7               	movwf	_hr_changed_flag& (0+255),b
  3442  0057B2                     
  3443                           ; BSR set to: 0
  3444                           ;State_Clock.c: 18:         LCDMoveCursor(1, 0);
  3445  0057B2  0E00               	movlw	0
  3446  0057B4  6E0F               	movwf	LCDMoveCursor@pos^0,c
  3447  0057B6  0E01               	movlw	1
  3448  0057B8  ECFB  F031         	call	_LCDMoveCursor
  3449  0057BC                     
  3450                           ;State_Clock.c: 19:         LCDPutChar(hr/10+'0');
  3451  0057BC  C054  F009         	movff	_hr,___awdiv@dividend	;volatile
  3452  0057C0  6A0A               	clrf	(___awdiv@dividend+1)^0,c
  3453  0057C2  0E00               	movlw	0
  3454  0057C4  6E0C               	movwf	(___awdiv@divisor+1)^0,c
  3455  0057C6  0E0A               	movlw	10
  3456  0057C8  6E0B               	movwf	___awdiv@divisor^0,c
  3457  0057CA  EC5F  F02C         	call	___awdiv	;wreg free
  3458  0057CE  5009               	movf	?___awdiv^0,w,c
  3459  0057D0  0F30               	addlw	48
  3460  0057D2  EC2D  F031         	call	_LCDPutChar
  3461  0057D6                     
  3462                           ;State_Clock.c: 20:         LCDPutChar(hr%10+'0');
  3463  0057D6  C054  F009         	movff	_hr,___awmod@dividend	;volatile
  3464  0057DA  6A0A               	clrf	(___awmod@dividend+1)^0,c
  3465  0057DC  0E00               	movlw	0
  3466  0057DE  6E0C               	movwf	(___awmod@divisor+1)^0,c
  3467  0057E0  0E0A               	movlw	10
  3468  0057E2  6E0B               	movwf	___awmod@divisor^0,c
  3469  0057E4  ECE0  F02E         	call	___awmod	;wreg free
  3470  0057E8  5009               	movf	?___awmod^0,w,c
  3471  0057EA  0F30               	addlw	48
  3472  0057EC  EC2D  F031         	call	_LCDPutChar
  3473  0057F0                     l468:
  3474  0057F0  0012               	return		;funcret
  3475  0057F2                     __end_of_disp_Changed:
  3476                           	opt callstack 0
  3477                           
  3478 ;; *************** function ___awmod *****************
  3479 ;; Defined at:
  3480 ;;		line 7 in file "C:\Program Files (x86)\Microchip\xc8\v2.10\pic\sources\c99\common\awmod.c"
  3481 ;; Parameters:    Size  Location     Type
  3482 ;;  dividend        2    8[COMRAM] int 
  3483 ;;  divisor         2   10[COMRAM] int 
  3484 ;; Auto vars:     Size  Location     Type
  3485 ;;  sign            1   13[COMRAM] unsigned char 
  3486 ;;  counter         1   12[COMRAM] unsigned char 
  3487 ;; Return value:  Size  Location     Type
  3488 ;;                  2    8[COMRAM] int 
  3489 ;; Registers used:
  3490 ;;		wreg, status,2, status,0
  3491 ;; Tracked objects:
  3492 ;;		On entry : 0/0
  3493 ;;		On exit  : 0/0
  3494 ;;		Unchanged: 0/0
  3495 ;; Data sizes:     COMRAM   BANK0   BANK1   BANK2   BANK3   BANK4   BANK5   BANK6   BANK7   BANK8   BANK9  BANK10  BANK1
      +1  BANK12  BANK13  BANK14  BANK15
  3496 ;;      Params:         4       0       0       0       0       0       0       0       0       0       0       0       
      +0       0       0       0       0
  3497 ;;      Locals:         2       0       0       0       0       0       0       0       0       0       0       0       
      +0       0       0       0       0
  3498 ;;      Temps:          0       0       0       0       0       0       0       0       0       0       0       0       
      +0       0       0       0       0
  3499 ;;      Totals:         6       0       0       0       0       0       0       0       0       0       0       0       
      +0       0       0       0       0
  3500 ;;Total ram usage:        6 bytes
  3501 ;; Hardware stack levels used:    1
  3502 ;; Hardware stack levels required when called:    3
  3503 ;; This function calls:
  3504 ;;		Nothing
  3505 ;; This function is called by:
  3506 ;;		_disp_Changed
  3507 ;;		_disp_Clock
  3508 ;;		_disp_Changed_SW
  3509 ;;		_disp_Clock_SW
  3510 ;; This function uses a non-reentrant model
  3511 ;;
  3512                           
  3513                           	psect	text15
  3514  005DC0                     __ptext15:
  3515                           	opt callstack 0
  3516  005DC0                     ___awmod:
  3517                           	opt callstack 25
  3518  005DC0  0E00               	movlw	0
  3519  005DC2  6E0E               	movwf	___awmod@sign^0,c
  3520  005DC4  BE0A               	btfsc	(___awmod@dividend+1)^0,7,c
  3521  005DC6  EFE9  F02E         	goto	u4610
  3522  005DCA  EFE7  F02E         	goto	u4611
  3523  005DCE                     u4611:
  3524  005DCE  EFEF  F02E         	goto	l5087
  3525  005DD2                     u4610:
  3526  005DD2  6C09               	negf	___awmod@dividend^0,c
  3527  005DD4  1E0A               	comf	(___awmod@dividend+1)^0,f,c
  3528  005DD6  B0D8               	btfsc	status,0,c
  3529  005DD8  2A0A               	incf	(___awmod@dividend+1)^0,f,c
  3530  005DDA  0E01               	movlw	1
  3531  005DDC  6E0E               	movwf	___awmod@sign^0,c
  3532  005DDE                     l5087:
  3533  005DDE  BE0C               	btfsc	(___awmod@divisor+1)^0,7,c
  3534  005DE0  EFF6  F02E         	goto	u4620
  3535  005DE4  EFF4  F02E         	goto	u4621
  3536  005DE8                     u4621:
  3537  005DE8  EFFA  F02E         	goto	l5091
  3538  005DEC                     u4620:
  3539  005DEC  6C0B               	negf	___awmod@divisor^0,c
  3540  005DEE  1E0C               	comf	(___awmod@divisor+1)^0,f,c
  3541  005DF0  B0D8               	btfsc	status,0,c
  3542  005DF2  2A0C               	incf	(___awmod@divisor+1)^0,f,c
  3543  005DF4                     l5091:
  3544  005DF4  500B               	movf	___awmod@divisor^0,w,c
  3545  005DF6  100C               	iorwf	(___awmod@divisor+1)^0,w,c
  3546  005DF8  B4D8               	btfsc	status,2,c
  3547  005DFA  EF01  F02F         	goto	u4631
  3548  005DFE  EF03  F02F         	goto	u4630
  3549  005E02                     u4631:
  3550  005E02  EF27  F02F         	goto	l5107
  3551  005E06                     u4630:
  3552  005E06  0E01               	movlw	1
  3553  005E08  6E0D               	movwf	___awmod@counter^0,c
  3554  005E0A  EF0B  F02F         	goto	l5097
  3555  005E0E                     l5095:
  3556  005E0E  90D8               	bcf	status,0,c
  3557  005E10  360B               	rlcf	___awmod@divisor^0,f,c
  3558  005E12  360C               	rlcf	(___awmod@divisor+1)^0,f,c
  3559  005E14  2A0D               	incf	___awmod@counter^0,f,c
  3560  005E16                     l5097:
  3561  005E16  AE0C               	btfss	(___awmod@divisor+1)^0,7,c
  3562  005E18  EF10  F02F         	goto	u4641
  3563  005E1C  EF12  F02F         	goto	u4640
  3564  005E20                     u4641:
  3565  005E20  EF07  F02F         	goto	l5095
  3566  005E24                     u4640:
  3567  005E24                     l5099:
  3568  005E24  500B               	movf	___awmod@divisor^0,w,c
  3569  005E26  5C09               	subwf	___awmod@dividend^0,w,c
  3570  005E28  500C               	movf	(___awmod@divisor+1)^0,w,c
  3571  005E2A  580A               	subwfb	(___awmod@dividend+1)^0,w,c
  3572  005E2C  A0D8               	btfss	status,0,c
  3573  005E2E  EF1B  F02F         	goto	u4651
  3574  005E32  EF1D  F02F         	goto	u4650
  3575  005E36                     u4651:
  3576  005E36  EF21  F02F         	goto	l5103
  3577  005E3A                     u4650:
  3578  005E3A  500B               	movf	___awmod@divisor^0,w,c
  3579  005E3C  5E09               	subwf	___awmod@dividend^0,f,c
  3580  005E3E  500C               	movf	(___awmod@divisor+1)^0,w,c
  3581  005E40  5A0A               	subwfb	(___awmod@dividend+1)^0,f,c
  3582  005E42                     l5103:
  3583  005E42  90D8               	bcf	status,0,c
  3584  005E44  320C               	rrcf	(___awmod@divisor+1)^0,f,c
  3585  005E46  320B               	rrcf	___awmod@divisor^0,f,c
  3586  005E48  2E0D               	decfsz	___awmod@counter^0,f,c
  3587  005E4A  EF12  F02F         	goto	l5099
  3588  005E4E                     l5107:
  3589  005E4E  500E               	movf	___awmod@sign^0,w,c
  3590  005E50  B4D8               	btfsc	status,2,c
  3591  005E52  EF2D  F02F         	goto	u4661
  3592  005E56  EF2F  F02F         	goto	u4660
  3593  005E5A                     u4661:
  3594  005E5A  EF33  F02F         	goto	l5111
  3595  005E5E                     u4660:
  3596  005E5E  6C09               	negf	___awmod@dividend^0,c
  3597  005E60  1E0A               	comf	(___awmod@dividend+1)^0,f,c
  3598  005E62  B0D8               	btfsc	status,0,c
  3599  005E64  2A0A               	incf	(___awmod@dividend+1)^0,f,c
  3600  005E66                     l5111:
  3601  005E66  C009  F009         	movff	___awmod@dividend,?___awmod
  3602  005E6A  C00A  F00A         	movff	___awmod@dividend+1,?___awmod+1
  3603  005E6E  0012               	return		;funcret
  3604  005E70                     __end_of___awmod:
  3605                           	opt callstack 0
  3606                           
  3607 ;; *************** function _LCDPutChar *****************
  3608 ;; Defined at:
  3609 ;;		line 173 in file "SPI_LCD.c"
  3610 ;; Parameters:    Size  Location     Type
  3611 ;;  ch              1    wreg     unsigned char 
  3612 ;; Auto vars:     Size  Location     Type
  3613 ;;  ch              1   13[COMRAM] unsigned char 
  3614 ;; Return value:  Size  Location     Type
  3615 ;;                  1    wreg      void 
  3616 ;; Registers used:
  3617 ;;		wreg, status,2, status,0, cstack
  3618 ;; Tracked objects:
  3619 ;;		On entry : 0/0
  3620 ;;		On exit  : 0/0
  3621 ;;		Unchanged: 0/0
  3622 ;; Data sizes:     COMRAM   BANK0   BANK1   BANK2   BANK3   BANK4   BANK5   BANK6   BANK7   BANK8   BANK9  BANK10  BANK1
      +1  BANK12  BANK13  BANK14  BANK15
  3623 ;;      Params:         0       0       0       0       0       0       0       0       0       0       0       0       
      +0       0       0       0       0
  3624 ;;      Locals:         1       0       0       0       0       0       0       0       0       0       0       0       
      +0       0       0       0       0
  3625 ;;      Temps:          0       0       0       0       0       0       0       0       0       0       0       0       
      +0       0       0       0       0
  3626 ;;      Totals:         1       0       0       0       0       0       0       0       0       0       0       0       
      +0       0       0       0       0
  3627 ;;Total ram usage:        1 bytes
  3628 ;; Hardware stack levels used:    1
  3629 ;; Hardware stack levels required when called:    5
  3630 ;; This function calls:
  3631 ;;		_WritePort_BBSPI
  3632 ;; This function is called by:
  3633 ;;		_LCDPutStr
  3634 ;;		_disp_Changed
  3635 ;;		_disp_Clock
  3636 ;;		_disp_Changed_SW
  3637 ;;		_disp_Clock_SW
  3638 ;; This function uses a non-reentrant model
  3639 ;;
  3640                           
  3641                           	psect	text16
  3642  00625A                     __ptext16:
  3643                           	opt callstack 0
  3644  00625A                     _LCDPutChar:
  3645                           	opt callstack 23
  3646                           
  3647                           ;incstack = 0
  3648                           ;LCDPutChar@ch stored from wreg
  3649  00625A  6E0E               	movwf	LCDPutChar@ch^0,c
  3650  00625C                     
  3651                           ;SPI_LCD.c: 173: void LCDPutChar (unsigned char ch);SPI_LCD.c: 174: {;SPI_LCD.c: 175:   
      +                            _delay((unsigned long)((100)*(8000000/4000000.0)));
  3652  00625C  0E42               	movlw	66
  3653  00625E                     u6187:
  3654  00625E  2EE8               	decfsz	wreg,f,c
  3655  006260  D7FE               	bra	u6187
  3656  006262  D000               	nop2	
  3657  006264                     
  3658                           ;SPI_LCD.c: 176:     WritePort_BBSPI (0x12, 0x80);
  3659  006264  0E80               	movlw	128
  3660  006266  6E0C               	movwf	WritePort_BBSPI@a^0,c
  3661  006268  0E12               	movlw	18
  3662  00626A  EC7E  F032         	call	_WritePort_BBSPI
  3663  00626E                     
  3664                           ;SPI_LCD.c: 177:     _delay((unsigned long)((10)*(8000000/4000000.0)));
  3665  00626E  0E06               	movlw	6
  3666  006270                     u6197:
  3667  006270  2EE8               	decfsz	wreg,f,c
  3668  006272  D7FE               	bra	u6197
  3669  006274  D000               	nop2	
  3670  006276                     
  3671                           ;SPI_LCD.c: 178:     WritePort_BBSPI (0x13, ch);
  3672  006276  C00E  F00C         	movff	LCDPutChar@ch,WritePort_BBSPI@a
  3673  00627A  0E13               	movlw	19
  3674  00627C  EC7E  F032         	call	_WritePort_BBSPI
  3675  006280                     
  3676                           ;SPI_LCD.c: 179:     _delay((unsigned long)((10)*(8000000/4000000.0)));
  3677  006280  0E06               	movlw	6
  3678  006282                     u6207:
  3679  006282  2EE8               	decfsz	wreg,f,c
  3680  006284  D7FE               	bra	u6207
  3681  006286  D000               	nop2	
  3682  006288                     
  3683                           ;SPI_LCD.c: 180:     WritePort_BBSPI (0x12, 0xC0);
  3684  006288  0EC0               	movlw	192
  3685  00628A  6E0C               	movwf	WritePort_BBSPI@a^0,c
  3686  00628C  0E12               	movlw	18
  3687  00628E  EC7E  F032         	call	_WritePort_BBSPI
  3688  006292                     
  3689                           ;SPI_LCD.c: 181:     _delay((unsigned long)((10)*(8000000/4000000.0)));
  3690  006292  0E06               	movlw	6
  3691  006294                     u6217:
  3692  006294  2EE8               	decfsz	wreg,f,c
  3693  006296  D7FE               	bra	u6217
  3694  006298  D000               	nop2	
  3695  00629A                     
  3696                           ;SPI_LCD.c: 182:     WritePort_BBSPI (0x12, 0x00);
  3697  00629A  0E00               	movlw	0
  3698  00629C  6E0C               	movwf	WritePort_BBSPI@a^0,c
  3699  00629E  0E12               	movlw	18
  3700  0062A0  EC7E  F032         	call	_WritePort_BBSPI
  3701  0062A4  0012               	return		;funcret
  3702  0062A6                     __end_of_LCDPutChar:
  3703                           	opt callstack 0
  3704                           
  3705 ;; *************** function _LCDMoveCursor *****************
  3706 ;; Defined at:
  3707 ;;		line 228 in file "SPI_LCD.c"
  3708 ;; Parameters:    Size  Location     Type
  3709 ;;  line            1    wreg     unsigned char 
  3710 ;;  pos             1   14[COMRAM] unsigned char 
  3711 ;; Auto vars:     Size  Location     Type
  3712 ;;  line            1   15[COMRAM] unsigned char 
  3713 ;;  position        1   18[COMRAM] unsigned char 
  3714 ;; Return value:  Size  Location     Type
  3715 ;;                  1    wreg      void 
  3716 ;; Registers used:
  3717 ;;		wreg, status,2, status,0, cstack
  3718 ;; Tracked objects:
  3719 ;;		On entry : 0/0
  3720 ;;		On exit  : 0/0
  3721 ;;		Unchanged: 0/0
  3722 ;; Data sizes:     COMRAM   BANK0   BANK1   BANK2   BANK3   BANK4   BANK5   BANK6   BANK7   BANK8   BANK9  BANK10  BANK1
      +1  BANK12  BANK13  BANK14  BANK15
  3723 ;;      Params:         1       0       0       0       0       0       0       0       0       0       0       0       
      +0       0       0       0       0
  3724 ;;      Locals:         4       0       0       0       0       0       0       0       0       0       0       0       
      +0       0       0       0       0
  3725 ;;      Temps:          0       0       0       0       0       0       0       0       0       0       0       0       
      +0       0       0       0       0
  3726 ;;      Totals:         5       0       0       0       0       0       0       0       0       0       0       0       
      +0       0       0       0       0
  3727 ;;Total ram usage:        5 bytes
  3728 ;; Hardware stack levels used:    1
  3729 ;; Hardware stack levels required when called:    6
  3730 ;; This function calls:
  3731 ;;		_LCDPutInst
  3732 ;; This function is called by:
  3733 ;;		_LCDPrint
  3734 ;;		_disp_Changed
  3735 ;;		_disp_Changed_SW
  3736 ;; This function uses a non-reentrant model
  3737 ;;
  3738                           
  3739                           	psect	text17
  3740  0063F6                     __ptext17:
  3741                           	opt callstack 0
  3742  0063F6                     _LCDMoveCursor:
  3743                           	opt callstack 22
  3744                           
  3745                           ;incstack = 0
  3746                           ;LCDMoveCursor@line stored from wreg
  3747  0063F6  6E10               	movwf	LCDMoveCursor@line^0,c
  3748  0063F8                     
  3749                           ;SPI_LCD.c: 229:     unsigned char position = (line == 0) ? (128 + pos) : (192 + pos);
  3750  0063F8  5010               	movf	LCDMoveCursor@line^0,w,c
  3751  0063FA  B4D8               	btfsc	status,2,c
  3752  0063FC  EF02  F032         	goto	u4441
  3753  006400  EF04  F032         	goto	u4440
  3754  006404                     u4441:
  3755  006404  EF0C  F032         	goto	l4951
  3756  006408                     u4440:
  3757  006408  0EC0               	movlw	192
  3758  00640A  240F               	addwf	LCDMoveCursor@pos^0,w,c
  3759  00640C  6E11               	movwf	_LCDMoveCursor$673^0,c
  3760  00640E  6A12               	clrf	(_LCDMoveCursor$673+1)^0,c
  3761  006410  0E00               	movlw	0
  3762  006412  2212               	addwfc	(_LCDMoveCursor$673+1)^0,f,c
  3763  006414  EF12  F032         	goto	l4953
  3764  006418                     l4951:
  3765  006418  0E80               	movlw	128
  3766  00641A  240F               	addwf	LCDMoveCursor@pos^0,w,c
  3767  00641C  6E11               	movwf	_LCDMoveCursor$673^0,c
  3768  00641E  6A12               	clrf	(_LCDMoveCursor$673+1)^0,c
  3769  006420  0E00               	movlw	0
  3770  006422  2212               	addwfc	(_LCDMoveCursor$673+1)^0,f,c
  3771  006424                     l4953:
  3772  006424  C011  F013         	movff	_LCDMoveCursor$673,LCDMoveCursor@position
  3773  006428                     
  3774                           ;SPI_LCD.c: 230:     LCDPutInst(position);
  3775  006428  5013               	movf	LCDMoveCursor@position^0,w,c
  3776  00642A  EC53  F031         	call	_LCDPutInst
  3777  00642E  0012               	return		;funcret
  3778  006430                     __end_of_LCDMoveCursor:
  3779                           	opt callstack 0
  3780                           
  3781 ;; *************** function ___lwmod *****************
  3782 ;; Defined at:
  3783 ;;		line 7 in file "C:\Program Files (x86)\Microchip\xc8\v2.10\pic\sources\c99\common\lwmod.c"
  3784 ;; Parameters:    Size  Location     Type
  3785 ;;  dividend        2    8[COMRAM] unsigned int 
  3786 ;;  divisor         2   10[COMRAM] unsigned int 
  3787 ;; Auto vars:     Size  Location     Type
  3788 ;;  counter         1   12[COMRAM] unsigned char 
  3789 ;; Return value:  Size  Location     Type
  3790 ;;                  2    8[COMRAM] unsigned int 
  3791 ;; Registers used:
  3792 ;;		wreg, status,2, status,0
  3793 ;; Tracked objects:
  3794 ;;		On entry : 0/0
  3795 ;;		On exit  : 0/0
  3796 ;;		Unchanged: 0/0
  3797 ;; Data sizes:     COMRAM   BANK0   BANK1   BANK2   BANK3   BANK4   BANK5   BANK6   BANK7   BANK8   BANK9  BANK10  BANK1
      +1  BANK12  BANK13  BANK14  BANK15
  3798 ;;      Params:         4       0       0       0       0       0       0       0       0       0       0       0       
      +0       0       0       0       0
  3799 ;;      Locals:         1       0       0       0       0       0       0       0       0       0       0       0       
      +0       0       0       0       0
  3800 ;;      Temps:          0       0       0       0       0       0       0       0       0       0       0       0       
      +0       0       0       0       0
  3801 ;;      Totals:         5       0       0       0       0       0       0       0       0       0       0       0       
      +0       0       0       0       0
  3802 ;;Total ram usage:        5 bytes
  3803 ;; Hardware stack levels used:    1
  3804 ;; Hardware stack levels required when called:    3
  3805 ;; This function calls:
  3806 ;;		Nothing
  3807 ;; This function is called by:
  3808 ;;		_main
  3809 ;; This function uses a non-reentrant model
  3810 ;;
  3811                           
  3812                           	psect	text18
  3813  005FF0                     __ptext18:
  3814                           	opt callstack 0
  3815  005FF0                     ___lwmod:
  3816                           	opt callstack 27
  3817  005FF0  500B               	movf	___lwmod@divisor^0,w,c
  3818  005FF2  100C               	iorwf	(___lwmod@divisor+1)^0,w,c
  3819  005FF4  B4D8               	btfsc	status,2,c
  3820  005FF6  EFFF  F02F         	goto	u5201
  3821  005FFA  EF01  F030         	goto	u5200
  3822  005FFE                     u5201:
  3823  005FFE  EF25  F030         	goto	l1272
  3824  006002                     u5200:
  3825  006002  0E01               	movlw	1
  3826  006004  6E0D               	movwf	___lwmod@counter^0,c
  3827  006006  EF09  F030         	goto	l5629
  3828  00600A                     l5627:
  3829  00600A  90D8               	bcf	status,0,c
  3830  00600C  360B               	rlcf	___lwmod@divisor^0,f,c
  3831  00600E  360C               	rlcf	(___lwmod@divisor+1)^0,f,c
  3832  006010  2A0D               	incf	___lwmod@counter^0,f,c
  3833  006012                     l5629:
  3834  006012  AE0C               	btfss	(___lwmod@divisor+1)^0,7,c
  3835  006014  EF0E  F030         	goto	u5211
  3836  006018  EF10  F030         	goto	u5210
  3837  00601C                     u5211:
  3838  00601C  EF05  F030         	goto	l5627
  3839  006020                     u5210:
  3840  006020                     l5631:
  3841  006020  500B               	movf	___lwmod@divisor^0,w,c
  3842  006022  5C09               	subwf	___lwmod@dividend^0,w,c
  3843  006024  500C               	movf	(___lwmod@divisor+1)^0,w,c
  3844  006026  580A               	subwfb	(___lwmod@dividend+1)^0,w,c
  3845  006028  A0D8               	btfss	status,0,c
  3846  00602A  EF19  F030         	goto	u5221
  3847  00602E  EF1B  F030         	goto	u5220
  3848  006032                     u5221:
  3849  006032  EF1F  F030         	goto	l5635
  3850  006036                     u5220:
  3851  006036  500B               	movf	___lwmod@divisor^0,w,c
  3852  006038  5E09               	subwf	___lwmod@dividend^0,f,c
  3853  00603A  500C               	movf	(___lwmod@divisor+1)^0,w,c
  3854  00603C  5A0A               	subwfb	(___lwmod@dividend+1)^0,f,c
  3855  00603E                     l5635:
  3856  00603E  90D8               	bcf	status,0,c
  3857  006040  320C               	rrcf	(___lwmod@divisor+1)^0,f,c
  3858  006042  320B               	rrcf	___lwmod@divisor^0,f,c
  3859  006044  2E0D               	decfsz	___lwmod@counter^0,f,c
  3860  006046  EF10  F030         	goto	l5631
  3861  00604A                     l1272:
  3862  00604A  C009  F009         	movff	___lwmod@dividend,?___lwmod
  3863  00604E  C00A  F00A         	movff	___lwmod@dividend+1,?___lwmod+1
  3864  006052  0012               	return		;funcret
  3865  006054                     __end_of___lwmod:
  3866                           	opt callstack 0
  3867                           
  3868 ;; *************** function _SYSTEM_Initialize *****************
  3869 ;; Defined at:
  3870 ;;		line 3 in file "mcc.c"
  3871 ;; Parameters:    Size  Location     Type
  3872 ;;		None
  3873 ;; Auto vars:     Size  Location     Type
  3874 ;;		None
  3875 ;; Return value:  Size  Location     Type
  3876 ;;                  1    wreg      void 
  3877 ;; Registers used:
  3878 ;;		wreg, status,2, status,0, tblptrl, tblptrh, tblptru, prodl, prodh, cstack
  3879 ;; Tracked objects:
  3880 ;;		On entry : 0/0
  3881 ;;		On exit  : 0/0
  3882 ;;		Unchanged: 0/0
  3883 ;; Data sizes:     COMRAM   BANK0   BANK1   BANK2   BANK3   BANK4   BANK5   BANK6   BANK7   BANK8   BANK9  BANK10  BANK1
      +1  BANK12  BANK13  BANK14  BANK15
  3884 ;;      Params:         0       0       0       0       0       0       0       0       0       0       0       0       
      +0       0       0       0       0
  3885 ;;      Locals:         0       0       0       0       0       0       0       0       0       0       0       0       
      +0       0       0       0       0
  3886 ;;      Temps:          0       0       0       0       0       0       0       0       0       0       0       0       
      +0       0       0       0       0
  3887 ;;      Totals:         0       0       0       0       0       0       0       0       0       0       0       0       
      +0       0       0       0       0
  3888 ;;Total ram usage:        0 bytes
  3889 ;; Hardware stack levels used:    1
  3890 ;; Hardware stack levels required when called:    8
  3891 ;; This function calls:
  3892 ;;		_LCDInit
  3893 ;;		_interrupt_init
  3894 ;;		_osc_init
  3895 ;;		_pin_init
  3896 ;;		_timer0_init
  3897 ;; This function is called by:
  3898 ;;		_main
  3899 ;; This function uses a non-reentrant model
  3900 ;;
  3901                           
  3902                           	psect	text19
  3903  006516                     __ptext19:
  3904                           	opt callstack 0
  3905  006516                     _SYSTEM_Initialize:
  3906                           	opt callstack 22
  3907  006516                     
  3908                           ;mcc.c: 5:     osc_init();
  3909  006516  ECAB  F032         	call	_osc_init	;wreg free
  3910                           
  3911                           ;mcc.c: 6:     pin_init();
  3912  00651A  EC4E  F032         	call	_pin_init	;wreg free
  3913  00651E                     
  3914                           ;mcc.c: 7:     interrupt_init();
  3915  00651E  ECA6  F032         	call	_interrupt_init	;wreg free
  3916  006522                     
  3917                           ;mcc.c: 8:     timer0_init();
  3918  006522  EC9F  F032         	call	_timer0_init	;wreg free
  3919  006526                     
  3920                           ;mcc.c: 9:     LCDInit();
  3921  006526  EC5C  F030         	call	_LCDInit	;wreg free
  3922  00652A  0012               	return		;funcret
  3923  00652C                     __end_of_SYSTEM_Initialize:
  3924                           	opt callstack 0
  3925                           
  3926 ;; *************** function _timer0_init *****************
  3927 ;; Defined at:
  3928 ;;		line 19 in file "timer0_manager.c"
  3929 ;; Parameters:    Size  Location     Type
  3930 ;;		None
  3931 ;; Auto vars:     Size  Location     Type
  3932 ;;		None
  3933 ;; Return value:  Size  Location     Type
  3934 ;;                  1    wreg      void 
  3935 ;; Registers used:
  3936 ;;		wreg, status,2, status,0, tblptrl, tblptrh, tblptru, prodl, prodh, cstack
  3937 ;; Tracked objects:
  3938 ;;		On entry : 0/0
  3939 ;;		On exit  : 0/0
  3940 ;;		Unchanged: 0/0
  3941 ;; Data sizes:     COMRAM   BANK0   BANK1   BANK2   BANK3   BANK4   BANK5   BANK6   BANK7   BANK8   BANK9  BANK10  BANK1
      +1  BANK12  BANK13  BANK14  BANK15
  3942 ;;      Params:         0       0       0       0       0       0       0       0       0       0       0       0       
      +0       0       0       0       0
  3943 ;;      Locals:         0       0       0       0       0       0       0       0       0       0       0       0       
      +0       0       0       0       0
  3944 ;;      Temps:          0       0       0       0       0       0       0       0       0       0       0       0       
      +0       0       0       0       0
  3945 ;;      Totals:         0       0       0       0       0       0       0       0       0       0       0       0       
      +0       0       0       0       0
  3946 ;;Total ram usage:        0 bytes
  3947 ;; Hardware stack levels used:    1
  3948 ;; Hardware stack levels required when called:    7
  3949 ;; This function calls:
  3950 ;;		_preCalculate
  3951 ;; This function is called by:
  3952 ;;		_SYSTEM_Initialize
  3953 ;; This function uses a non-reentrant model
  3954 ;;
  3955                           
  3956                           	psect	text20
  3957  00653E                     __ptext20:
  3958                           	opt callstack 0
  3959  00653E                     _timer0_init:
  3960                           	opt callstack 22
  3961  00653E                     
  3962                           ;timer0_manager.c: 20:     preCalculate();
  3963  00653E  ECF9  F02B         	call	_preCalculate	;wreg free
  3964  006542                     
  3965                           ;timer0_manager.c: 21:     TMR0L = counter_low;
  3966  006542  C0D0  FFD6         	movff	_counter_low,4054	;volatile
  3967  006546                     
  3968                           ;timer0_manager.c: 22:     TMR0H = counter_high;
  3969  006546  C0CF  FFD7         	movff	_counter_high,4055	;volatile
  3970  00654A  0012               	return		;funcret
  3971  00654C                     __end_of_timer0_init:
  3972                           	opt callstack 0
  3973                           
  3974 ;; *************** function _preCalculate *****************
  3975 ;; Defined at:
  3976 ;;		line 5 in file "timer0_manager.c"
  3977 ;; Parameters:    Size  Location     Type
  3978 ;;		None
  3979 ;; Auto vars:     Size  Location     Type
  3980 ;;  temp            2   73[BANK0 ] unsigned int 
  3981 ;;  count_scaled    2   75[BANK0 ] int 
  3982 ;;  count           2   71[BANK0 ] int 
  3983 ;; Return value:  Size  Location     Type
  3984 ;;                  1    wreg      void 
  3985 ;; Registers used:
  3986 ;;		wreg, status,2, status,0, tblptrl, tblptrh, tblptru, prodl, prodh, cstack
  3987 ;; Tracked objects:
  3988 ;;		On entry : 0/0
  3989 ;;		On exit  : 0/0
  3990 ;;		Unchanged: 0/0
  3991 ;; Data sizes:     COMRAM   BANK0   BANK1   BANK2   BANK3   BANK4   BANK5   BANK6   BANK7   BANK8   BANK9  BANK10  BANK1
      +1  BANK12  BANK13  BANK14  BANK15
  3992 ;;      Params:         0       0       0       0       0       0       0       0       0       0       0       0       
      +0       0       0       0       0
  3993 ;;      Locals:         0      10       0       0       0       0       0       0       0       0       0       0       
      +0       0       0       0       0
  3994 ;;      Temps:          0       0       0       0       0       0       0       0       0       0       0       0       
      +0       0       0       0       0
  3995 ;;      Totals:         0      10       0       0       0       0       0       0       0       0       0       0       
      +0       0       0       0       0
  3996 ;;Total ram usage:       10 bytes
  3997 ;; Hardware stack levels used:    1
  3998 ;; Hardware stack levels required when called:    6
  3999 ;; This function calls:
  4000 ;;		___awdiv
  4001 ;;		___flmul
  4002 ;;		___fltol
  4003 ;;		_powf
  4004 ;; This function is called by:
  4005 ;;		_timer0_init
  4006 ;; This function uses a non-reentrant model
  4007 ;;
  4008                           
  4009                           	psect	text21
  4010  0057F2                     __ptext21:
  4011                           	opt callstack 0
  4012  0057F2                     _preCalculate:
  4013                           	opt callstack 22
  4014  0057F2                     
  4015                           ;timer0_manager.c: 6:     T0CON = 0b11000100;
  4016  0057F2  0EC4               	movlw	196
  4017  0057F4  6ED5               	movwf	213,c	;volatile
  4018  0057F6                     
  4019                           ;timer0_manager.c: 7:     int count = 10 * 2 * powf(10,3);
  4020  0057F6  0E00               	movlw	0
  4021  0057F8  0100               	movlb	0	; () banked
  4022  0057FA  6F8C               	movwf	powf@y& (0+255),b
  4023  0057FC  0E00               	movlw	0
  4024  0057FE  6F8D               	movwf	(powf@y+1)& (0+255),b
  4025  005800  0E40               	movlw	64
  4026  005802  6F8E               	movwf	(powf@y+2)& (0+255),b
  4027  005804  0E40               	movlw	64
  4028  005806  6F8F               	movwf	(powf@y+3)& (0+255),b
  4029  005808  0E00               	movlw	0
  4030  00580A  6F88               	movwf	powf@x& (0+255),b
  4031  00580C  0E00               	movlw	0
  4032  00580E  6F89               	movwf	(powf@x+1)& (0+255),b
  4033  005810  0E20               	movlw	32
  4034  005812  6F8A               	movwf	(powf@x+2)& (0+255),b
  4035  005814  0E41               	movlw	65
  4036  005816  6F8B               	movwf	(powf@x+3)& (0+255),b
  4037  005818  EC6E  F008         	call	_powf	;wreg free
  4038  00581C  C088  F0A3         	movff	?_powf,_preCalculate$1821
  4039  005820  C089  F0A4         	movff	?_powf+1,_preCalculate$1821+1
  4040  005824  C08A  F0A5         	movff	?_powf+2,_preCalculate$1821+2
  4041  005828  C08B  F0A6         	movff	?_powf+3,_preCalculate$1821+3
  4042  00582C                     
  4043                           ;timer0_manager.c: 7:     int count = 10 * 2 * powf(10,3);
  4044  00582C  0E00               	movlw	0
  4045  00582E  6E1D               	movwf	___flmul@a^0,c
  4046  005830  0E00               	movlw	0
  4047  005832  6E1E               	movwf	(___flmul@a+1)^0,c
  4048  005834  0EA0               	movlw	160
  4049  005836  6E1F               	movwf	(___flmul@a+2)^0,c
  4050  005838  0E41               	movlw	65
  4051  00583A  6E20               	movwf	(___flmul@a+3)^0,c
  4052  00583C  C0A3  F019         	movff	_preCalculate$1821,___flmul@b
  4053  005840  C0A4  F01A         	movff	_preCalculate$1821+1,___flmul@b+1
  4054  005844  C0A5  F01B         	movff	_preCalculate$1821+2,___flmul@b+2
  4055  005848  C0A6  F01C         	movff	_preCalculate$1821+3,___flmul@b+3
  4056  00584C  EC47  F022         	call	___flmul	;wreg free
  4057  005850  C019  F099         	movff	?___flmul,___fltol@f1
  4058  005854  C01A  F09A         	movff	?___flmul+1,___fltol@f1+1
  4059  005858  C01B  F09B         	movff	?___flmul+2,___fltol@f1+2
  4060  00585C  C01C  F09C         	movff	?___flmul+3,___fltol@f1+3
  4061  005860  ECF5  F029         	call	___fltol	;wreg free
  4062  005864  C099  F0A7         	movff	?___fltol,preCalculate@count
  4063  005868  C09A  F0A8         	movff	?___fltol+1,preCalculate@count+1
  4064  00586C                     
  4065                           ;timer0_manager.c: 8:     int count_scaled = count / 32;
  4066  00586C  C0A7  F009         	movff	preCalculate@count,___awdiv@dividend
  4067  005870  C0A8  F00A         	movff	preCalculate@count+1,___awdiv@dividend+1
  4068  005874  0E00               	movlw	0
  4069  005876  6E0C               	movwf	(___awdiv@divisor+1)^0,c
  4070  005878  0E20               	movlw	32
  4071  00587A  6E0B               	movwf	___awdiv@divisor^0,c
  4072  00587C  EC5F  F02C         	call	___awdiv	;wreg free
  4073  005880  C009  F0AB         	movff	?___awdiv,preCalculate@count_scaled
  4074  005884  C00A  F0AC         	movff	?___awdiv+1,preCalculate@count_scaled+1
  4075  005888                     
  4076                           ;timer0_manager.c: 9:     if(count_scaled < 256) {
  4077  005888  0100               	movlb	0	; () banked
  4078  00588A  BFAC               	btfsc	(preCalculate@count_scaled+1)& (0+255),7,b
  4079  00588C  EF50  F02C         	goto	u6160
  4080  005890  05AC               	decf	(preCalculate@count_scaled+1)& (0+255),w,b
  4081  005892  B0D8               	btfsc	status,0,c
  4082  005894  EF4E  F02C         	goto	u6161
  4083  005898  EF50  F02C         	goto	u6160
  4084  00589C                     u6161:
  4085  00589C  EF55  F02C         	goto	l168
  4086  0058A0                     u6160:
  4087  0058A0                     
  4088                           ; BSR set to: 0
  4089                           ;timer0_manager.c: 10:         counter_low = 255 - count_scaled;
  4090  0058A0  51AB               	movf	preCalculate@count_scaled& (0+255),w,b
  4091  0058A2  0AFF               	xorlw	255
  4092  0058A4  6FD0               	movwf	_counter_low& (0+255),b
  4093                           
  4094                           ;timer0_manager.c: 11:     } else {
  4095  0058A6  EF5E  F02C         	goto	l170
  4096  0058AA                     l168:
  4097                           
  4098                           ; BSR set to: 0
  4099                           ;timer0_manager.c: 12:         T0CONbits.T08BIT = 0;
  4100  0058AA  9CD5               	bcf	213,6,c	;volatile
  4101  0058AC                     
  4102                           ; BSR set to: 0
  4103                           ;timer0_manager.c: 13:         unsigned int temp = 65535 - count_scaled;
  4104  0058AC  1DAB               	comf	preCalculate@count_scaled& (0+255),w,b
  4105  0058AE  6FA9               	movwf	preCalculate@temp& (0+255),b
  4106  0058B0  1DAC               	comf	(preCalculate@count_scaled+1)& (0+255),w,b
  4107  0058B2  6FAA               	movwf	(preCalculate@temp+1)& (0+255),b
  4108  0058B4                     
  4109                           ; BSR set to: 0
  4110                           ;timer0_manager.c: 14:         counter_low = (unsigned short int)temp;
  4111  0058B4  C0A9  F0D0         	movff	preCalculate@temp,_counter_low
  4112  0058B8                     
  4113                           ; BSR set to: 0
  4114                           ;timer0_manager.c: 15:         counter_high = (unsigned short int)(temp >> 8);
  4115  0058B8  51AA               	movf	(preCalculate@temp+1)& (0+255),w,b
  4116  0058BA  6FCF               	movwf	_counter_high& (0+255),b
  4117  0058BC                     l170:
  4118                           
  4119                           ; BSR set to: 0
  4120  0058BC  0012               	return		;funcret
  4121  0058BE                     __end_of_preCalculate:
  4122                           	opt callstack 0
  4123                           
  4124 ;; *************** function _powf *****************
  4125 ;; Defined at:
  4126 ;;		line 52 in file "C:\Program Files (x86)\Microchip\xc8\v2.10\pic\sources\c99\common\powf.c"
  4127 ;; Parameters:    Size  Location     Type
  4128 ;;  x               4   40[BANK0 ] float 
  4129 ;;  y               4   44[BANK0 ] float 
  4130 ;; Auto vars:     Size  Location     Type
  4131 ;;  s2              4  140[BANK1 ] float 
  4132 ;;  s_h             4  108[BANK1 ] float 
  4133 ;;  t_h             4  104[BANK1 ] float 
  4134 ;;  t_l             4   52[BANK1 ] float 
  4135 ;;  s_l             4   48[BANK1 ] float 
  4136 ;;  __xc8_float_    4  184[BANK1 ] struct .
  4137 ;;  z               4  180[BANK1 ] float 
  4138 ;;  t               4  176[BANK1 ] float 
  4139 ;;  j               4  172[BANK1 ] long 
  4140 ;;  ix              4  168[BANK1 ] long 
  4141 ;;  k               4  160[BANK1 ] long 
  4142 ;;  p_h             4  156[BANK1 ] float 
  4143 ;;  is              4  148[BANK1 ] long 
  4144 ;;  iy              4  144[BANK1 ] long 
  4145 ;;  sn              4  136[BANK1 ] float 
  4146 ;;  t1              4  132[BANK1 ] float 
  4147 ;;  n               4  128[BANK1 ] long 
  4148 ;;  hy              4  124[BANK1 ] long 
  4149 ;;  v               4  120[BANK1 ] float 
  4150 ;;  u               4  116[BANK1 ] float 
  4151 ;;  ax              4  112[BANK1 ] float 
  4152 ;;  p_l             4  100[BANK1 ] float 
  4153 ;;  hx              4   96[BANK1 ] long 
  4154 ;;  s               4   92[BANK1 ] float 
  4155 ;;  yisint          4   80[BANK1 ] long 
  4156 ;;  r               4   76[BANK1 ] float 
  4157 ;;  w               4   68[BANK1 ] float 
  4158 ;;  i               4   44[BANK1 ] long 
  4159 ;;  y1              4   40[BANK1 ] float 
  4160 ;;  z_l             4   36[BANK1 ] float 
  4161 ;;  z_h             4   32[BANK1 ] float 
  4162 ;;  t2              4   28[BANK1 ] float 
  4163 ;; Return value:  Size  Location     Type
  4164 ;;                  4   40[BANK0 ] float 
  4165 ;; Registers used:
  4166 ;;		wreg, status,2, status,0, tblptrl, tblptrh, tblptru, prodl, prodh, cstack
  4167 ;; Tracked objects:
  4168 ;;		On entry : 0/0
  4169 ;;		On exit  : 0/0
  4170 ;;		Unchanged: 0/0
  4171 ;; Data sizes:     COMRAM   BANK0   BANK1   BANK2   BANK3   BANK4   BANK5   BANK6   BANK7   BANK8   BANK9  BANK10  BANK1
      +1  BANK12  BANK13  BANK14  BANK15
  4172 ;;      Params:         0       8       0       0       0       0       0       0       0       0       0       0       
      +0       0       0       0       0
  4173 ;;      Locals:         0       0     188       0       0       0       0       0       0       0       0       0       
      +0       0       0       0       0
  4174 ;;      Temps:          0       9       0       0       0       0       0       0       0       0       0       0       
      +0       0       0       0       0
  4175 ;;      Totals:         0      17     188       0       0       0       0       0       0       0       0       0       
      +0       0       0       0       0
  4176 ;;Total ram usage:      205 bytes
  4177 ;; Hardware stack levels used:    1
  4178 ;; Hardware stack levels required when called:    5
  4179 ;; This function calls:
  4180 ;;		___fladd
  4181 ;;		___fldiv
  4182 ;;		___flge
  4183 ;;		___flmul
  4184 ;;		___flneg
  4185 ;;		___flsub
  4186 ;;		___xxtofl
  4187 ;;		_fabsf
  4188 ;;		_scalbnf
  4189 ;;		_sqrtf
  4190 ;; This function is called by:
  4191 ;;		_preCalculate
  4192 ;; This function uses a non-reentrant model
  4193 ;;
  4194                           
  4195                           	psect	text22
  4196  0010DC                     __ptext22:
  4197                           	opt callstack 0
  4198  0010DC                     _powf:
  4199                           	opt callstack 22
  4200  0010DC  C088  F1B8         	movff	powf@x,powf@__xc8_float_word
  4201  0010E0  C089  F1B9         	movff	powf@x+1,powf@__xc8_float_word+1
  4202  0010E4  C08A  F1BA         	movff	powf@x+2,powf@__xc8_float_word+2
  4203  0010E8  C08B  F1BB         	movff	powf@x+3,powf@__xc8_float_word+3
  4204  0010EC  C1B8  F160         	movff	powf@__xc8_float_word,powf@hx
  4205  0010F0  C1B9  F161         	movff	powf@__xc8_float_word+1,powf@hx+1
  4206  0010F4  C1BA  F162         	movff	powf@__xc8_float_word+2,powf@hx+2
  4207  0010F8  C1BB  F163         	movff	powf@__xc8_float_word+3,powf@hx+3
  4208  0010FC  C08C  F1B8         	movff	powf@y,powf@__xc8_float_word
  4209  001100  C08D  F1B9         	movff	powf@y+1,powf@__xc8_float_word+1
  4210  001104  C08E  F1BA         	movff	powf@y+2,powf@__xc8_float_word+2
  4211  001108  C08F  F1BB         	movff	powf@y+3,powf@__xc8_float_word+3
  4212  00110C  C1B8  F17C         	movff	powf@__xc8_float_word,powf@hy
  4213  001110  C1B9  F17D         	movff	powf@__xc8_float_word+1,powf@hy+1
  4214  001114  C1BA  F17E         	movff	powf@__xc8_float_word+2,powf@hy+2
  4215  001118  C1BB  F17F         	movff	powf@__xc8_float_word+3,powf@hy+3
  4216  00111C  0EFF               	movlw	255
  4217  00111E  0101               	movlb	1	; () banked
  4218  001120  1560               	andwf	powf@hx& (0+255),w,b
  4219  001122  6FA8               	movwf	powf@ix& (0+255),b
  4220  001124  0EFF               	movlw	255
  4221  001126  1561               	andwf	(powf@hx+1)& (0+255),w,b
  4222  001128  6FA9               	movwf	(powf@ix+1)& (0+255),b
  4223  00112A  0EFF               	movlw	255
  4224  00112C  1562               	andwf	(powf@hx+2)& (0+255),w,b
  4225  00112E  6FAA               	movwf	(powf@ix+2)& (0+255),b
  4226  001130  0E7F               	movlw	127
  4227  001132  1563               	andwf	(powf@hx+3)& (0+255),w,b
  4228  001134  6FAB               	movwf	(powf@ix+3)& (0+255),b
  4229  001136  0EFF               	movlw	255
  4230  001138  157C               	andwf	powf@hy& (0+255),w,b
  4231  00113A  6F90               	movwf	powf@iy& (0+255),b
  4232  00113C  0EFF               	movlw	255
  4233  00113E  157D               	andwf	(powf@hy+1)& (0+255),w,b
  4234  001140  6F91               	movwf	(powf@iy+1)& (0+255),b
  4235  001142  0EFF               	movlw	255
  4236  001144  157E               	andwf	(powf@hy+2)& (0+255),w,b
  4237  001146  6F92               	movwf	(powf@iy+2)& (0+255),b
  4238  001148  0E7F               	movlw	127
  4239  00114A  157F               	andwf	(powf@hy+3)& (0+255),w,b
  4240  00114C  6F93               	movwf	(powf@iy+3)& (0+255),b
  4241  00114E  5190               	movf	powf@iy& (0+255),w,b
  4242  001150  1191               	iorwf	(powf@iy+1)& (0+255),w,b
  4243  001152  1192               	iorwf	(powf@iy+2)& (0+255),w,b
  4244  001154  1193               	iorwf	(powf@iy+3)& (0+255),w,b
  4245  001156  A4D8               	btfss	status,2,c
  4246  001158  EFB0  F008         	goto	u5521
  4247  00115C  EFB2  F008         	goto	u5520
  4248  001160                     u5521:
  4249  001160  EFBD  F008         	goto	l5939
  4250  001164                     u5520:
  4251  001164                     
  4252                           ; BSR set to: 1
  4253  001164  0E00               	movlw	0
  4254  001166  0100               	movlb	0	; () banked
  4255  001168  6F88               	movwf	?_powf& (0+255),b
  4256  00116A  0E00               	movlw	0
  4257  00116C  6F89               	movwf	(?_powf+1)& (0+255),b
  4258  00116E  0E80               	movlw	128
  4259  001170  6F8A               	movwf	(?_powf+2)& (0+255),b
  4260  001172  0E3F               	movlw	63
  4261  001174  6F8B               	movwf	(?_powf+3)& (0+255),b
  4262  001176  EF86  F01D         	goto	l1510
  4263  00117A                     l5939:
  4264                           
  4265                           ; BSR set to: 1
  4266  00117A  0E80               	movlw	128
  4267  00117C  1962               	xorwf	(powf@hx+2)& (0+255),w,b
  4268  00117E  E109               	bnz	u5531
  4269  001180  0E3F               	movlw	63
  4270  001182  1963               	xorwf	(powf@hx+3)& (0+255),w,b
  4271  001184  1160               	iorwf	powf@hx& (0+255),w,b
  4272  001186  1161               	iorwf	(powf@hx+1)& (0+255),w,b
  4273  001188  A4D8               	btfss	status,2,c
  4274  00118A  EFC9  F008         	goto	u5531
  4275  00118E  EFCB  F008         	goto	u5530
  4276  001192                     u5531:
  4277  001192  EFD6  F008         	goto	l5945
  4278  001196                     u5530:
  4279  001196                     
  4280                           ; BSR set to: 1
  4281  001196  0E00               	movlw	0
  4282  001198  0100               	movlb	0	; () banked
  4283  00119A  6F88               	movwf	?_powf& (0+255),b
  4284  00119C  0E00               	movlw	0
  4285  00119E  6F89               	movwf	(?_powf+1)& (0+255),b
  4286  0011A0  0E80               	movlw	128
  4287  0011A2  6F8A               	movwf	(?_powf+2)& (0+255),b
  4288  0011A4  0E3F               	movlw	63
  4289  0011A6  6F8B               	movwf	(?_powf+3)& (0+255),b
  4290  0011A8  EF86  F01D         	goto	l1510
  4291  0011AC                     l5945:
  4292                           
  4293                           ; BSR set to: 1
  4294  0011AC  BFAB               	btfsc	(powf@ix+3)& (0+255),7,b
  4295  0011AE  EFE7  F008         	goto	u5540
  4296  0011B2  05A8               	decf	powf@ix& (0+255),w,b
  4297  0011B4  0E00               	movlw	0
  4298  0011B6  59A9               	subwfb	(powf@ix+1)& (0+255),w,b
  4299  0011B8  0E80               	movlw	128
  4300  0011BA  59AA               	subwfb	(powf@ix+2)& (0+255),w,b
  4301  0011BC  0E7F               	movlw	127
  4302  0011BE  59AB               	subwfb	(powf@ix+3)& (0+255),w,b
  4303  0011C0  B0D8               	btfsc	status,0,c
  4304  0011C2  EFE5  F008         	goto	u5541
  4305  0011C6  EFE7  F008         	goto	u5540
  4306  0011CA                     u5541:
  4307  0011CA  EFF8  F008         	goto	l5949
  4308  0011CE                     u5540:
  4309  0011CE                     
  4310                           ; BSR set to: 1
  4311  0011CE  BF93               	btfsc	(powf@iy+3)& (0+255),7,b
  4312  0011D0  EFF6  F008         	goto	u5551
  4313  0011D4  0590               	decf	powf@iy& (0+255),w,b
  4314  0011D6  0E00               	movlw	0
  4315  0011D8  5991               	subwfb	(powf@iy+1)& (0+255),w,b
  4316  0011DA  0E80               	movlw	128
  4317  0011DC  5992               	subwfb	(powf@iy+2)& (0+255),w,b
  4318  0011DE  0E7F               	movlw	127
  4319  0011E0  5993               	subwfb	(powf@iy+3)& (0+255),w,b
  4320  0011E2  A0D8               	btfss	status,0,c
  4321  0011E4  EFF6  F008         	goto	u5551
  4322  0011E8  EFF8  F008         	goto	u5550
  4323  0011EC                     u5551:
  4324  0011EC  EF14  F009         	goto	l5953
  4325  0011F0                     u5550:
  4326  0011F0                     l5949:
  4327                           
  4328                           ; BSR set to: 1
  4329  0011F0  C088  F009         	movff	powf@x,___fladd@b
  4330  0011F4  C089  F00A         	movff	powf@x+1,___fladd@b+1
  4331  0011F8  C08A  F00B         	movff	powf@x+2,___fladd@b+2
  4332  0011FC  C08B  F00C         	movff	powf@x+3,___fladd@b+3
  4333  001200  C08C  F00D         	movff	powf@y,___fladd@a
  4334  001204  C08D  F00E         	movff	powf@y+1,___fladd@a+1
  4335  001208  C08E  F00F         	movff	powf@y+2,___fladd@a+2
  4336  00120C  C08F  F010         	movff	powf@y+3,___fladd@a+3
  4337  001210  ECE7  F01F         	call	___fladd	;wreg free
  4338  001214  C009  F088         	movff	?___fladd,?_powf
  4339  001218  C00A  F089         	movff	?___fladd+1,?_powf+1
  4340  00121C  C00B  F08A         	movff	?___fladd+2,?_powf+2
  4341  001220  C00C  F08B         	movff	?___fladd+3,?_powf+3
  4342  001224  EF86  F01D         	goto	l1510
  4343  001228                     l5953:
  4344                           
  4345                           ; BSR set to: 1
  4346  001228  0E00               	movlw	0
  4347  00122A  6F50               	movwf	powf@yisint& (0+255),b
  4348  00122C  0E00               	movlw	0
  4349  00122E  6F51               	movwf	(powf@yisint+1)& (0+255),b
  4350  001230  0E00               	movlw	0
  4351  001232  6F52               	movwf	(powf@yisint+2)& (0+255),b
  4352  001234  0E00               	movlw	0
  4353  001236  6F53               	movwf	(powf@yisint+3)& (0+255),b
  4354  001238                     
  4355                           ; BSR set to: 1
  4356  001238  BF63               	btfsc	(powf@hx+3)& (0+255),7,b
  4357  00123A  EF23  F009         	goto	u5560
  4358  00123E  EF21  F009         	goto	u5561
  4359  001242                     u5561:
  4360  001242  EFEF  F009         	goto	l1515
  4361  001246                     u5560:
  4362  001246                     
  4363                           ; BSR set to: 1
  4364  001246  BF93               	btfsc	(powf@iy+3)& (0+255),7,b
  4365  001248  EF2F  F009         	goto	u5571
  4366  00124C  0E80               	movlw	128
  4367  00124E  5D92               	subwf	(powf@iy+2)& (0+255),w,b
  4368  001250  0E4B               	movlw	75
  4369  001252  5993               	subwfb	(powf@iy+3)& (0+255),w,b
  4370  001254  A0D8               	btfss	status,0,c
  4371  001256  EF2F  F009         	goto	u5571
  4372  00125A  EF31  F009         	goto	u5570
  4373  00125E                     u5571:
  4374  00125E  EF3B  F009         	goto	l5961
  4375  001262                     u5570:
  4376  001262                     
  4377                           ; BSR set to: 1
  4378  001262  0E02               	movlw	2
  4379  001264  6F50               	movwf	powf@yisint& (0+255),b
  4380  001266  0E00               	movlw	0
  4381  001268  6F51               	movwf	(powf@yisint+1)& (0+255),b
  4382  00126A  0E00               	movlw	0
  4383  00126C  6F52               	movwf	(powf@yisint+2)& (0+255),b
  4384  00126E  0E00               	movlw	0
  4385  001270  6F53               	movwf	(powf@yisint+3)& (0+255),b
  4386  001272  EFEF  F009         	goto	l1515
  4387  001276                     l5961:
  4388                           
  4389                           ; BSR set to: 1
  4390  001276  BF93               	btfsc	(powf@iy+3)& (0+255),7,b
  4391  001278  EF47  F009         	goto	u5581
  4392  00127C  0E80               	movlw	128
  4393  00127E  5D92               	subwf	(powf@iy+2)& (0+255),w,b
  4394  001280  0E3F               	movlw	63
  4395  001282  5993               	subwfb	(powf@iy+3)& (0+255),w,b
  4396  001284  A0D8               	btfss	status,0,c
  4397  001286  EF47  F009         	goto	u5581
  4398  00128A  EF49  F009         	goto	u5580
  4399  00128E                     u5581:
  4400  00128E  EFEF  F009         	goto	l1515
  4401  001292                     u5580:
  4402  001292                     
  4403                           ; BSR set to: 1
  4404  001292  0E17               	movlw	23
  4405  001294  0100               	movlb	0	; () banked
  4406  001296  6F90               	movwf	??_powf& (0+255),b
  4407  001298  C190  F091         	movff	powf@iy,??_powf+1
  4408  00129C  C191  F092         	movff	powf@iy+1,??_powf+2
  4409  0012A0  C192  F093         	movff	powf@iy+2,??_powf+3
  4410  0012A4  C193  F094         	movff	powf@iy+3,??_powf+4
  4411  0012A8                     u5595:
  4412  0012A8  6790               	tstfsz	??_powf& (0+255),b
  4413  0012AA  EF59  F009         	goto	u5596
  4414  0012AE  EF61  F009         	goto	u5597
  4415  0012B2                     u5596:
  4416  0012B2  3594               	rlcf	(??_powf+4)& (0+255),w,b
  4417  0012B4  3394               	rrcf	(??_powf+4)& (0+255),f,b
  4418  0012B6  3393               	rrcf	(??_powf+3)& (0+255),f,b
  4419  0012B8  3392               	rrcf	(??_powf+2)& (0+255),f,b
  4420  0012BA  3391               	rrcf	(??_powf+1)& (0+255),f,b
  4421  0012BC  2F90               	decfsz	??_powf& (0+255),f,b
  4422  0012BE  EF54  F009         	goto	u5595
  4423  0012C2                     u5597:
  4424  0012C2  0E81               	movlw	129
  4425  0012C4  0100               	movlb	0	; () banked
  4426  0012C6  2591               	addwf	(??_powf+1)& (0+255),w,b
  4427  0012C8  0101               	movlb	1	; () banked
  4428  0012CA  6FA0               	movwf	powf@k& (0+255),b
  4429  0012CC  0EFF               	movlw	255
  4430  0012CE  0100               	movlb	0	; () banked
  4431  0012D0  2192               	addwfc	(??_powf+2)& (0+255),w,b
  4432  0012D2  0101               	movlb	1	; () banked
  4433  0012D4  6FA1               	movwf	(powf@k+1)& (0+255),b
  4434  0012D6  0EFF               	movlw	255
  4435  0012D8  0100               	movlb	0	; () banked
  4436  0012DA  2193               	addwfc	(??_powf+3)& (0+255),w,b
  4437  0012DC  0101               	movlb	1	; () banked
  4438  0012DE  6FA2               	movwf	(powf@k+2)& (0+255),b
  4439  0012E0  0EFF               	movlw	255
  4440  0012E2  0100               	movlb	0	; () banked
  4441  0012E4  2194               	addwfc	(??_powf+4)& (0+255),w,b
  4442  0012E6  0101               	movlb	1	; () banked
  4443  0012E8  6FA3               	movwf	(powf@k+3)& (0+255),b
  4444  0012EA  51A0               	movf	powf@k& (0+255),w,b
  4445  0012EC  0817               	sublw	23
  4446  0012EE  0100               	movlb	0	; () banked
  4447  0012F0  6F90               	movwf	??_powf& (0+255),b
  4448  0012F2  C190  F091         	movff	powf@iy,??_powf+1
  4449  0012F6  C191  F092         	movff	powf@iy+1,??_powf+2
  4450  0012FA  C192  F093         	movff	powf@iy+2,??_powf+3
  4451  0012FE  C193  F094         	movff	powf@iy+3,??_powf+4
  4452  001302                     u5605:
  4453  001302  6790               	tstfsz	??_powf& (0+255),b
  4454  001304  EF86  F009         	goto	u5606
  4455  001308  EF8E  F009         	goto	u5607
  4456  00130C                     u5606:
  4457  00130C  3594               	rlcf	(??_powf+4)& (0+255),w,b
  4458  00130E  3394               	rrcf	(??_powf+4)& (0+255),f,b
  4459  001310  3393               	rrcf	(??_powf+3)& (0+255),f,b
  4460  001312  3392               	rrcf	(??_powf+2)& (0+255),f,b
  4461  001314  3391               	rrcf	(??_powf+1)& (0+255),f,b
  4462  001316  2F90               	decfsz	??_powf& (0+255),f,b
  4463  001318  EF81  F009         	goto	u5605
  4464  00131C                     u5607:
  4465  00131C  C091  F1AC         	movff	??_powf+1,powf@j
  4466  001320  C092  F1AD         	movff	??_powf+2,powf@j+1
  4467  001324  C093  F1AE         	movff	??_powf+3,powf@j+2
  4468  001328  C094  F1AF         	movff	??_powf+4,powf@j+3
  4469  00132C  0101               	movlb	1	; () banked
  4470  00132E  51A0               	movf	powf@k& (0+255),w,b
  4471  001330  0817               	sublw	23
  4472  001332  0100               	movlb	0	; () banked
  4473  001334  6F90               	movwf	??_powf& (0+255),b
  4474  001336  C1AC  F091         	movff	powf@j,??_powf+1
  4475  00133A  C1AD  F092         	movff	powf@j+1,??_powf+2
  4476  00133E  C1AE  F093         	movff	powf@j+2,??_powf+3
  4477  001342  C1AF  F094         	movff	powf@j+3,??_powf+4
  4478  001346  2B90               	incf	??_powf& (0+255),f,b
  4479  001348  EFAB  F009         	goto	u5610
  4480  00134C                     u5615:
  4481  00134C  90D8               	bcf	status,0,c
  4482  00134E  3791               	rlcf	(??_powf+1)& (0+255),f,b
  4483  001350  3792               	rlcf	(??_powf+2)& (0+255),f,b
  4484  001352  3793               	rlcf	(??_powf+3)& (0+255),f,b
  4485  001354  3794               	rlcf	(??_powf+4)& (0+255),f,b
  4486  001356                     u5610:
  4487  001356  2F90               	decfsz	??_powf& (0+255),f,b
  4488  001358  EFA6  F009         	goto	u5615
  4489  00135C  0101               	movlb	1	; () banked
  4490  00135E  5190               	movf	powf@iy& (0+255),w,b
  4491  001360  0100               	movlb	0	; () banked
  4492  001362  1991               	xorwf	(??_powf+1)& (0+255),w,b
  4493  001364  E113               	bnz	u5621
  4494  001366  0101               	movlb	1	; () banked
  4495  001368  5191               	movf	(powf@iy+1)& (0+255),w,b
  4496  00136A  0100               	movlb	0	; () banked
  4497  00136C  1992               	xorwf	(??_powf+2)& (0+255),w,b
  4498  00136E  E10E               	bnz	u5621
  4499  001370  0101               	movlb	1	; () banked
  4500  001372  5192               	movf	(powf@iy+2)& (0+255),w,b
  4501  001374  0100               	movlb	0	; () banked
  4502  001376  1993               	xorwf	(??_powf+3)& (0+255),w,b
  4503  001378  E109               	bnz	u5621
  4504  00137A  0101               	movlb	1	; () banked
  4505  00137C  5193               	movf	(powf@iy+3)& (0+255),w,b
  4506  00137E  0100               	movlb	0	; () banked
  4507  001380  1994               	xorwf	(??_powf+4)& (0+255),w,b
  4508  001382  A4D8               	btfss	status,2,c
  4509  001384  EFC6  F009         	goto	u5621
  4510  001388  EFC8  F009         	goto	u5620
  4511  00138C                     u5621:
  4512  00138C  EFEF  F009         	goto	l1515
  4513  001390                     u5620:
  4514  001390                     
  4515                           ; BSR set to: 0
  4516  001390  0E01               	movlw	1
  4517  001392  0101               	movlb	1	; () banked
  4518  001394  15AC               	andwf	powf@j& (0+255),w,b
  4519  001396  0100               	movlb	0	; () banked
  4520  001398  6F90               	movwf	??_powf& (0+255),b
  4521  00139A  0E00               	movlw	0
  4522  00139C  0101               	movlb	1	; () banked
  4523  00139E  15AD               	andwf	(powf@j+1)& (0+255),w,b
  4524  0013A0  0100               	movlb	0	; () banked
  4525  0013A2  6F91               	movwf	(??_powf+1)& (0+255),b
  4526  0013A4  0E00               	movlw	0
  4527  0013A6  0101               	movlb	1	; () banked
  4528  0013A8  15AE               	andwf	(powf@j+2)& (0+255),w,b
  4529  0013AA  0100               	movlb	0	; () banked
  4530  0013AC  6F92               	movwf	(??_powf+2)& (0+255),b
  4531  0013AE  0E00               	movlw	0
  4532  0013B0  0101               	movlb	1	; () banked
  4533  0013B2  15AF               	andwf	(powf@j+3)& (0+255),w,b
  4534  0013B4  0100               	movlb	0	; () banked
  4535  0013B6  6F93               	movwf	(??_powf+3)& (0+255),b
  4536  0013B8  5190               	movf	??_powf& (0+255),w,b
  4537  0013BA  0802               	sublw	2
  4538  0013BC  0101               	movlb	1	; () banked
  4539  0013BE  6F50               	movwf	powf@yisint& (0+255),b
  4540  0013C0  0E00               	movlw	0
  4541  0013C2  0100               	movlb	0	; () banked
  4542  0013C4  5591               	subfwb	(??_powf+1)& (0+255),w,b
  4543  0013C6  0101               	movlb	1	; () banked
  4544  0013C8  6F51               	movwf	(powf@yisint+1)& (0+255),b
  4545  0013CA  0E00               	movlw	0
  4546  0013CC  0100               	movlb	0	; () banked
  4547  0013CE  5592               	subfwb	(??_powf+2)& (0+255),w,b
  4548  0013D0  0101               	movlb	1	; () banked
  4549  0013D2  6F52               	movwf	(powf@yisint+2)& (0+255),b
  4550  0013D4  0E00               	movlw	0
  4551  0013D6  0100               	movlb	0	; () banked
  4552  0013D8  5593               	subfwb	(??_powf+3)& (0+255),w,b
  4553  0013DA  0101               	movlb	1	; () banked
  4554  0013DC  6F53               	movwf	(powf@yisint+3)& (0+255),b
  4555  0013DE                     l1515:
  4556  0013DE  0E80               	movlw	128
  4557  0013E0  0101               	movlb	1	; () banked
  4558  0013E2  1992               	xorwf	(powf@iy+2)& (0+255),w,b
  4559  0013E4  E109               	bnz	u5631
  4560  0013E6  0E7F               	movlw	127
  4561  0013E8  1993               	xorwf	(powf@iy+3)& (0+255),w,b
  4562  0013EA  1190               	iorwf	powf@iy& (0+255),w,b
  4563  0013EC  1191               	iorwf	(powf@iy+1)& (0+255),w,b
  4564  0013EE  A4D8               	btfss	status,2,c
  4565  0013F0  EFFC  F009         	goto	u5631
  4566  0013F4  EFFE  F009         	goto	u5630
  4567  0013F8                     u5631:
  4568  0013F8  EF6A  F00A         	goto	l5991
  4569  0013FC                     u5630:
  4570  0013FC                     
  4571                           ; BSR set to: 1
  4572  0013FC  0E80               	movlw	128
  4573  0013FE  19AA               	xorwf	(powf@ix+2)& (0+255),w,b
  4574  001400  E109               	bnz	u5641
  4575  001402  0E3F               	movlw	63
  4576  001404  19AB               	xorwf	(powf@ix+3)& (0+255),w,b
  4577  001406  11A8               	iorwf	powf@ix& (0+255),w,b
  4578  001408  11A9               	iorwf	(powf@ix+1)& (0+255),w,b
  4579  00140A  A4D8               	btfss	status,2,c
  4580  00140C  EF0A  F00A         	goto	u5641
  4581  001410  EF0C  F00A         	goto	u5640
  4582  001414                     u5641:
  4583  001414  EF17  F00A         	goto	l5975
  4584  001418                     u5640:
  4585  001418                     
  4586                           ; BSR set to: 1
  4587  001418  0E00               	movlw	0
  4588  00141A  0100               	movlb	0	; () banked
  4589  00141C  6F88               	movwf	?_powf& (0+255),b
  4590  00141E  0E00               	movlw	0
  4591  001420  6F89               	movwf	(?_powf+1)& (0+255),b
  4592  001422  0E80               	movlw	128
  4593  001424  6F8A               	movwf	(?_powf+2)& (0+255),b
  4594  001426  0E3F               	movlw	63
  4595  001428  6F8B               	movwf	(?_powf+3)& (0+255),b
  4596  00142A  EF86  F01D         	goto	l1510
  4597  00142E                     l5975:
  4598                           
  4599                           ; BSR set to: 1
  4600  00142E  BFAB               	btfsc	(powf@ix+3)& (0+255),7,b
  4601  001430  EF26  F00A         	goto	u5651
  4602  001434  05A8               	decf	powf@ix& (0+255),w,b
  4603  001436  0E00               	movlw	0
  4604  001438  59A9               	subwfb	(powf@ix+1)& (0+255),w,b
  4605  00143A  0E80               	movlw	128
  4606  00143C  59AA               	subwfb	(powf@ix+2)& (0+255),w,b
  4607  00143E  0E3F               	movlw	63
  4608  001440  59AB               	subwfb	(powf@ix+3)& (0+255),w,b
  4609  001442  A0D8               	btfss	status,0,c
  4610  001444  EF26  F00A         	goto	u5651
  4611  001448  EF28  F00A         	goto	u5650
  4612  00144C                     u5651:
  4613  00144C  EF44  F00A         	goto	l5983
  4614  001450                     u5650:
  4615  001450                     
  4616                           ; BSR set to: 1
  4617  001450  BF7F               	btfsc	(powf@hy+3)& (0+255),7,b
  4618  001452  EF2F  F00A         	goto	u5660
  4619  001456  EF2D  F00A         	goto	u5661
  4620  00145A                     u5661:
  4621  00145A  EF3A  F00A         	goto	l1525
  4622  00145E                     u5660:
  4623  00145E                     
  4624                           ; BSR set to: 1
  4625  00145E  0E00               	movlw	0
  4626  001460  0100               	movlb	0	; () banked
  4627  001462  6F88               	movwf	?_powf& (0+255),b
  4628  001464  0E00               	movlw	0
  4629  001466  6F89               	movwf	(?_powf+1)& (0+255),b
  4630  001468  0E00               	movlw	0
  4631  00146A  6F8A               	movwf	(?_powf+2)& (0+255),b
  4632  00146C  0E00               	movlw	0
  4633  00146E  6F8B               	movwf	(?_powf+3)& (0+255),b
  4634  001470  EF86  F01D         	goto	l1510
  4635  001474                     l1525:
  4636                           
  4637                           ; BSR set to: 1
  4638  001474  C08C  F088         	movff	powf@y,?_powf
  4639  001478  C08D  F089         	movff	powf@y+1,?_powf+1
  4640  00147C  C08E  F08A         	movff	powf@y+2,?_powf+2
  4641  001480  C08F  F08B         	movff	powf@y+3,?_powf+3
  4642  001484  EF86  F01D         	goto	l1510
  4643  001488                     l5983:
  4644                           
  4645                           ; BSR set to: 1
  4646  001488  BF7F               	btfsc	(powf@hy+3)& (0+255),7,b
  4647  00148A  EF4B  F00A         	goto	u5670
  4648  00148E  EF49  F00A         	goto	u5671
  4649  001492                     u5671:
  4650  001492  EF5F  F00A         	goto	l5987
  4651  001496                     u5670:
  4652  001496                     
  4653                           ; BSR set to: 1
  4654  001496  C08C  F009         	movff	powf@y,___flneg@f1
  4655  00149A  C08D  F00A         	movff	powf@y+1,___flneg@f1+1
  4656  00149E  C08E  F00B         	movff	powf@y+2,___flneg@f1+2
  4657  0014A2  C08F  F00C         	movff	powf@y+3,___flneg@f1+3
  4658  0014A6  EC18  F032         	call	___flneg	;wreg free
  4659  0014AA  C009  F088         	movff	?___flneg,?_powf
  4660  0014AE  C00A  F089         	movff	?___flneg+1,?_powf+1
  4661  0014B2  C00B  F08A         	movff	?___flneg+2,?_powf+2
  4662  0014B6  C00C  F08B         	movff	?___flneg+3,?_powf+3
  4663  0014BA  EF86  F01D         	goto	l1510
  4664  0014BE                     l5987:
  4665                           
  4666                           ; BSR set to: 1
  4667  0014BE  0E00               	movlw	0
  4668  0014C0  0100               	movlb	0	; () banked
  4669  0014C2  6F88               	movwf	?_powf& (0+255),b
  4670  0014C4  0E00               	movlw	0
  4671  0014C6  6F89               	movwf	(?_powf+1)& (0+255),b
  4672  0014C8  0E00               	movlw	0
  4673  0014CA  6F8A               	movwf	(?_powf+2)& (0+255),b
  4674  0014CC  0E00               	movlw	0
  4675  0014CE  6F8B               	movwf	(?_powf+3)& (0+255),b
  4676  0014D0  EF86  F01D         	goto	l1510
  4677  0014D4                     l5991:
  4678                           
  4679                           ; BSR set to: 1
  4680  0014D4  0E80               	movlw	128
  4681  0014D6  1992               	xorwf	(powf@iy+2)& (0+255),w,b
  4682  0014D8  E109               	bnz	u5681
  4683  0014DA  0E3F               	movlw	63
  4684  0014DC  1993               	xorwf	(powf@iy+3)& (0+255),w,b
  4685  0014DE  1190               	iorwf	powf@iy& (0+255),w,b
  4686  0014E0  1191               	iorwf	(powf@iy+1)& (0+255),w,b
  4687  0014E2  A4D8               	btfss	status,2,c
  4688  0014E4  EF76  F00A         	goto	u5681
  4689  0014E8  EF78  F00A         	goto	u5680
  4690  0014EC                     u5681:
  4691  0014EC  EFA5  F00A         	goto	l5997
  4692  0014F0                     u5680:
  4693  0014F0                     
  4694                           ; BSR set to: 1
  4695  0014F0  BF7F               	btfsc	(powf@hy+3)& (0+255),7,b
  4696  0014F2  EF7F  F00A         	goto	u5690
  4697  0014F6  EF7D  F00A         	goto	u5691
  4698  0014FA                     u5691:
  4699  0014FA  EF9B  F00A         	goto	l1535
  4700  0014FE                     u5690:
  4701  0014FE                     
  4702                           ; BSR set to: 1
  4703  0014FE  0E00               	movlw	0
  4704  001500  6E3A               	movwf	___fldiv@b^0,c
  4705  001502  0E00               	movlw	0
  4706  001504  6E3B               	movwf	(___fldiv@b+1)^0,c
  4707  001506  0E80               	movlw	128
  4708  001508  6E3C               	movwf	(___fldiv@b+2)^0,c
  4709  00150A  0E3F               	movlw	63
  4710  00150C  6E3D               	movwf	(___fldiv@b+3)^0,c
  4711  00150E  C088  F03E         	movff	powf@x,___fldiv@a
  4712  001512  C089  F03F         	movff	powf@x+1,___fldiv@a+1
  4713  001516  C08A  F040         	movff	powf@x+2,___fldiv@a+2
  4714  00151A  C08B  F041         	movff	powf@x+3,___fldiv@a+3
  4715  00151E  EC5C  F024         	call	___fldiv	;wreg free
  4716  001522  C03A  F088         	movff	?___fldiv,?_powf
  4717  001526  C03B  F089         	movff	?___fldiv+1,?_powf+1
  4718  00152A  C03C  F08A         	movff	?___fldiv+2,?_powf+2
  4719  00152E  C03D  F08B         	movff	?___fldiv+3,?_powf+3
  4720  001532  EF86  F01D         	goto	l1510
  4721  001536                     l1535:
  4722                           
  4723                           ; BSR set to: 1
  4724  001536  C088  F088         	movff	powf@x,?_powf
  4725  00153A  C089  F089         	movff	powf@x+1,?_powf+1
  4726  00153E  C08A  F08A         	movff	powf@x+2,?_powf+2
  4727  001542  C08B  F08B         	movff	powf@x+3,?_powf+3
  4728  001546  EF86  F01D         	goto	l1510
  4729  00154A                     l5997:
  4730                           
  4731                           ; BSR set to: 1
  4732  00154A  0E40               	movlw	64
  4733  00154C  197F               	xorwf	(powf@hy+3)& (0+255),w,b
  4734  00154E  117C               	iorwf	powf@hy& (0+255),w,b
  4735  001550  117D               	iorwf	(powf@hy+1)& (0+255),w,b
  4736  001552  117E               	iorwf	(powf@hy+2)& (0+255),w,b
  4737  001554  A4D8               	btfss	status,2,c
  4738  001556  EFAF  F00A         	goto	u5701
  4739  00155A  EFB1  F00A         	goto	u5700
  4740  00155E                     u5701:
  4741  00155E  EFCD  F00A         	goto	l6003
  4742  001562                     u5700:
  4743  001562                     
  4744                           ; BSR set to: 1
  4745  001562  C088  F019         	movff	powf@x,___flmul@b
  4746  001566  C089  F01A         	movff	powf@x+1,___flmul@b+1
  4747  00156A  C08A  F01B         	movff	powf@x+2,___flmul@b+2
  4748  00156E  C08B  F01C         	movff	powf@x+3,___flmul@b+3
  4749  001572  C088  F01D         	movff	powf@x,___flmul@a
  4750  001576  C089  F01E         	movff	powf@x+1,___flmul@a+1
  4751  00157A  C08A  F01F         	movff	powf@x+2,___flmul@a+2
  4752  00157E  C08B  F020         	movff	powf@x+3,___flmul@a+3
  4753  001582  EC47  F022         	call	___flmul	;wreg free
  4754  001586  C019  F088         	movff	?___flmul,?_powf
  4755  00158A  C01A  F089         	movff	?___flmul+1,?_powf+1
  4756  00158E  C01B  F08A         	movff	?___flmul+2,?_powf+2
  4757  001592  C01C  F08B         	movff	?___flmul+3,?_powf+3
  4758  001596  EF86  F01D         	goto	l1510
  4759  00159A                     l6003:
  4760                           
  4761                           ; BSR set to: 1
  4762  00159A  0E3F               	movlw	63
  4763  00159C  197F               	xorwf	(powf@hy+3)& (0+255),w,b
  4764  00159E  117C               	iorwf	powf@hy& (0+255),w,b
  4765  0015A0  117D               	iorwf	(powf@hy+1)& (0+255),w,b
  4766  0015A2  117E               	iorwf	(powf@hy+2)& (0+255),w,b
  4767  0015A4  A4D8               	btfss	status,2,c
  4768  0015A6  EFD7  F00A         	goto	u5711
  4769  0015AA  EFD9  F00A         	goto	u5710
  4770  0015AE                     u5711:
  4771  0015AE  EFF4  F00A         	goto	l6011
  4772  0015B2                     u5710:
  4773  0015B2                     
  4774                           ; BSR set to: 1
  4775  0015B2  BF63               	btfsc	(powf@hx+3)& (0+255),7,b
  4776  0015B4  EFDE  F00A         	goto	u5721
  4777  0015B8  EFE0  F00A         	goto	u5720
  4778  0015BC                     u5721:
  4779  0015BC  EFF4  F00A         	goto	l6011
  4780  0015C0                     u5720:
  4781  0015C0                     
  4782                           ; BSR set to: 1
  4783  0015C0  C088  F046         	movff	powf@x,sqrtf@x
  4784  0015C4  C089  F047         	movff	powf@x+1,sqrtf@x+1
  4785  0015C8  C08A  F048         	movff	powf@x+2,sqrtf@x+2
  4786  0015CC  C08B  F049         	movff	powf@x+3,sqrtf@x+3
  4787  0015D0  EC87  F01D         	call	_sqrtf	;wreg free
  4788  0015D4  C046  F088         	movff	?_sqrtf,?_powf
  4789  0015D8  C047  F089         	movff	?_sqrtf+1,?_powf+1
  4790  0015DC  C048  F08A         	movff	?_sqrtf+2,?_powf+2
  4791  0015E0  C049  F08B         	movff	?_sqrtf+3,?_powf+3
  4792  0015E4  EF86  F01D         	goto	l1510
  4793  0015E8                     l6011:
  4794                           
  4795                           ; BSR set to: 1
  4796  0015E8  C088  F009         	movff	powf@x,fabsf@x
  4797  0015EC  C089  F00A         	movff	powf@x+1,fabsf@x+1
  4798  0015F0  C08A  F00B         	movff	powf@x+2,fabsf@x+2
  4799  0015F4  C08B  F00C         	movff	powf@x+3,fabsf@x+3
  4800  0015F8  EC34  F032         	call	_fabsf	;wreg free
  4801  0015FC  C009  F170         	movff	?_fabsf,powf@ax
  4802  001600  C00A  F171         	movff	?_fabsf+1,powf@ax+1
  4803  001604  C00B  F172         	movff	?_fabsf+2,powf@ax+2
  4804  001608  C00C  F173         	movff	?_fabsf+3,powf@ax+3
  4805  00160C  0E80               	movlw	128
  4806  00160E  0101               	movlb	1	; () banked
  4807  001610  19AA               	xorwf	(powf@ix+2)& (0+255),w,b
  4808  001612  E10B               	bnz	u5730
  4809  001614  0E7F               	movlw	127
  4810  001616  19AB               	xorwf	(powf@ix+3)& (0+255),w,b
  4811  001618  11A8               	iorwf	powf@ix& (0+255),w,b
  4812  00161A  11A9               	iorwf	(powf@ix+1)& (0+255),w,b
  4813  00161C  B4D8               	btfsc	status,2,c
  4814  00161E  EF13  F00B         	goto	u5731
  4815  001622  EF15  F00B         	goto	u5730
  4816  001626                     u5731:
  4817  001626  EF2E  F00B         	goto	l1543
  4818  00162A                     u5730:
  4819  00162A                     
  4820                           ; BSR set to: 1
  4821  00162A  51A8               	movf	powf@ix& (0+255),w,b
  4822  00162C  11A9               	iorwf	(powf@ix+1)& (0+255),w,b
  4823  00162E  11AA               	iorwf	(powf@ix+2)& (0+255),w,b
  4824  001630  11AB               	iorwf	(powf@ix+3)& (0+255),w,b
  4825  001632  B4D8               	btfsc	status,2,c
  4826  001634  EF1E  F00B         	goto	u5741
  4827  001638  EF20  F00B         	goto	u5740
  4828  00163C                     u5741:
  4829  00163C  EF2E  F00B         	goto	l1543
  4830  001640                     u5740:
  4831  001640                     
  4832                           ; BSR set to: 1
  4833  001640  0E80               	movlw	128
  4834  001642  19AA               	xorwf	(powf@ix+2)& (0+255),w,b
  4835  001644  E109               	bnz	u5751
  4836  001646  0E3F               	movlw	63
  4837  001648  19AB               	xorwf	(powf@ix+3)& (0+255),w,b
  4838  00164A  11A8               	iorwf	powf@ix& (0+255),w,b
  4839  00164C  11A9               	iorwf	(powf@ix+1)& (0+255),w,b
  4840  00164E  A4D8               	btfss	status,2,c
  4841  001650  EF2C  F00B         	goto	u5751
  4842  001654  EF2E  F00B         	goto	u5750
  4843  001658                     u5751:
  4844  001658  EFF9  F00B         	goto	l6037
  4845  00165C                     u5750:
  4846  00165C                     l1543:
  4847                           
  4848                           ; BSR set to: 1
  4849  00165C  C170  F1B4         	movff	powf@ax,powf@z
  4850  001660  C171  F1B5         	movff	powf@ax+1,powf@z+1
  4851  001664  C172  F1B6         	movff	powf@ax+2,powf@z+2
  4852  001668  C173  F1B7         	movff	powf@ax+3,powf@z+3
  4853  00166C                     
  4854                           ; BSR set to: 1
  4855  00166C  BF7F               	btfsc	(powf@hy+3)& (0+255),7,b
  4856  00166E  EF3D  F00B         	goto	u5760
  4857  001672  EF3B  F00B         	goto	u5761
  4858  001676                     u5761:
  4859  001676  EF57  F00B         	goto	l6023
  4860  00167A                     u5760:
  4861  00167A                     
  4862                           ; BSR set to: 1
  4863  00167A  0E00               	movlw	0
  4864  00167C  6E3A               	movwf	___fldiv@b^0,c
  4865  00167E  0E00               	movlw	0
  4866  001680  6E3B               	movwf	(___fldiv@b+1)^0,c
  4867  001682  0E80               	movlw	128
  4868  001684  6E3C               	movwf	(___fldiv@b+2)^0,c
  4869  001686  0E3F               	movlw	63
  4870  001688  6E3D               	movwf	(___fldiv@b+3)^0,c
  4871  00168A  C1B4  F03E         	movff	powf@z,___fldiv@a
  4872  00168E  C1B5  F03F         	movff	powf@z+1,___fldiv@a+1
  4873  001692  C1B6  F040         	movff	powf@z+2,___fldiv@a+2
  4874  001696  C1B7  F041         	movff	powf@z+3,___fldiv@a+3
  4875  00169A  EC5C  F024         	call	___fldiv	;wreg free
  4876  00169E  C03A  F1B4         	movff	?___fldiv,powf@z
  4877  0016A2  C03B  F1B5         	movff	?___fldiv+1,powf@z+1
  4878  0016A6  C03C  F1B6         	movff	?___fldiv+2,powf@z+2
  4879  0016AA  C03D  F1B7         	movff	?___fldiv+3,powf@z+3
  4880  0016AE                     l6023:
  4881  0016AE  0101               	movlb	1	; () banked
  4882  0016B0  BF63               	btfsc	(powf@hx+3)& (0+255),7,b
  4883  0016B2  EF5F  F00B         	goto	u5770
  4884  0016B6  EF5D  F00B         	goto	u5771
  4885  0016BA                     u5771:
  4886  0016BA  EFEF  F00B         	goto	l6033
  4887  0016BE                     u5770:
  4888  0016BE                     
  4889                           ; BSR set to: 1
  4890  0016BE  0E00               	movlw	0
  4891  0016C0  25A8               	addwf	powf@ix& (0+255),w,b
  4892  0016C2  0100               	movlb	0	; () banked
  4893  0016C4  6F90               	movwf	??_powf& (0+255),b
  4894  0016C6  0E00               	movlw	0
  4895  0016C8  0101               	movlb	1	; () banked
  4896  0016CA  21A9               	addwfc	(powf@ix+1)& (0+255),w,b
  4897  0016CC  0100               	movlb	0	; () banked
  4898  0016CE  6F91               	movwf	(??_powf+1)& (0+255),b
  4899  0016D0  0E80               	movlw	128
  4900  0016D2  0101               	movlb	1	; () banked
  4901  0016D4  21AA               	addwfc	(powf@ix+2)& (0+255),w,b
  4902  0016D6  0100               	movlb	0	; () banked
  4903  0016D8  6F92               	movwf	(??_powf+2)& (0+255),b
  4904  0016DA  0EC0               	movlw	192
  4905  0016DC  0101               	movlb	1	; () banked
  4906  0016DE  21AB               	addwfc	(powf@ix+3)& (0+255),w,b
  4907  0016E0  0100               	movlb	0	; () banked
  4908  0016E2  6F93               	movwf	(??_powf+3)& (0+255),b
  4909  0016E4  0101               	movlb	1	; () banked
  4910  0016E6  5150               	movf	powf@yisint& (0+255),w,b
  4911  0016E8  0100               	movlb	0	; () banked
  4912  0016EA  1190               	iorwf	??_powf& (0+255),w,b
  4913  0016EC  6F94               	movwf	(??_powf+4)& (0+255),b
  4914  0016EE  0101               	movlb	1	; () banked
  4915  0016F0  5151               	movf	(powf@yisint+1)& (0+255),w,b
  4916  0016F2  0100               	movlb	0	; () banked
  4917  0016F4  1191               	iorwf	(??_powf+1)& (0+255),w,b
  4918  0016F6  6F95               	movwf	(??_powf+5)& (0+255),b
  4919  0016F8  0101               	movlb	1	; () banked
  4920  0016FA  5152               	movf	(powf@yisint+2)& (0+255),w,b
  4921  0016FC  0100               	movlb	0	; () banked
  4922  0016FE  1192               	iorwf	(??_powf+2)& (0+255),w,b
  4923  001700  6F96               	movwf	(??_powf+6)& (0+255),b
  4924  001702  0101               	movlb	1	; () banked
  4925  001704  5153               	movf	(powf@yisint+3)& (0+255),w,b
  4926  001706  0100               	movlb	0	; () banked
  4927  001708  1193               	iorwf	(??_powf+3)& (0+255),w,b
  4928  00170A  6F97               	movwf	(??_powf+7)& (0+255),b
  4929  00170C  5194               	movf	(??_powf+4)& (0+255),w,b
  4930  00170E  1195               	iorwf	(??_powf+5)& (0+255),w,b
  4931  001710  1196               	iorwf	(??_powf+6)& (0+255),w,b
  4932  001712  1197               	iorwf	(??_powf+7)& (0+255),w,b
  4933  001714  A4D8               	btfss	status,2,c
  4934  001716  EF8F  F00B         	goto	u5781
  4935  00171A  EF91  F00B         	goto	u5780
  4936  00171E                     u5781:
  4937  00171E  EFD1  F00B         	goto	l6029
  4938  001722                     u5780:
  4939  001722                     
  4940                           ; BSR set to: 0
  4941  001722  C1B4  F036         	movff	powf@z,___flsub@a
  4942  001726  C1B5  F037         	movff	powf@z+1,___flsub@a+1
  4943  00172A  C1B6  F038         	movff	powf@z+2,___flsub@a+2
  4944  00172E  C1B7  F039         	movff	powf@z+3,___flsub@a+3
  4945  001732  C1B4  F032         	movff	powf@z,___flsub@b
  4946  001736  C1B5  F033         	movff	powf@z+1,___flsub@b+1
  4947  00173A  C1B6  F034         	movff	powf@z+2,___flsub@b+2
  4948  00173E  C1B7  F035         	movff	powf@z+3,___flsub@b+3
  4949  001742  EC79  F031         	call	___flsub	;wreg free
  4950  001746  C032  F03A         	movff	?___flsub,___fldiv@b
  4951  00174A  C033  F03B         	movff	?___flsub+1,___fldiv@b+1
  4952  00174E  C034  F03C         	movff	?___flsub+2,___fldiv@b+2
  4953  001752  C035  F03D         	movff	?___flsub+3,___fldiv@b+3
  4954  001756  C1B4  F036         	movff	powf@z,___flsub@a
  4955  00175A  C1B5  F037         	movff	powf@z+1,___flsub@a+1
  4956  00175E  C1B6  F038         	movff	powf@z+2,___flsub@a+2
  4957  001762  C1B7  F039         	movff	powf@z+3,___flsub@a+3
  4958  001766  C1B4  F032         	movff	powf@z,___flsub@b
  4959  00176A  C1B5  F033         	movff	powf@z+1,___flsub@b+1
  4960  00176E  C1B6  F034         	movff	powf@z+2,___flsub@b+2
  4961  001772  C1B7  F035         	movff	powf@z+3,___flsub@b+3
  4962  001776  EC79  F031         	call	___flsub	;wreg free
  4963  00177A  C032  F03E         	movff	?___flsub,___fldiv@a
  4964  00177E  C033  F03F         	movff	?___flsub+1,___fldiv@a+1
  4965  001782  C034  F040         	movff	?___flsub+2,___fldiv@a+2
  4966  001786  C035  F041         	movff	?___flsub+3,___fldiv@a+3
  4967  00178A  EC5C  F024         	call	___fldiv	;wreg free
  4968  00178E  C03A  F1B4         	movff	?___fldiv,powf@z
  4969  001792  C03B  F1B5         	movff	?___fldiv+1,powf@z+1
  4970  001796  C03C  F1B6         	movff	?___fldiv+2,powf@z+2
  4971  00179A  C03D  F1B7         	movff	?___fldiv+3,powf@z+3
  4972  00179E  EFEF  F00B         	goto	l6033
  4973  0017A2                     l6029:
  4974                           
  4975                           ; BSR set to: 0
  4976  0017A2  0101               	movlb	1	; () banked
  4977  0017A4  0550               	decf	powf@yisint& (0+255),w,b
  4978  0017A6  1151               	iorwf	(powf@yisint+1)& (0+255),w,b
  4979  0017A8  1152               	iorwf	(powf@yisint+2)& (0+255),w,b
  4980  0017AA  1153               	iorwf	(powf@yisint+3)& (0+255),w,b
  4981  0017AC  A4D8               	btfss	status,2,c
  4982  0017AE  EFDB  F00B         	goto	u5791
  4983  0017B2  EFDD  F00B         	goto	u5790
  4984  0017B6                     u5791:
  4985  0017B6  EFEF  F00B         	goto	l6033
  4986  0017BA                     u5790:
  4987  0017BA                     
  4988                           ; BSR set to: 1
  4989  0017BA  C1B4  F009         	movff	powf@z,___flneg@f1
  4990  0017BE  C1B5  F00A         	movff	powf@z+1,___flneg@f1+1
  4991  0017C2  C1B6  F00B         	movff	powf@z+2,___flneg@f1+2
  4992  0017C6  C1B7  F00C         	movff	powf@z+3,___flneg@f1+3
  4993  0017CA  EC18  F032         	call	___flneg	;wreg free
  4994  0017CE  C009  F1B4         	movff	?___flneg,powf@z
  4995  0017D2  C00A  F1B5         	movff	?___flneg+1,powf@z+1
  4996  0017D6  C00B  F1B6         	movff	?___flneg+2,powf@z+2
  4997  0017DA  C00C  F1B7         	movff	?___flneg+3,powf@z+3
  4998  0017DE                     l6033:
  4999  0017DE  C1B4  F088         	movff	powf@z,?_powf
  5000  0017E2  C1B5  F089         	movff	powf@z+1,?_powf+1
  5001  0017E6  C1B6  F08A         	movff	powf@z+2,?_powf+2
  5002  0017EA  C1B7  F08B         	movff	powf@z+3,?_powf+3
  5003  0017EE  EF86  F01D         	goto	l1510
  5004  0017F2                     l6037:
  5005                           
  5006                           ; BSR set to: 1
  5007  0017F2  0E00               	movlw	0
  5008  0017F4  6F88               	movwf	powf@sn& (0+255),b
  5009  0017F6  0E00               	movlw	0
  5010  0017F8  6F89               	movwf	(powf@sn+1)& (0+255),b
  5011  0017FA  0E80               	movlw	128
  5012  0017FC  6F8A               	movwf	(powf@sn+2)& (0+255),b
  5013  0017FE  0E3F               	movlw	63
  5014  001800  6F8B               	movwf	(powf@sn+3)& (0+255),b
  5015  001802                     
  5016                           ; BSR set to: 1
  5017  001802  BF63               	btfsc	(powf@hx+3)& (0+255),7,b
  5018  001804  EF08  F00C         	goto	u5800
  5019  001808  EF06  F00C         	goto	u5801
  5020  00180C                     u5801:
  5021  00180C  EF66  F00C         	goto	l6051
  5022  001810                     u5800:
  5023  001810                     
  5024                           ; BSR set to: 1
  5025  001810  5150               	movf	powf@yisint& (0+255),w,b
  5026  001812  1151               	iorwf	(powf@yisint+1)& (0+255),w,b
  5027  001814  1152               	iorwf	(powf@yisint+2)& (0+255),w,b
  5028  001816  1153               	iorwf	(powf@yisint+3)& (0+255),w,b
  5029  001818  A4D8               	btfss	status,2,c
  5030  00181A  EF11  F00C         	goto	u5811
  5031  00181E  EF13  F00C         	goto	u5810
  5032  001822                     u5811:
  5033  001822  EF53  F00C         	goto	l6047
  5034  001826                     u5810:
  5035  001826                     
  5036                           ; BSR set to: 1
  5037  001826  C088  F036         	movff	powf@x,___flsub@a
  5038  00182A  C089  F037         	movff	powf@x+1,___flsub@a+1
  5039  00182E  C08A  F038         	movff	powf@x+2,___flsub@a+2
  5040  001832  C08B  F039         	movff	powf@x+3,___flsub@a+3
  5041  001836  C088  F032         	movff	powf@x,___flsub@b
  5042  00183A  C089  F033         	movff	powf@x+1,___flsub@b+1
  5043  00183E  C08A  F034         	movff	powf@x+2,___flsub@b+2
  5044  001842  C08B  F035         	movff	powf@x+3,___flsub@b+3
  5045  001846  EC79  F031         	call	___flsub	;wreg free
  5046  00184A  C032  F03A         	movff	?___flsub,___fldiv@b
  5047  00184E  C033  F03B         	movff	?___flsub+1,___fldiv@b+1
  5048  001852  C034  F03C         	movff	?___flsub+2,___fldiv@b+2
  5049  001856  C035  F03D         	movff	?___flsub+3,___fldiv@b+3
  5050  00185A  C088  F036         	movff	powf@x,___flsub@a
  5051  00185E  C089  F037         	movff	powf@x+1,___flsub@a+1
  5052  001862  C08A  F038         	movff	powf@x+2,___flsub@a+2
  5053  001866  C08B  F039         	movff	powf@x+3,___flsub@a+3
  5054  00186A  C088  F032         	movff	powf@x,___flsub@b
  5055  00186E  C089  F033         	movff	powf@x+1,___flsub@b+1
  5056  001872  C08A  F034         	movff	powf@x+2,___flsub@b+2
  5057  001876  C08B  F035         	movff	powf@x+3,___flsub@b+3
  5058  00187A  EC79  F031         	call	___flsub	;wreg free
  5059  00187E  C032  F03E         	movff	?___flsub,___fldiv@a
  5060  001882  C033  F03F         	movff	?___flsub+1,___fldiv@a+1
  5061  001886  C034  F040         	movff	?___flsub+2,___fldiv@a+2
  5062  00188A  C035  F041         	movff	?___flsub+3,___fldiv@a+3
  5063  00188E  EC5C  F024         	call	___fldiv	;wreg free
  5064  001892  C03A  F088         	movff	?___fldiv,?_powf
  5065  001896  C03B  F089         	movff	?___fldiv+1,?_powf+1
  5066  00189A  C03C  F08A         	movff	?___fldiv+2,?_powf+2
  5067  00189E  C03D  F08B         	movff	?___fldiv+3,?_powf+3
  5068  0018A2  EF86  F01D         	goto	l1510
  5069  0018A6                     l6047:
  5070                           
  5071                           ; BSR set to: 1
  5072  0018A6  0550               	decf	powf@yisint& (0+255),w,b
  5073  0018A8  1151               	iorwf	(powf@yisint+1)& (0+255),w,b
  5074  0018AA  1152               	iorwf	(powf@yisint+2)& (0+255),w,b
  5075  0018AC  1153               	iorwf	(powf@yisint+3)& (0+255),w,b
  5076  0018AE  A4D8               	btfss	status,2,c
  5077  0018B0  EF5C  F00C         	goto	u5821
  5078  0018B4  EF5E  F00C         	goto	u5820
  5079  0018B8                     u5821:
  5080  0018B8  EF66  F00C         	goto	l6051
  5081  0018BC                     u5820:
  5082  0018BC                     
  5083                           ; BSR set to: 1
  5084  0018BC  0E00               	movlw	0
  5085  0018BE  6F88               	movwf	powf@sn& (0+255),b
  5086  0018C0  0E00               	movlw	0
  5087  0018C2  6F89               	movwf	(powf@sn+1)& (0+255),b
  5088  0018C4  0E80               	movlw	128
  5089  0018C6  6F8A               	movwf	(powf@sn+2)& (0+255),b
  5090  0018C8  0EBF               	movlw	191
  5091  0018CA  6F8B               	movwf	(powf@sn+3)& (0+255),b
  5092  0018CC                     l6051:
  5093                           
  5094                           ; BSR set to: 1
  5095  0018CC  BF93               	btfsc	(powf@iy+3)& (0+255),7,b
  5096  0018CE  EF75  F00C         	goto	u5831
  5097  0018D2  0590               	decf	powf@iy& (0+255),w,b
  5098  0018D4  0E00               	movlw	0
  5099  0018D6  5991               	subwfb	(powf@iy+1)& (0+255),w,b
  5100  0018D8  0E00               	movlw	0
  5101  0018DA  5992               	subwfb	(powf@iy+2)& (0+255),w,b
  5102  0018DC  0E4D               	movlw	77
  5103  0018DE  5993               	subwfb	(powf@iy+3)& (0+255),w,b
  5104  0018E0  A0D8               	btfss	status,0,c
  5105  0018E2  EF75  F00C         	goto	u5831
  5106  0018E6  EF77  F00C         	goto	u5830
  5107  0018EA                     u5831:
  5108  0018EA  EFFC  F00E         	goto	l6099
  5109  0018EE                     u5830:
  5110  0018EE                     
  5111                           ; BSR set to: 1
  5112  0018EE  BFAB               	btfsc	(powf@ix+3)& (0+255),7,b
  5113  0018F0  EF89  F00C         	goto	u5840
  5114  0018F4  0EF8               	movlw	248
  5115  0018F6  5DA8               	subwf	powf@ix& (0+255),w,b
  5116  0018F8  0EFF               	movlw	255
  5117  0018FA  59A9               	subwfb	(powf@ix+1)& (0+255),w,b
  5118  0018FC  0E7F               	movlw	127
  5119  0018FE  59AA               	subwfb	(powf@ix+2)& (0+255),w,b
  5120  001900  0E3F               	movlw	63
  5121  001902  59AB               	subwfb	(powf@ix+3)& (0+255),w,b
  5122  001904  B0D8               	btfsc	status,0,c
  5123  001906  EF87  F00C         	goto	u5841
  5124  00190A  EF89  F00C         	goto	u5840
  5125  00190E                     u5841:
  5126  00190E  EFFC  F00C         	goto	l6063
  5127  001912                     u5840:
  5128  001912                     
  5129                           ; BSR set to: 1
  5130  001912  BF7F               	btfsc	(powf@hy+3)& (0+255),7,b
  5131  001914  EF8E  F00C         	goto	u5851
  5132  001918  EF90  F00C         	goto	u5850
  5133  00191C                     u5851:
  5134  00191C  EFC6  F00C         	goto	l6059
  5135  001920                     u5850:
  5136  001920                     
  5137                           ; BSR set to: 1
  5138  001920  0E60               	movlw	96
  5139  001922  6E1D               	movwf	___flmul@a^0,c
  5140  001924  0E42               	movlw	66
  5141  001926  6E1E               	movwf	(___flmul@a+1)^0,c
  5142  001928  0EA2               	movlw	162
  5143  00192A  6E1F               	movwf	(___flmul@a+2)^0,c
  5144  00192C  0E0D               	movlw	13
  5145  00192E  6E20               	movwf	(___flmul@a+3)^0,c
  5146  001930  C188  F019         	movff	powf@sn,___flmul@b
  5147  001934  C189  F01A         	movff	powf@sn+1,___flmul@b+1
  5148  001938  C18A  F01B         	movff	powf@sn+2,___flmul@b+2
  5149  00193C  C18B  F01C         	movff	powf@sn+3,___flmul@b+3
  5150  001940  EC47  F022         	call	___flmul	;wreg free
  5151  001944  C019  F1A4         	movff	?___flmul,_powf$1822
  5152  001948  C01A  F1A5         	movff	?___flmul+1,_powf$1822+1
  5153  00194C  C01B  F1A6         	movff	?___flmul+2,_powf$1822+2
  5154  001950  C01C  F1A7         	movff	?___flmul+3,_powf$1822+3
  5155  001954  C1A4  F019         	movff	_powf$1822,___flmul@b
  5156  001958  C1A5  F01A         	movff	_powf$1822+1,___flmul@b+1
  5157  00195C  C1A6  F01B         	movff	_powf$1822+2,___flmul@b+2
  5158  001960  C1A7  F01C         	movff	_powf$1822+3,___flmul@b+3
  5159  001964  0E60               	movlw	96
  5160  001966  6E1D               	movwf	___flmul@a^0,c
  5161  001968  0E42               	movlw	66
  5162  00196A  6E1E               	movwf	(___flmul@a+1)^0,c
  5163  00196C  0EA2               	movlw	162
  5164  00196E  6E1F               	movwf	(___flmul@a+2)^0,c
  5165  001970  0E0D               	movlw	13
  5166  001972  6E20               	movwf	(___flmul@a+3)^0,c
  5167  001974  EC47  F022         	call	___flmul	;wreg free
  5168  001978  C019  F088         	movff	?___flmul,?_powf
  5169  00197C  C01A  F089         	movff	?___flmul+1,?_powf+1
  5170  001980  C01B  F08A         	movff	?___flmul+2,?_powf+2
  5171  001984  C01C  F08B         	movff	?___flmul+3,?_powf+3
  5172  001988  EF86  F01D         	goto	l1510
  5173  00198C                     l6059:
  5174                           
  5175                           ; BSR set to: 1
  5176  00198C  0ECA               	movlw	202
  5177  00198E  6E1D               	movwf	___flmul@a^0,c
  5178  001990  0EF2               	movlw	242
  5179  001992  6E1E               	movwf	(___flmul@a+1)^0,c
  5180  001994  0E49               	movlw	73
  5181  001996  6E1F               	movwf	(___flmul@a+2)^0,c
  5182  001998  0E71               	movlw	113
  5183  00199A  6E20               	movwf	(___flmul@a+3)^0,c
  5184  00199C  C188  F019         	movff	powf@sn,___flmul@b
  5185  0019A0  C189  F01A         	movff	powf@sn+1,___flmul@b+1
  5186  0019A4  C18A  F01B         	movff	powf@sn+2,___flmul@b+2
  5187  0019A8  C18B  F01C         	movff	powf@sn+3,___flmul@b+3
  5188  0019AC  EC47  F022         	call	___flmul	;wreg free
  5189  0019B0  C019  F1A4         	movff	?___flmul,_powf$1822
  5190  0019B4  C01A  F1A5         	movff	?___flmul+1,_powf$1822+1
  5191  0019B8  C01B  F1A6         	movff	?___flmul+2,_powf$1822+2
  5192  0019BC  C01C  F1A7         	movff	?___flmul+3,_powf$1822+3
  5193  0019C0  C1A4  F019         	movff	_powf$1822,___flmul@b
  5194  0019C4  C1A5  F01A         	movff	_powf$1822+1,___flmul@b+1
  5195  0019C8  C1A6  F01B         	movff	_powf$1822+2,___flmul@b+2
  5196  0019CC  C1A7  F01C         	movff	_powf$1822+3,___flmul@b+3
  5197  0019D0  0ECA               	movlw	202
  5198  0019D2  6E1D               	movwf	___flmul@a^0,c
  5199  0019D4  0EF2               	movlw	242
  5200  0019D6  6E1E               	movwf	(___flmul@a+1)^0,c
  5201  0019D8  0E49               	movlw	73
  5202  0019DA  6E1F               	movwf	(___flmul@a+2)^0,c
  5203  0019DC  0E71               	movlw	113
  5204  0019DE  6E20               	movwf	(___flmul@a+3)^0,c
  5205  0019E0  EC47  F022         	call	___flmul	;wreg free
  5206  0019E4  C019  F088         	movff	?___flmul,?_powf
  5207  0019E8  C01A  F089         	movff	?___flmul+1,?_powf+1
  5208  0019EC  C01B  F08A         	movff	?___flmul+2,?_powf+2
  5209  0019F0  C01C  F08B         	movff	?___flmul+3,?_powf+3
  5210  0019F4  EF86  F01D         	goto	l1510
  5211  0019F8                     l6063:
  5212                           
  5213                           ; BSR set to: 1
  5214  0019F8  BFAB               	btfsc	(powf@ix+3)& (0+255),7,b
  5215  0019FA  EF0C  F00D         	goto	u5861
  5216  0019FE  0E08               	movlw	8
  5217  001A00  5DA8               	subwf	powf@ix& (0+255),w,b
  5218  001A02  0E00               	movlw	0
  5219  001A04  59A9               	subwfb	(powf@ix+1)& (0+255),w,b
  5220  001A06  0E80               	movlw	128
  5221  001A08  59AA               	subwfb	(powf@ix+2)& (0+255),w,b
  5222  001A0A  0E3F               	movlw	63
  5223  001A0C  59AB               	subwfb	(powf@ix+3)& (0+255),w,b
  5224  001A0E  A0D8               	btfss	status,0,c
  5225  001A10  EF0C  F00D         	goto	u5861
  5226  001A14  EF0E  F00D         	goto	u5860
  5227  001A18                     u5861:
  5228  001A18  EF89  F00D         	goto	l6073
  5229  001A1C                     u5860:
  5230  001A1C                     
  5231                           ; BSR set to: 1
  5232  001A1C  BF7F               	btfsc	(powf@hy+3)& (0+255),7,b
  5233  001A1E  EF1D  F00D         	goto	u5870
  5234  001A22  517F               	movf	(powf@hy+3)& (0+255),w,b
  5235  001A24  117E               	iorwf	(powf@hy+2)& (0+255),w,b
  5236  001A26  117D               	iorwf	(powf@hy+1)& (0+255),w,b
  5237  001A28  E106               	bnz	u5871
  5238  001A2A  057C               	decf	powf@hy& (0+255),w,b
  5239  001A2C  B0D8               	btfsc	status,0,c
  5240  001A2E  EF1B  F00D         	goto	u5871
  5241  001A32  EF1D  F00D         	goto	u5870
  5242  001A36                     u5871:
  5243  001A36  EF53  F00D         	goto	l6069
  5244  001A3A                     u5870:
  5245  001A3A                     
  5246                           ; BSR set to: 1
  5247  001A3A  0E60               	movlw	96
  5248  001A3C  6E1D               	movwf	___flmul@a^0,c
  5249  001A3E  0E42               	movlw	66
  5250  001A40  6E1E               	movwf	(___flmul@a+1)^0,c
  5251  001A42  0EA2               	movlw	162
  5252  001A44  6E1F               	movwf	(___flmul@a+2)^0,c
  5253  001A46  0E0D               	movlw	13
  5254  001A48  6E20               	movwf	(___flmul@a+3)^0,c
  5255  001A4A  C188  F019         	movff	powf@sn,___flmul@b
  5256  001A4E  C189  F01A         	movff	powf@sn+1,___flmul@b+1
  5257  001A52  C18A  F01B         	movff	powf@sn+2,___flmul@b+2
  5258  001A56  C18B  F01C         	movff	powf@sn+3,___flmul@b+3
  5259  001A5A  EC47  F022         	call	___flmul	;wreg free
  5260  001A5E  C019  F1A4         	movff	?___flmul,_powf$1822
  5261  001A62  C01A  F1A5         	movff	?___flmul+1,_powf$1822+1
  5262  001A66  C01B  F1A6         	movff	?___flmul+2,_powf$1822+2
  5263  001A6A  C01C  F1A7         	movff	?___flmul+3,_powf$1822+3
  5264  001A6E  C1A4  F019         	movff	_powf$1822,___flmul@b
  5265  001A72  C1A5  F01A         	movff	_powf$1822+1,___flmul@b+1
  5266  001A76  C1A6  F01B         	movff	_powf$1822+2,___flmul@b+2
  5267  001A7A  C1A7  F01C         	movff	_powf$1822+3,___flmul@b+3
  5268  001A7E  0E60               	movlw	96
  5269  001A80  6E1D               	movwf	___flmul@a^0,c
  5270  001A82  0E42               	movlw	66
  5271  001A84  6E1E               	movwf	(___flmul@a+1)^0,c
  5272  001A86  0EA2               	movlw	162
  5273  001A88  6E1F               	movwf	(___flmul@a+2)^0,c
  5274  001A8A  0E0D               	movlw	13
  5275  001A8C  6E20               	movwf	(___flmul@a+3)^0,c
  5276  001A8E  EC47  F022         	call	___flmul	;wreg free
  5277  001A92  C019  F088         	movff	?___flmul,?_powf
  5278  001A96  C01A  F089         	movff	?___flmul+1,?_powf+1
  5279  001A9A  C01B  F08A         	movff	?___flmul+2,?_powf+2
  5280  001A9E  C01C  F08B         	movff	?___flmul+3,?_powf+3
  5281  001AA2  EF86  F01D         	goto	l1510
  5282  001AA6                     l6069:
  5283                           
  5284                           ; BSR set to: 1
  5285  001AA6  0ECA               	movlw	202
  5286  001AA8  6E1D               	movwf	___flmul@a^0,c
  5287  001AAA  0EF2               	movlw	242
  5288  001AAC  6E1E               	movwf	(___flmul@a+1)^0,c
  5289  001AAE  0E49               	movlw	73
  5290  001AB0  6E1F               	movwf	(___flmul@a+2)^0,c
  5291  001AB2  0E71               	movlw	113
  5292  001AB4  6E20               	movwf	(___flmul@a+3)^0,c
  5293  001AB6  C188  F019         	movff	powf@sn,___flmul@b
  5294  001ABA  C189  F01A         	movff	powf@sn+1,___flmul@b+1
  5295  001ABE  C18A  F01B         	movff	powf@sn+2,___flmul@b+2
  5296  001AC2  C18B  F01C         	movff	powf@sn+3,___flmul@b+3
  5297  001AC6  EC47  F022         	call	___flmul	;wreg free
  5298  001ACA  C019  F1A4         	movff	?___flmul,_powf$1822
  5299  001ACE  C01A  F1A5         	movff	?___flmul+1,_powf$1822+1
  5300  001AD2  C01B  F1A6         	movff	?___flmul+2,_powf$1822+2
  5301  001AD6  C01C  F1A7         	movff	?___flmul+3,_powf$1822+3
  5302  001ADA  C1A4  F019         	movff	_powf$1822,___flmul@b
  5303  001ADE  C1A5  F01A         	movff	_powf$1822+1,___flmul@b+1
  5304  001AE2  C1A6  F01B         	movff	_powf$1822+2,___flmul@b+2
  5305  001AE6  C1A7  F01C         	movff	_powf$1822+3,___flmul@b+3
  5306  001AEA  0ECA               	movlw	202
  5307  001AEC  6E1D               	movwf	___flmul@a^0,c
  5308  001AEE  0EF2               	movlw	242
  5309  001AF0  6E1E               	movwf	(___flmul@a+1)^0,c
  5310  001AF2  0E49               	movlw	73
  5311  001AF4  6E1F               	movwf	(___flmul@a+2)^0,c
  5312  001AF6  0E71               	movlw	113
  5313  001AF8  6E20               	movwf	(___flmul@a+3)^0,c
  5314  001AFA  EC47  F022         	call	___flmul	;wreg free
  5315  001AFE  C019  F088         	movff	?___flmul,?_powf
  5316  001B02  C01A  F089         	movff	?___flmul+1,?_powf+1
  5317  001B06  C01B  F08A         	movff	?___flmul+2,?_powf+2
  5318  001B0A  C01C  F08B         	movff	?___flmul+3,?_powf+3
  5319  001B0E  EF86  F01D         	goto	l1510
  5320  001B12                     l6073:
  5321                           
  5322                           ; BSR set to: 1
  5323  001B12  C170  F009         	movff	powf@ax,___fladd@b
  5324  001B16  C171  F00A         	movff	powf@ax+1,___fladd@b+1
  5325  001B1A  C172  F00B         	movff	powf@ax+2,___fladd@b+2
  5326  001B1E  C173  F00C         	movff	powf@ax+3,___fladd@b+3
  5327  001B22  0E00               	movlw	0
  5328  001B24  6E0D               	movwf	___fladd@a^0,c
  5329  001B26  0E00               	movlw	0
  5330  001B28  6E0E               	movwf	(___fladd@a+1)^0,c
  5331  001B2A  0E80               	movlw	128
  5332  001B2C  6E0F               	movwf	(___fladd@a+2)^0,c
  5333  001B2E  0EBF               	movlw	191
  5334  001B30  6E10               	movwf	(___fladd@a+3)^0,c
  5335  001B32  ECE7  F01F         	call	___fladd	;wreg free
  5336  001B36  C009  F1B0         	movff	?___fladd,powf@t
  5337  001B3A  C00A  F1B1         	movff	?___fladd+1,powf@t+1
  5338  001B3E  C00B  F1B2         	movff	?___fladd+2,powf@t+2
  5339  001B42  C00C  F1B3         	movff	?___fladd+3,powf@t+3
  5340  001B46  0E00               	movlw	0
  5341  001B48  6E1D               	movwf	___flmul@a^0,c
  5342  001B4A  0E00               	movlw	0
  5343  001B4C  6E1E               	movwf	(___flmul@a+1)^0,c
  5344  001B4E  0E80               	movlw	128
  5345  001B50  6E1F               	movwf	(___flmul@a+2)^0,c
  5346  001B52  0E3E               	movlw	62
  5347  001B54  6E20               	movwf	(___flmul@a+3)^0,c
  5348  001B56  C1B0  F019         	movff	powf@t,___flmul@b
  5349  001B5A  C1B1  F01A         	movff	powf@t+1,___flmul@b+1
  5350  001B5E  C1B2  F01B         	movff	powf@t+2,___flmul@b+2
  5351  001B62  C1B3  F01C         	movff	powf@t+3,___flmul@b+3
  5352  001B66  EC47  F022         	call	___flmul	;wreg free
  5353  001B6A  C019  F036         	movff	?___flmul,___flsub@a
  5354  001B6E  C01A  F037         	movff	?___flmul+1,___flsub@a+1
  5355  001B72  C01B  F038         	movff	?___flmul+2,___flsub@a+2
  5356  001B76  C01C  F039         	movff	?___flmul+3,___flsub@a+3
  5357  001B7A  0EAB               	movlw	171
  5358  001B7C  6E32               	movwf	___flsub@b^0,c
  5359  001B7E  0EAA               	movlw	170
  5360  001B80  6E33               	movwf	(___flsub@b+1)^0,c
  5361  001B82  0EAA               	movlw	170
  5362  001B84  6E34               	movwf	(___flsub@b+2)^0,c
  5363  001B86  0E3E               	movlw	62
  5364  001B88  6E35               	movwf	(___flsub@b+3)^0,c
  5365  001B8A  EC79  F031         	call	___flsub	;wreg free
  5366  001B8E  C032  F1A4         	movff	?___flsub,_powf$1822
  5367  001B92  C033  F1A5         	movff	?___flsub+1,_powf$1822+1
  5368  001B96  C034  F1A6         	movff	?___flsub+2,_powf$1822+2
  5369  001B9A  C035  F1A7         	movff	?___flsub+3,_powf$1822+3
  5370  001B9E  C1B0  F01D         	movff	powf@t,___flmul@a
  5371  001BA2  C1B1  F01E         	movff	powf@t+1,___flmul@a+1
  5372  001BA6  C1B2  F01F         	movff	powf@t+2,___flmul@a+2
  5373  001BAA  C1B3  F020         	movff	powf@t+3,___flmul@a+3
  5374  001BAE  C1B0  F019         	movff	powf@t,___flmul@b
  5375  001BB2  C1B1  F01A         	movff	powf@t+1,___flmul@b+1
  5376  001BB6  C1B2  F01B         	movff	powf@t+2,___flmul@b+2
  5377  001BBA  C1B3  F01C         	movff	powf@t+3,___flmul@b+3
  5378  001BBE  EC47  F022         	call	___flmul	;wreg free
  5379  001BC2  C019  F154         	movff	?___flmul,_powf$1823
  5380  001BC6  C01A  F155         	movff	?___flmul+1,_powf$1823+1
  5381  001BCA  C01B  F156         	movff	?___flmul+2,_powf$1823+2
  5382  001BCE  C01C  F157         	movff	?___flmul+3,_powf$1823+3
  5383  001BD2  C1B0  F01D         	movff	powf@t,___flmul@a
  5384  001BD6  C1B1  F01E         	movff	powf@t+1,___flmul@a+1
  5385  001BDA  C1B2  F01F         	movff	powf@t+2,___flmul@a+2
  5386  001BDE  C1B3  F020         	movff	powf@t+3,___flmul@a+3
  5387  001BE2  C1A4  F019         	movff	_powf$1822,___flmul@b
  5388  001BE6  C1A5  F01A         	movff	_powf$1822+1,___flmul@b+1
  5389  001BEA  C1A6  F01B         	movff	_powf$1822+2,___flmul@b+2
  5390  001BEE  C1A7  F01C         	movff	_powf$1822+3,___flmul@b+3
  5391  001BF2  EC47  F022         	call	___flmul	;wreg free
  5392  001BF6  C019  F036         	movff	?___flmul,___flsub@a
  5393  001BFA  C01A  F037         	movff	?___flmul+1,___flsub@a+1
  5394  001BFE  C01B  F038         	movff	?___flmul+2,___flsub@a+2
  5395  001C02  C01C  F039         	movff	?___flmul+3,___flsub@a+3
  5396  001C06  0E00               	movlw	0
  5397  001C08  6E32               	movwf	___flsub@b^0,c
  5398  001C0A  0E00               	movlw	0
  5399  001C0C  6E33               	movwf	(___flsub@b+1)^0,c
  5400  001C0E  0E00               	movlw	0
  5401  001C10  6E34               	movwf	(___flsub@b+2)^0,c
  5402  001C12  0E3F               	movlw	63
  5403  001C14  6E35               	movwf	(___flsub@b+3)^0,c
  5404  001C16  EC79  F031         	call	___flsub	;wreg free
  5405  001C1A  C032  F148         	movff	?___flsub,_powf$1824
  5406  001C1E  C033  F149         	movff	?___flsub+1,_powf$1824+1
  5407  001C22  C034  F14A         	movff	?___flsub+2,_powf$1824+2
  5408  001C26  C035  F14B         	movff	?___flsub+3,_powf$1824+3
  5409  001C2A  C154  F019         	movff	_powf$1823,___flmul@b
  5410  001C2E  C155  F01A         	movff	_powf$1823+1,___flmul@b+1
  5411  001C32  C156  F01B         	movff	_powf$1823+2,___flmul@b+2
  5412  001C36  C157  F01C         	movff	_powf$1823+3,___flmul@b+3
  5413  001C3A  C148  F01D         	movff	_powf$1824,___flmul@a
  5414  001C3E  C149  F01E         	movff	_powf$1824+1,___flmul@a+1
  5415  001C42  C14A  F01F         	movff	_powf$1824+2,___flmul@a+2
  5416  001C46  C14B  F020         	movff	_powf$1824+3,___flmul@a+3
  5417  001C4A  EC47  F022         	call	___flmul	;wreg free
  5418  001C4E  C019  F144         	movff	?___flmul,powf@w
  5419  001C52  C01A  F145         	movff	?___flmul+1,powf@w+1
  5420  001C56  C01B  F146         	movff	?___flmul+2,powf@w+2
  5421  001C5A  C01C  F147         	movff	?___flmul+3,powf@w+3
  5422  001C5E  C1B0  F019         	movff	powf@t,___flmul@b
  5423  001C62  C1B1  F01A         	movff	powf@t+1,___flmul@b+1
  5424  001C66  C1B2  F01B         	movff	powf@t+2,___flmul@b+2
  5425  001C6A  C1B3  F01C         	movff	powf@t+3,___flmul@b+3
  5426  001C6E  0E00               	movlw	0
  5427  001C70  6E1D               	movwf	___flmul@a^0,c
  5428  001C72  0EAA               	movlw	170
  5429  001C74  6E1E               	movwf	(___flmul@a+1)^0,c
  5430  001C76  0EB8               	movlw	184
  5431  001C78  6E1F               	movwf	(___flmul@a+2)^0,c
  5432  001C7A  0E3F               	movlw	63
  5433  001C7C  6E20               	movwf	(___flmul@a+3)^0,c
  5434  001C7E  EC47  F022         	call	___flmul	;wreg free
  5435  001C82  C019  F174         	movff	?___flmul,powf@u
  5436  001C86  C01A  F175         	movff	?___flmul+1,powf@u+1
  5437  001C8A  C01B  F176         	movff	?___flmul+2,powf@u+2
  5438  001C8E  C01C  F177         	movff	?___flmul+3,powf@u+3
  5439  001C92  0E70               	movlw	112
  5440  001C94  6E1D               	movwf	___flmul@a^0,c
  5441  001C96  0EA5               	movlw	165
  5442  001C98  6E1E               	movwf	(___flmul@a+1)^0,c
  5443  001C9A  0EEC               	movlw	236
  5444  001C9C  6E1F               	movwf	(___flmul@a+2)^0,c
  5445  001C9E  0E36               	movlw	54
  5446  001CA0  6E20               	movwf	(___flmul@a+3)^0,c
  5447  001CA2  C1B0  F019         	movff	powf@t,___flmul@b
  5448  001CA6  C1B1  F01A         	movff	powf@t+1,___flmul@b+1
  5449  001CAA  C1B2  F01B         	movff	powf@t+2,___flmul@b+2
  5450  001CAE  C1B3  F01C         	movff	powf@t+3,___flmul@b+3
  5451  001CB2  EC47  F022         	call	___flmul	;wreg free
  5452  001CB6  C019  F032         	movff	?___flmul,___flsub@b
  5453  001CBA  C01A  F033         	movff	?___flmul+1,___flsub@b+1
  5454  001CBE  C01B  F034         	movff	?___flmul+2,___flsub@b+2
  5455  001CC2  C01C  F035         	movff	?___flmul+3,___flsub@b+3
  5456  001CC6  0E3B               	movlw	59
  5457  001CC8  6E1D               	movwf	___flmul@a^0,c
  5458  001CCA  0EAA               	movlw	170
  5459  001CCC  6E1E               	movwf	(___flmul@a+1)^0,c
  5460  001CCE  0EB8               	movlw	184
  5461  001CD0  6E1F               	movwf	(___flmul@a+2)^0,c
  5462  001CD2  0E3F               	movlw	63
  5463  001CD4  6E20               	movwf	(___flmul@a+3)^0,c
  5464  001CD6  C144  F019         	movff	powf@w,___flmul@b
  5465  001CDA  C145  F01A         	movff	powf@w+1,___flmul@b+1
  5466  001CDE  C146  F01B         	movff	powf@w+2,___flmul@b+2
  5467  001CE2  C147  F01C         	movff	powf@w+3,___flmul@b+3
  5468  001CE6  EC47  F022         	call	___flmul	;wreg free
  5469  001CEA  C019  F036         	movff	?___flmul,___flsub@a
  5470  001CEE  C01A  F037         	movff	?___flmul+1,___flsub@a+1
  5471  001CF2  C01B  F038         	movff	?___flmul+2,___flsub@a+2
  5472  001CF6  C01C  F039         	movff	?___flmul+3,___flsub@a+3
  5473  001CFA  EC79  F031         	call	___flsub	;wreg free
  5474  001CFE  C032  F178         	movff	?___flsub,powf@v
  5475  001D02  C033  F179         	movff	?___flsub+1,powf@v+1
  5476  001D06  C034  F17A         	movff	?___flsub+2,powf@v+2
  5477  001D0A  C035  F17B         	movff	?___flsub+3,powf@v+3
  5478  001D0E  C174  F009         	movff	powf@u,___fladd@b
  5479  001D12  C175  F00A         	movff	powf@u+1,___fladd@b+1
  5480  001D16  C176  F00B         	movff	powf@u+2,___fladd@b+2
  5481  001D1A  C177  F00C         	movff	powf@u+3,___fladd@b+3
  5482  001D1E  C178  F00D         	movff	powf@v,___fladd@a
  5483  001D22  C179  F00E         	movff	powf@v+1,___fladd@a+1
  5484  001D26  C17A  F00F         	movff	powf@v+2,___fladd@a+2
  5485  001D2A  C17B  F010         	movff	powf@v+3,___fladd@a+3
  5486  001D2E  ECE7  F01F         	call	___fladd	;wreg free
  5487  001D32  C009  F184         	movff	?___fladd,powf@t1
  5488  001D36  C00A  F185         	movff	?___fladd+1,powf@t1+1
  5489  001D3A  C00B  F186         	movff	?___fladd+2,powf@t1+2
  5490  001D3E  C00C  F187         	movff	?___fladd+3,powf@t1+3
  5491  001D42  C184  F1B8         	movff	powf@t1,powf@__xc8_float_word
  5492  001D46  C185  F1B9         	movff	powf@t1+1,powf@__xc8_float_word+1
  5493  001D4A  C186  F1BA         	movff	powf@t1+2,powf@__xc8_float_word+2
  5494  001D4E  C187  F1BB         	movff	powf@t1+3,powf@__xc8_float_word+3
  5495  001D52  C1B8  F194         	movff	powf@__xc8_float_word,powf@is
  5496  001D56  C1B9  F195         	movff	powf@__xc8_float_word+1,powf@is+1
  5497  001D5A  C1BA  F196         	movff	powf@__xc8_float_word+2,powf@is+2
  5498  001D5E  C1BB  F197         	movff	powf@__xc8_float_word+3,powf@is+3
  5499  001D62  0E00               	movlw	0
  5500  001D64  0101               	movlb	1	; () banked
  5501  001D66  1594               	andwf	powf@is& (0+255),w,b
  5502  001D68  6FB8               	movwf	powf@__xc8_float_word& (0+255),b
  5503  001D6A  0EF0               	movlw	240
  5504  001D6C  1595               	andwf	(powf@is+1)& (0+255),w,b
  5505  001D6E  6FB9               	movwf	(powf@__xc8_float_word+1)& (0+255),b
  5506  001D70  0EFF               	movlw	255
  5507  001D72  1596               	andwf	(powf@is+2)& (0+255),w,b
  5508  001D74  6FBA               	movwf	(powf@__xc8_float_word+2)& (0+255),b
  5509  001D76  0EFF               	movlw	255
  5510  001D78  1597               	andwf	(powf@is+3)& (0+255),w,b
  5511  001D7A  6FBB               	movwf	(powf@__xc8_float_word+3)& (0+255),b
  5512  001D7C                     
  5513                           ; BSR set to: 1
  5514  001D7C  C1B8  F184         	movff	powf@__xc8_float_word,powf@t1
  5515  001D80  C1B9  F185         	movff	powf@__xc8_float_word+1,powf@t1+1
  5516  001D84  C1BA  F186         	movff	powf@__xc8_float_word+2,powf@t1+2
  5517  001D88  C1BB  F187         	movff	powf@__xc8_float_word+3,powf@t1+3
  5518  001D8C                     
  5519                           ; BSR set to: 1
  5520  001D8C  C174  F036         	movff	powf@u,___flsub@a
  5521  001D90  C175  F037         	movff	powf@u+1,___flsub@a+1
  5522  001D94  C176  F038         	movff	powf@u+2,___flsub@a+2
  5523  001D98  C177  F039         	movff	powf@u+3,___flsub@a+3
  5524  001D9C  C184  F032         	movff	powf@t1,___flsub@b
  5525  001DA0  C185  F033         	movff	powf@t1+1,___flsub@b+1
  5526  001DA4  C186  F034         	movff	powf@t1+2,___flsub@b+2
  5527  001DA8  C187  F035         	movff	powf@t1+3,___flsub@b+3
  5528  001DAC  EC79  F031         	call	___flsub	;wreg free
  5529  001DB0  C032  F198         	movff	?___flsub,_powf$1825
  5530  001DB4  C033  F199         	movff	?___flsub+1,_powf$1825+1
  5531  001DB8  C034  F19A         	movff	?___flsub+2,_powf$1825+2
  5532  001DBC  C035  F19B         	movff	?___flsub+3,_powf$1825+3
  5533  001DC0  C178  F032         	movff	powf@v,___flsub@b
  5534  001DC4  C179  F033         	movff	powf@v+1,___flsub@b+1
  5535  001DC8  C17A  F034         	movff	powf@v+2,___flsub@b+2
  5536  001DCC  C17B  F035         	movff	powf@v+3,___flsub@b+3
  5537  001DD0  C198  F036         	movff	_powf$1825,___flsub@a
  5538  001DD4  C199  F037         	movff	_powf$1825+1,___flsub@a+1
  5539  001DD8  C19A  F038         	movff	_powf$1825+2,___flsub@a+2
  5540  001DDC  C19B  F039         	movff	_powf$1825+3,___flsub@a+3
  5541  001DE0  EC79  F031         	call	___flsub	;wreg free
  5542  001DE4  C032  F11C         	movff	?___flsub,powf@t2
  5543  001DE8  C033  F11D         	movff	?___flsub+1,powf@t2+1
  5544  001DEC  C034  F11E         	movff	?___flsub+2,powf@t2+2
  5545  001DF0  C035  F11F         	movff	?___flsub+3,powf@t2+3
  5546  001DF4  EF7C  F016         	goto	l6255
  5547  001DF8                     l6099:
  5548                           
  5549                           ; BSR set to: 1
  5550  001DF8  0E00               	movlw	0
  5551  001DFA  6F80               	movwf	powf@n& (0+255),b
  5552  001DFC  0E00               	movlw	0
  5553  001DFE  6F81               	movwf	(powf@n+1)& (0+255),b
  5554  001E00  0E00               	movlw	0
  5555  001E02  6F82               	movwf	(powf@n+2)& (0+255),b
  5556  001E04  0E00               	movlw	0
  5557  001E06  6F83               	movwf	(powf@n+3)& (0+255),b
  5558  001E08                     
  5559                           ; BSR set to: 1
  5560  001E08  BFAB               	btfsc	(powf@ix+3)& (0+255),7,b
  5561  001E0A  EF12  F00F         	goto	u5880
  5562  001E0E  51AB               	movf	(powf@ix+3)& (0+255),w,b
  5563  001E10  E107               	bnz	u5881
  5564  001E12  0E80               	movlw	128
  5565  001E14  5DAA               	subwf	(powf@ix+2)& (0+255),w,b
  5566  001E16  B0D8               	btfsc	status,0,c
  5567  001E18  EF10  F00F         	goto	u5881
  5568  001E1C  EF12  F00F         	goto	u5880
  5569  001E20                     u5881:
  5570  001E20  EF45  F00F         	goto	l6111
  5571  001E24                     u5880:
  5572  001E24                     
  5573                           ; BSR set to: 1
  5574  001E24  C170  F019         	movff	powf@ax,___flmul@b
  5575  001E28  C171  F01A         	movff	powf@ax+1,___flmul@b+1
  5576  001E2C  C172  F01B         	movff	powf@ax+2,___flmul@b+2
  5577  001E30  C173  F01C         	movff	powf@ax+3,___flmul@b+3
  5578  001E34  0E00               	movlw	0
  5579  001E36  6E1D               	movwf	___flmul@a^0,c
  5580  001E38  0E00               	movlw	0
  5581  001E3A  6E1E               	movwf	(___flmul@a+1)^0,c
  5582  001E3C  0E80               	movlw	128
  5583  001E3E  6E1F               	movwf	(___flmul@a+2)^0,c
  5584  001E40  0E4B               	movlw	75
  5585  001E42  6E20               	movwf	(___flmul@a+3)^0,c
  5586  001E44  EC47  F022         	call	___flmul	;wreg free
  5587  001E48  C019  F170         	movff	?___flmul,powf@ax
  5588  001E4C  C01A  F171         	movff	?___flmul+1,powf@ax+1
  5589  001E50  C01B  F172         	movff	?___flmul+2,powf@ax+2
  5590  001E54  C01C  F173         	movff	?___flmul+3,powf@ax+3
  5591  001E58  0EE8               	movlw	232
  5592  001E5A  0101               	movlb	1	; () banked
  5593  001E5C  2780               	addwf	powf@n& (0+255),f,b
  5594  001E5E  0EFF               	movlw	255
  5595  001E60  2381               	addwfc	(powf@n+1)& (0+255),f,b
  5596  001E62  0EFF               	movlw	255
  5597  001E64  2382               	addwfc	(powf@n+2)& (0+255),f,b
  5598  001E66  0EFF               	movlw	255
  5599  001E68  2383               	addwfc	(powf@n+3)& (0+255),f,b
  5600  001E6A                     
  5601                           ; BSR set to: 1
  5602  001E6A  C170  F1B8         	movff	powf@ax,powf@__xc8_float_word
  5603  001E6E  C171  F1B9         	movff	powf@ax+1,powf@__xc8_float_word+1
  5604  001E72  C172  F1BA         	movff	powf@ax+2,powf@__xc8_float_word+2
  5605  001E76  C173  F1BB         	movff	powf@ax+3,powf@__xc8_float_word+3
  5606  001E7A                     
  5607                           ; BSR set to: 1
  5608  001E7A  C1B8  F1A8         	movff	powf@__xc8_float_word,powf@ix
  5609  001E7E  C1B9  F1A9         	movff	powf@__xc8_float_word+1,powf@ix+1
  5610  001E82  C1BA  F1AA         	movff	powf@__xc8_float_word+2,powf@ix+2
  5611  001E86  C1BB  F1AB         	movff	powf@__xc8_float_word+3,powf@ix+3
  5612  001E8A                     l6111:
  5613                           
  5614                           ; BSR set to: 1
  5615  001E8A  0E17               	movlw	23
  5616  001E8C  0100               	movlb	0	; () banked
  5617  001E8E  6F90               	movwf	??_powf& (0+255),b
  5618  001E90  C1A8  F091         	movff	powf@ix,??_powf+1
  5619  001E94  C1A9  F092         	movff	powf@ix+1,??_powf+2
  5620  001E98  C1AA  F093         	movff	powf@ix+2,??_powf+3
  5621  001E9C  C1AB  F094         	movff	powf@ix+3,??_powf+4
  5622  001EA0                     u5895:
  5623  001EA0  6790               	tstfsz	??_powf& (0+255),b
  5624  001EA2  EF55  F00F         	goto	u5896
  5625  001EA6  EF5D  F00F         	goto	u5897
  5626  001EAA                     u5896:
  5627  001EAA  3594               	rlcf	(??_powf+4)& (0+255),w,b
  5628  001EAC  3394               	rrcf	(??_powf+4)& (0+255),f,b
  5629  001EAE  3393               	rrcf	(??_powf+3)& (0+255),f,b
  5630  001EB0  3392               	rrcf	(??_powf+2)& (0+255),f,b
  5631  001EB2  3391               	rrcf	(??_powf+1)& (0+255),f,b
  5632  001EB4  2F90               	decfsz	??_powf& (0+255),f,b
  5633  001EB6  EF50  F00F         	goto	u5895
  5634  001EBA                     u5897:
  5635  001EBA  0E81               	movlw	129
  5636  001EBC  0100               	movlb	0	; () banked
  5637  001EBE  2591               	addwf	(??_powf+1)& (0+255),w,b
  5638  001EC0  6F95               	movwf	(??_powf+5)& (0+255),b
  5639  001EC2  0EFF               	movlw	255
  5640  001EC4  2192               	addwfc	(??_powf+2)& (0+255),w,b
  5641  001EC6  6F96               	movwf	(??_powf+6)& (0+255),b
  5642  001EC8  0EFF               	movlw	255
  5643  001ECA  2193               	addwfc	(??_powf+3)& (0+255),w,b
  5644  001ECC  6F97               	movwf	(??_powf+7)& (0+255),b
  5645  001ECE  0EFF               	movlw	255
  5646  001ED0  2194               	addwfc	(??_powf+4)& (0+255),w,b
  5647  001ED2  6F98               	movwf	(??_powf+8)& (0+255),b
  5648  001ED4  5195               	movf	(??_powf+5)& (0+255),w,b
  5649  001ED6  0101               	movlb	1	; () banked
  5650  001ED8  2780               	addwf	powf@n& (0+255),f,b
  5651  001EDA  0100               	movlb	0	; () banked
  5652  001EDC  5196               	movf	(??_powf+6)& (0+255),w,b
  5653  001EDE  0101               	movlb	1	; () banked
  5654  001EE0  2381               	addwfc	(powf@n+1)& (0+255),f,b
  5655  001EE2  0100               	movlb	0	; () banked
  5656  001EE4  5197               	movf	(??_powf+7)& (0+255),w,b
  5657  001EE6  0101               	movlb	1	; () banked
  5658  001EE8  2382               	addwfc	(powf@n+2)& (0+255),f,b
  5659  001EEA  0100               	movlb	0	; () banked
  5660  001EEC  5198               	movf	(??_powf+8)& (0+255),w,b
  5661  001EEE  0101               	movlb	1	; () banked
  5662  001EF0  2383               	addwfc	(powf@n+3)& (0+255),f,b
  5663  001EF2                     
  5664                           ; BSR set to: 1
  5665  001EF2  0EFF               	movlw	255
  5666  001EF4  15A8               	andwf	powf@ix& (0+255),w,b
  5667  001EF6  6FAC               	movwf	powf@j& (0+255),b
  5668  001EF8  0EFF               	movlw	255
  5669  001EFA  15A9               	andwf	(powf@ix+1)& (0+255),w,b
  5670  001EFC  6FAD               	movwf	(powf@j+1)& (0+255),b
  5671  001EFE  0E7F               	movlw	127
  5672  001F00  15AA               	andwf	(powf@ix+2)& (0+255),w,b
  5673  001F02  6FAE               	movwf	(powf@j+2)& (0+255),b
  5674  001F04  0E00               	movlw	0
  5675  001F06  15AB               	andwf	(powf@ix+3)& (0+255),w,b
  5676  001F08  6FAF               	movwf	(powf@j+3)& (0+255),b
  5677  001F0A                     
  5678                           ; BSR set to: 1
  5679  001F0A  0E00               	movlw	0
  5680  001F0C  11AC               	iorwf	powf@j& (0+255),w,b
  5681  001F0E  6FA8               	movwf	powf@ix& (0+255),b
  5682  001F10  0E00               	movlw	0
  5683  001F12  11AD               	iorwf	(powf@j+1)& (0+255),w,b
  5684  001F14  6FA9               	movwf	(powf@ix+1)& (0+255),b
  5685  001F16  0E80               	movlw	128
  5686  001F18  11AE               	iorwf	(powf@j+2)& (0+255),w,b
  5687  001F1A  6FAA               	movwf	(powf@ix+2)& (0+255),b
  5688  001F1C  0E3F               	movlw	63
  5689  001F1E  11AF               	iorwf	(powf@j+3)& (0+255),w,b
  5690  001F20  6FAB               	movwf	(powf@ix+3)& (0+255),b
  5691  001F22                     
  5692                           ; BSR set to: 1
  5693  001F22  BFAF               	btfsc	(powf@j+3)& (0+255),7,b
  5694  001F24  EFA3  F00F         	goto	u5900
  5695  001F28  51AF               	movf	(powf@j+3)& (0+255),w,b
  5696  001F2A  E10B               	bnz	u5901
  5697  001F2C  0E72               	movlw	114
  5698  001F2E  5DAC               	subwf	powf@j& (0+255),w,b
  5699  001F30  0EC4               	movlw	196
  5700  001F32  59AD               	subwfb	(powf@j+1)& (0+255),w,b
  5701  001F34  0E1C               	movlw	28
  5702  001F36  59AE               	subwfb	(powf@j+2)& (0+255),w,b
  5703  001F38  B0D8               	btfsc	status,0,c
  5704  001F3A  EFA1  F00F         	goto	u5901
  5705  001F3E  EFA3  F00F         	goto	u5900
  5706  001F42                     u5901:
  5707  001F42  EFAD  F00F         	goto	l6121
  5708  001F46                     u5900:
  5709  001F46                     
  5710                           ; BSR set to: 1
  5711  001F46  0E00               	movlw	0
  5712  001F48  6FA0               	movwf	powf@k& (0+255),b
  5713  001F4A  0E00               	movlw	0
  5714  001F4C  6FA1               	movwf	(powf@k+1)& (0+255),b
  5715  001F4E  0E00               	movlw	0
  5716  001F50  6FA2               	movwf	(powf@k+2)& (0+255),b
  5717  001F52  0E00               	movlw	0
  5718  001F54  6FA3               	movwf	(powf@k+3)& (0+255),b
  5719  001F56  EFDF  F00F         	goto	l6131
  5720  001F5A                     l6121:
  5721                           
  5722                           ; BSR set to: 1
  5723  001F5A  BFAF               	btfsc	(powf@j+3)& (0+255),7,b
  5724  001F5C  EFBF  F00F         	goto	u5910
  5725  001F60  51AF               	movf	(powf@j+3)& (0+255),w,b
  5726  001F62  E10B               	bnz	u5911
  5727  001F64  0ED7               	movlw	215
  5728  001F66  5DAC               	subwf	powf@j& (0+255),w,b
  5729  001F68  0EB3               	movlw	179
  5730  001F6A  59AD               	subwfb	(powf@j+1)& (0+255),w,b
  5731  001F6C  0E5D               	movlw	93
  5732  001F6E  59AE               	subwfb	(powf@j+2)& (0+255),w,b
  5733  001F70  B0D8               	btfsc	status,0,c
  5734  001F72  EFBD  F00F         	goto	u5911
  5735  001F76  EFBF  F00F         	goto	u5910
  5736  001F7A                     u5911:
  5737  001F7A  EFC9  F00F         	goto	l6125
  5738  001F7E                     u5910:
  5739  001F7E                     
  5740                           ; BSR set to: 1
  5741  001F7E  0E01               	movlw	1
  5742  001F80  6FA0               	movwf	powf@k& (0+255),b
  5743  001F82  0E00               	movlw	0
  5744  001F84  6FA1               	movwf	(powf@k+1)& (0+255),b
  5745  001F86  0E00               	movlw	0
  5746  001F88  6FA2               	movwf	(powf@k+2)& (0+255),b
  5747  001F8A  0E00               	movlw	0
  5748  001F8C  6FA3               	movwf	(powf@k+3)& (0+255),b
  5749  001F8E  EFDF  F00F         	goto	l6131
  5750  001F92                     l6125:
  5751                           
  5752                           ; BSR set to: 1
  5753  001F92  0E00               	movlw	0
  5754  001F94  6FA0               	movwf	powf@k& (0+255),b
  5755  001F96  0E00               	movlw	0
  5756  001F98  6FA1               	movwf	(powf@k+1)& (0+255),b
  5757  001F9A  0E00               	movlw	0
  5758  001F9C  6FA2               	movwf	(powf@k+2)& (0+255),b
  5759  001F9E  0E00               	movlw	0
  5760  001FA0  6FA3               	movwf	(powf@k+3)& (0+255),b
  5761  001FA2                     
  5762                           ; BSR set to: 1
  5763  001FA2  0E01               	movlw	1
  5764  001FA4  2780               	addwf	powf@n& (0+255),f,b
  5765  001FA6  0E00               	movlw	0
  5766  001FA8  2381               	addwfc	(powf@n+1)& (0+255),f,b
  5767  001FAA  2382               	addwfc	(powf@n+2)& (0+255),f,b
  5768  001FAC  2383               	addwfc	(powf@n+3)& (0+255),f,b
  5769  001FAE                     
  5770                           ; BSR set to: 1
  5771  001FAE  0E00               	movlw	0
  5772  001FB0  27A8               	addwf	powf@ix& (0+255),f,b
  5773  001FB2  0E00               	movlw	0
  5774  001FB4  23A9               	addwfc	(powf@ix+1)& (0+255),f,b
  5775  001FB6  0E80               	movlw	128
  5776  001FB8  23AA               	addwfc	(powf@ix+2)& (0+255),f,b
  5777  001FBA  0EFF               	movlw	255
  5778  001FBC  23AB               	addwfc	(powf@ix+3)& (0+255),f,b
  5779  001FBE                     l6131:
  5780                           
  5781                           ; BSR set to: 1
  5782  001FBE  C1A8  F1B8         	movff	powf@ix,powf@__xc8_float_word
  5783  001FC2  C1A9  F1B9         	movff	powf@ix+1,powf@__xc8_float_word+1
  5784  001FC6  C1AA  F1BA         	movff	powf@ix+2,powf@__xc8_float_word+2
  5785  001FCA  C1AB  F1BB         	movff	powf@ix+3,powf@__xc8_float_word+3
  5786  001FCE                     
  5787                           ; BSR set to: 1
  5788  001FCE  C1B8  F170         	movff	powf@__xc8_float_word,powf@ax
  5789  001FD2  C1B9  F171         	movff	powf@__xc8_float_word+1,powf@ax+1
  5790  001FD6  C1BA  F172         	movff	powf@__xc8_float_word+2,powf@ax+2
  5791  001FDA  C1BB  F173         	movff	powf@__xc8_float_word+3,powf@ax+3
  5792  001FDE                     
  5793                           ; BSR set to: 1
  5794  001FDE  C170  F032         	movff	powf@ax,___flsub@b
  5795  001FE2  C171  F033         	movff	powf@ax+1,___flsub@b+1
  5796  001FE6  C172  F034         	movff	powf@ax+2,___flsub@b+2
  5797  001FEA  C173  F035         	movff	powf@ax+3,___flsub@b+3
  5798  001FEE  C1A0  F090         	movff	powf@k,??_powf
  5799  001FF2  C1A1  F091         	movff	powf@k+1,??_powf+1
  5800  001FF6  0100               	movlb	0	; () banked
  5801  001FF8  90D8               	bcf	status,0,c
  5802  001FFA  3790               	rlcf	??_powf& (0+255),f,b
  5803  001FFC  3791               	rlcf	(??_powf+1)& (0+255),f,b
  5804  001FFE  90D8               	bcf	status,0,c
  5805  002000  3790               	rlcf	??_powf& (0+255),f,b
  5806  002002  3791               	rlcf	(??_powf+1)& (0+255),f,b
  5807  002004  0E69               	movlw	low _bp
  5808  002006  2590               	addwf	??_powf& (0+255),w,b
  5809  002008  6EF6               	movwf	tblptrl,c
  5810  00200A  0E10               	movlw	high _bp
  5811  00200C  2191               	addwfc	(??_powf+1)& (0+255),w,b
  5812  00200E  6EF7               	movwf	tblptrh,c
  5813  002010                     	if	1	;There are 3 active tblptr bytes
  5814  002010  6AF8               	clrf	tblptru,c
  5815  002012  0E00               	movlw	low (__mediumconst shr (0+16))
  5816  002014  22F8               	addwfc	tblptru,f,c
  5817  002016                     	endif
  5818  002016  0009               	tblrd		*+
  5819  002018  CFF5 F036          	movff	tablat,___flsub@a
  5820  00201C  0009               	tblrd		*+
  5821  00201E  CFF5 F037          	movff	tablat,___flsub@a+1
  5822  002022  0009               	tblrd		*+
  5823  002024  CFF5 F038          	movff	tablat,___flsub@a+2
  5824  002028  000A               	tblrd		*-
  5825  00202A  CFF5 F039          	movff	tablat,___flsub@a+3
  5826  00202E  EC79  F031         	call	___flsub	;wreg free
  5827  002032  C032  F174         	movff	?___flsub,powf@u
  5828  002036  C033  F175         	movff	?___flsub+1,powf@u+1
  5829  00203A  C034  F176         	movff	?___flsub+2,powf@u+2
  5830  00203E  C035  F177         	movff	?___flsub+3,powf@u+3
  5831  002042  0E00               	movlw	0
  5832  002044  6E3A               	movwf	___fldiv@b^0,c
  5833  002046  0E00               	movlw	0
  5834  002048  6E3B               	movwf	(___fldiv@b+1)^0,c
  5835  00204A  0E80               	movlw	128
  5836  00204C  6E3C               	movwf	(___fldiv@b+2)^0,c
  5837  00204E  0E3F               	movlw	63
  5838  002050  6E3D               	movwf	(___fldiv@b+3)^0,c
  5839  002052  C170  F00D         	movff	powf@ax,___fladd@a
  5840  002056  C171  F00E         	movff	powf@ax+1,___fladd@a+1
  5841  00205A  C172  F00F         	movff	powf@ax+2,___fladd@a+2
  5842  00205E  C173  F010         	movff	powf@ax+3,___fladd@a+3
  5843  002062  C1A0  F090         	movff	powf@k,??_powf
  5844  002066  C1A1  F091         	movff	powf@k+1,??_powf+1
  5845  00206A  0100               	movlb	0	; () banked
  5846  00206C  90D8               	bcf	status,0,c
  5847  00206E  3790               	rlcf	??_powf& (0+255),f,b
  5848  002070  3791               	rlcf	(??_powf+1)& (0+255),f,b
  5849  002072  90D8               	bcf	status,0,c
  5850  002074  3790               	rlcf	??_powf& (0+255),f,b
  5851  002076  3791               	rlcf	(??_powf+1)& (0+255),f,b
  5852  002078  0E69               	movlw	low _bp
  5853  00207A  2590               	addwf	??_powf& (0+255),w,b
  5854  00207C  6EF6               	movwf	tblptrl,c
  5855  00207E  0E10               	movlw	high _bp
  5856  002080  2191               	addwfc	(??_powf+1)& (0+255),w,b
  5857  002082  6EF7               	movwf	tblptrh,c
  5858  002084                     	if	1	;There are 3 active tblptr bytes
  5859  002084  6AF8               	clrf	tblptru,c
  5860  002086  0E00               	movlw	low (__mediumconst shr (0+16))
  5861  002088  22F8               	addwfc	tblptru,f,c
  5862  00208A                     	endif
  5863  00208A  0009               	tblrd		*+
  5864  00208C  CFF5 F009          	movff	tablat,___fladd@b
  5865  002090  0009               	tblrd		*+
  5866  002092  CFF5 F00A          	movff	tablat,___fladd@b+1
  5867  002096  0009               	tblrd		*+
  5868  002098  CFF5 F00B          	movff	tablat,___fladd@b+2
  5869  00209C  000A               	tblrd		*-
  5870  00209E  CFF5 F00C          	movff	tablat,___fladd@b+3
  5871  0020A2  ECE7  F01F         	call	___fladd	;wreg free
  5872  0020A6  C009  F03E         	movff	?___fladd,___fldiv@a
  5873  0020AA  C00A  F03F         	movff	?___fladd+1,___fldiv@a+1
  5874  0020AE  C00B  F040         	movff	?___fladd+2,___fldiv@a+2
  5875  0020B2  C00C  F041         	movff	?___fladd+3,___fldiv@a+3
  5876  0020B6  EC5C  F024         	call	___fldiv	;wreg free
  5877  0020BA  C03A  F178         	movff	?___fldiv,powf@v
  5878  0020BE  C03B  F179         	movff	?___fldiv+1,powf@v+1
  5879  0020C2  C03C  F17A         	movff	?___fldiv+2,powf@v+2
  5880  0020C6  C03D  F17B         	movff	?___fldiv+3,powf@v+3
  5881  0020CA  C174  F019         	movff	powf@u,___flmul@b
  5882  0020CE  C175  F01A         	movff	powf@u+1,___flmul@b+1
  5883  0020D2  C176  F01B         	movff	powf@u+2,___flmul@b+2
  5884  0020D6  C177  F01C         	movff	powf@u+3,___flmul@b+3
  5885  0020DA  C178  F01D         	movff	powf@v,___flmul@a
  5886  0020DE  C179  F01E         	movff	powf@v+1,___flmul@a+1
  5887  0020E2  C17A  F01F         	movff	powf@v+2,___flmul@a+2
  5888  0020E6  C17B  F020         	movff	powf@v+3,___flmul@a+3
  5889  0020EA  EC47  F022         	call	___flmul	;wreg free
  5890  0020EE  C019  F15C         	movff	?___flmul,powf@s
  5891  0020F2  C01A  F15D         	movff	?___flmul+1,powf@s+1
  5892  0020F6  C01B  F15E         	movff	?___flmul+2,powf@s+2
  5893  0020FA  C01C  F15F         	movff	?___flmul+3,powf@s+3
  5894  0020FE  C15C  F16C         	movff	powf@s,powf@s_h
  5895  002102  C15D  F16D         	movff	powf@s+1,powf@s_h+1
  5896  002106  C15E  F16E         	movff	powf@s+2,powf@s_h+2
  5897  00210A  C15F  F16F         	movff	powf@s+3,powf@s_h+3
  5898  00210E  C16C  F1B8         	movff	powf@s_h,powf@__xc8_float_word
  5899  002112  C16D  F1B9         	movff	powf@s_h+1,powf@__xc8_float_word+1
  5900  002116  C16E  F1BA         	movff	powf@s_h+2,powf@__xc8_float_word+2
  5901  00211A  C16F  F1BB         	movff	powf@s_h+3,powf@__xc8_float_word+3
  5902  00211E  C1B8  F194         	movff	powf@__xc8_float_word,powf@is
  5903  002122  C1B9  F195         	movff	powf@__xc8_float_word+1,powf@is+1
  5904  002126  C1BA  F196         	movff	powf@__xc8_float_word+2,powf@is+2
  5905  00212A  C1BB  F197         	movff	powf@__xc8_float_word+3,powf@is+3
  5906  00212E  0E00               	movlw	0
  5907  002130  0101               	movlb	1	; () banked
  5908  002132  1594               	andwf	powf@is& (0+255),w,b
  5909  002134  6FB8               	movwf	powf@__xc8_float_word& (0+255),b
  5910  002136  0EF0               	movlw	240
  5911  002138  1595               	andwf	(powf@is+1)& (0+255),w,b
  5912  00213A  6FB9               	movwf	(powf@__xc8_float_word+1)& (0+255),b
  5913  00213C  0EFF               	movlw	255
  5914  00213E  1596               	andwf	(powf@is+2)& (0+255),w,b
  5915  002140  6FBA               	movwf	(powf@__xc8_float_word+2)& (0+255),b
  5916  002142  0EFF               	movlw	255
  5917  002144  1597               	andwf	(powf@is+3)& (0+255),w,b
  5918  002146  6FBB               	movwf	(powf@__xc8_float_word+3)& (0+255),b
  5919  002148                     
  5920                           ; BSR set to: 1
  5921  002148  C1B8  F16C         	movff	powf@__xc8_float_word,powf@s_h
  5922  00214C  C1B9  F16D         	movff	powf@__xc8_float_word+1,powf@s_h+1
  5923  002150  C1BA  F16E         	movff	powf@__xc8_float_word+2,powf@s_h+2
  5924  002154  C1BB  F16F         	movff	powf@__xc8_float_word+3,powf@s_h+3
  5925  002158                     
  5926                           ; BSR set to: 1
  5927  002158  C1A8  F090         	movff	powf@ix,??_powf
  5928  00215C  C1A9  F091         	movff	powf@ix+1,??_powf+1
  5929  002160  C1AA  F092         	movff	powf@ix+2,??_powf+2
  5930  002164  C1AB  F093         	movff	powf@ix+3,??_powf+3
  5931  002168  0100               	movlb	0	; () banked
  5932  00216A  3593               	rlcf	(??_powf+3)& (0+255),w,b
  5933  00216C  3393               	rrcf	(??_powf+3)& (0+255),f,b
  5934  00216E  3392               	rrcf	(??_powf+2)& (0+255),f,b
  5935  002170  3391               	rrcf	(??_powf+1)& (0+255),f,b
  5936  002172  3390               	rrcf	??_powf& (0+255),f,b
  5937  002174  0E00               	movlw	0
  5938  002176  1590               	andwf	??_powf& (0+255),w,b
  5939  002178  6F94               	movwf	(??_powf+4)& (0+255),b
  5940  00217A  0EF0               	movlw	240
  5941  00217C  1591               	andwf	(??_powf+1)& (0+255),w,b
  5942  00217E  6F95               	movwf	(??_powf+5)& (0+255),b
  5943  002180  0EFF               	movlw	255
  5944  002182  1592               	andwf	(??_powf+2)& (0+255),w,b
  5945  002184  6F96               	movwf	(??_powf+6)& (0+255),b
  5946  002186  0EFF               	movlw	255
  5947  002188  1593               	andwf	(??_powf+3)& (0+255),w,b
  5948  00218A  6F97               	movwf	(??_powf+7)& (0+255),b
  5949  00218C  0E00               	movlw	0
  5950  00218E  1194               	iorwf	(??_powf+4)& (0+255),w,b
  5951  002190  0101               	movlb	1	; () banked
  5952  002192  6F94               	movwf	powf@is& (0+255),b
  5953  002194  0E00               	movlw	0
  5954  002196  0100               	movlb	0	; () banked
  5955  002198  1195               	iorwf	(??_powf+5)& (0+255),w,b
  5956  00219A  0101               	movlb	1	; () banked
  5957  00219C  6F95               	movwf	(powf@is+1)& (0+255),b
  5958  00219E  0E00               	movlw	0
  5959  0021A0  0100               	movlb	0	; () banked
  5960  0021A2  1196               	iorwf	(??_powf+6)& (0+255),w,b
  5961  0021A4  0101               	movlb	1	; () banked
  5962  0021A6  6F96               	movwf	(powf@is+2)& (0+255),b
  5963  0021A8  0E20               	movlw	32
  5964  0021AA  0100               	movlb	0	; () banked
  5965  0021AC  1197               	iorwf	(??_powf+7)& (0+255),w,b
  5966  0021AE  0101               	movlb	1	; () banked
  5967  0021B0  6F97               	movwf	(powf@is+3)& (0+255),b
  5968  0021B2                     
  5969                           ; BSR set to: 1
  5970  0021B2  C1A0  F090         	movff	powf@k,??_powf
  5971  0021B6  C1A1  F091         	movff	powf@k+1,??_powf+1
  5972  0021BA  C1A2  F092         	movff	powf@k+2,??_powf+2
  5973  0021BE  C1A3  F093         	movff	powf@k+3,??_powf+3
  5974  0021C2  0E15               	movlw	21
  5975  0021C4                     u5925:
  5976  0021C4  90D8               	bcf	status,0,c
  5977  0021C6  0100               	movlb	0	; () banked
  5978  0021C8  3790               	rlcf	??_powf& (0+255),f,b
  5979  0021CA  3791               	rlcf	(??_powf+1)& (0+255),f,b
  5980  0021CC  3792               	rlcf	(??_powf+2)& (0+255),f,b
  5981  0021CE  3793               	rlcf	(??_powf+3)& (0+255),f,b
  5982  0021D0  2EE8               	decfsz	wreg,f,c
  5983  0021D2  EFE2  F010         	goto	u5925
  5984  0021D6  0101               	movlb	1	; () banked
  5985  0021D8  5194               	movf	powf@is& (0+255),w,b
  5986  0021DA  0100               	movlb	0	; () banked
  5987  0021DC  2590               	addwf	??_powf& (0+255),w,b
  5988  0021DE  6F94               	movwf	(??_powf+4)& (0+255),b
  5989  0021E0  0101               	movlb	1	; () banked
  5990  0021E2  5195               	movf	(powf@is+1)& (0+255),w,b
  5991  0021E4  0100               	movlb	0	; () banked
  5992  0021E6  2191               	addwfc	(??_powf+1)& (0+255),w,b
  5993  0021E8  6F95               	movwf	(??_powf+5)& (0+255),b
  5994  0021EA  0101               	movlb	1	; () banked
  5995  0021EC  5196               	movf	(powf@is+2)& (0+255),w,b
  5996  0021EE  0100               	movlb	0	; () banked
  5997  0021F0  2192               	addwfc	(??_powf+2)& (0+255),w,b
  5998  0021F2  6F96               	movwf	(??_powf+6)& (0+255),b
  5999  0021F4  0101               	movlb	1	; () banked
  6000  0021F6  5197               	movf	(powf@is+3)& (0+255),w,b
  6001  0021F8  0100               	movlb	0	; () banked
  6002  0021FA  2193               	addwfc	(??_powf+3)& (0+255),w,b
  6003  0021FC  6F97               	movwf	(??_powf+7)& (0+255),b
  6004  0021FE  0E00               	movlw	0
  6005  002200  2594               	addwf	(??_powf+4)& (0+255),w,b
  6006  002202  0101               	movlb	1	; () banked
  6007  002204  6FB8               	movwf	powf@__xc8_float_word& (0+255),b
  6008  002206  0E00               	movlw	0
  6009  002208  0100               	movlb	0	; () banked
  6010  00220A  2195               	addwfc	(??_powf+5)& (0+255),w,b
  6011  00220C  0101               	movlb	1	; () banked
  6012  00220E  6FB9               	movwf	(powf@__xc8_float_word+1)& (0+255),b
  6013  002210  0E40               	movlw	64
  6014  002212  0100               	movlb	0	; () banked
  6015  002214  2196               	addwfc	(??_powf+6)& (0+255),w,b
  6016  002216  0101               	movlb	1	; () banked
  6017  002218  6FBA               	movwf	(powf@__xc8_float_word+2)& (0+255),b
  6018  00221A  0E00               	movlw	0
  6019  00221C  0100               	movlb	0	; () banked
  6020  00221E  2197               	addwfc	(??_powf+7)& (0+255),w,b
  6021  002220  0101               	movlb	1	; () banked
  6022  002222  6FBB               	movwf	(powf@__xc8_float_word+3)& (0+255),b
  6023  002224                     
  6024                           ; BSR set to: 1
  6025  002224  C1B8  F168         	movff	powf@__xc8_float_word,powf@t_h
  6026  002228  C1B9  F169         	movff	powf@__xc8_float_word+1,powf@t_h+1
  6027  00222C  C1BA  F16A         	movff	powf@__xc8_float_word+2,powf@t_h+2
  6028  002230  C1BB  F16B         	movff	powf@__xc8_float_word+3,powf@t_h+3
  6029  002234                     
  6030                           ; BSR set to: 1
  6031  002234  C1A0  F090         	movff	powf@k,??_powf
  6032  002238  C1A1  F091         	movff	powf@k+1,??_powf+1
  6033  00223C  0100               	movlb	0	; () banked
  6034  00223E  90D8               	bcf	status,0,c
  6035  002240  3790               	rlcf	??_powf& (0+255),f,b
  6036  002242  3791               	rlcf	(??_powf+1)& (0+255),f,b
  6037  002244  90D8               	bcf	status,0,c
  6038  002246  3790               	rlcf	??_powf& (0+255),f,b
  6039  002248  3791               	rlcf	(??_powf+1)& (0+255),f,b
  6040  00224A  0E69               	movlw	low _bp
  6041  00224C  2590               	addwf	??_powf& (0+255),w,b
  6042  00224E  6EF6               	movwf	tblptrl,c
  6043  002250  0E10               	movlw	high _bp
  6044  002252  2191               	addwfc	(??_powf+1)& (0+255),w,b
  6045  002254  6EF7               	movwf	tblptrh,c
  6046  002256                     	if	1	;There are 3 active tblptr bytes
  6047  002256  6AF8               	clrf	tblptru,c
  6048  002258  0E00               	movlw	low (__mediumconst shr (0+16))
  6049  00225A  22F8               	addwfc	tblptru,f,c
  6050  00225C                     	endif
  6051  00225C  0009               	tblrd		*+
  6052  00225E  CFF5 F036          	movff	tablat,___flsub@a
  6053  002262  0009               	tblrd		*+
  6054  002264  CFF5 F037          	movff	tablat,___flsub@a+1
  6055  002268  0009               	tblrd		*+
  6056  00226A  CFF5 F038          	movff	tablat,___flsub@a+2
  6057  00226E  000A               	tblrd		*-
  6058  002270  CFF5 F039          	movff	tablat,___flsub@a+3
  6059  002274  C168  F032         	movff	powf@t_h,___flsub@b
  6060  002278  C169  F033         	movff	powf@t_h+1,___flsub@b+1
  6061  00227C  C16A  F034         	movff	powf@t_h+2,___flsub@b+2
  6062  002280  C16B  F035         	movff	powf@t_h+3,___flsub@b+3
  6063  002284  EC79  F031         	call	___flsub	;wreg free
  6064  002288  C032  F198         	movff	?___flsub,_powf$1825
  6065  00228C  C033  F199         	movff	?___flsub+1,_powf$1825+1
  6066  002290  C034  F19A         	movff	?___flsub+2,_powf$1825+2
  6067  002294  C035  F19B         	movff	?___flsub+3,_powf$1825+3
  6068  002298  C170  F032         	movff	powf@ax,___flsub@b
  6069  00229C  C171  F033         	movff	powf@ax+1,___flsub@b+1
  6070  0022A0  C172  F034         	movff	powf@ax+2,___flsub@b+2
  6071  0022A4  C173  F035         	movff	powf@ax+3,___flsub@b+3
  6072  0022A8  C198  F036         	movff	_powf$1825,___flsub@a
  6073  0022AC  C199  F037         	movff	_powf$1825+1,___flsub@a+1
  6074  0022B0  C19A  F038         	movff	_powf$1825+2,___flsub@a+2
  6075  0022B4  C19B  F039         	movff	_powf$1825+3,___flsub@a+3
  6076  0022B8  EC79  F031         	call	___flsub	;wreg free
  6077  0022BC  C032  F134         	movff	?___flsub,powf@t_l
  6078  0022C0  C033  F135         	movff	?___flsub+1,powf@t_l+1
  6079  0022C4  C034  F136         	movff	?___flsub+2,powf@t_l+2
  6080  0022C8  C035  F137         	movff	?___flsub+3,powf@t_l+3
  6081  0022CC  C168  F01D         	movff	powf@t_h,___flmul@a
  6082  0022D0  C169  F01E         	movff	powf@t_h+1,___flmul@a+1
  6083  0022D4  C16A  F01F         	movff	powf@t_h+2,___flmul@a+2
  6084  0022D8  C16B  F020         	movff	powf@t_h+3,___flmul@a+3
  6085  0022DC  C16C  F019         	movff	powf@s_h,___flmul@b
  6086  0022E0  C16D  F01A         	movff	powf@s_h+1,___flmul@b+1
  6087  0022E4  C16E  F01B         	movff	powf@s_h+2,___flmul@b+2
  6088  0022E8  C16F  F01C         	movff	powf@s_h+3,___flmul@b+3
  6089  0022EC  EC47  F022         	call	___flmul	;wreg free
  6090  0022F0  C019  F036         	movff	?___flmul,___flsub@a
  6091  0022F4  C01A  F037         	movff	?___flmul+1,___flsub@a+1
  6092  0022F8  C01B  F038         	movff	?___flmul+2,___flsub@a+2
  6093  0022FC  C01C  F039         	movff	?___flmul+3,___flsub@a+3
  6094  002300  C174  F032         	movff	powf@u,___flsub@b
  6095  002304  C175  F033         	movff	powf@u+1,___flsub@b+1
  6096  002308  C176  F034         	movff	powf@u+2,___flsub@b+2
  6097  00230C  C177  F035         	movff	powf@u+3,___flsub@b+3
  6098  002310  EC79  F031         	call	___flsub	;wreg free
  6099  002314  C032  F198         	movff	?___flsub,_powf$1825
  6100  002318  C033  F199         	movff	?___flsub+1,_powf$1825+1
  6101  00231C  C034  F19A         	movff	?___flsub+2,_powf$1825+2
  6102  002320  C035  F19B         	movff	?___flsub+3,_powf$1825+3
  6103  002324  C134  F01D         	movff	powf@t_l,___flmul@a
  6104  002328  C135  F01E         	movff	powf@t_l+1,___flmul@a+1
  6105  00232C  C136  F01F         	movff	powf@t_l+2,___flmul@a+2
  6106  002330  C137  F020         	movff	powf@t_l+3,___flmul@a+3
  6107  002334  C16C  F019         	movff	powf@s_h,___flmul@b
  6108  002338  C16D  F01A         	movff	powf@s_h+1,___flmul@b+1
  6109  00233C  C16E  F01B         	movff	powf@s_h+2,___flmul@b+2
  6110  002340  C16F  F01C         	movff	powf@s_h+3,___flmul@b+3
  6111  002344  EC47  F022         	call	___flmul	;wreg free
  6112  002348  C019  F036         	movff	?___flmul,___flsub@a
  6113  00234C  C01A  F037         	movff	?___flmul+1,___flsub@a+1
  6114  002350  C01B  F038         	movff	?___flmul+2,___flsub@a+2
  6115  002354  C01C  F039         	movff	?___flmul+3,___flsub@a+3
  6116  002358  C198  F032         	movff	_powf$1825,___flsub@b
  6117  00235C  C199  F033         	movff	_powf$1825+1,___flsub@b+1
  6118  002360  C19A  F034         	movff	_powf$1825+2,___flsub@b+2
  6119  002364  C19B  F035         	movff	_powf$1825+3,___flsub@b+3
  6120  002368  EC79  F031         	call	___flsub	;wreg free
  6121  00236C  C032  F154         	movff	?___flsub,_powf$1823
  6122  002370  C033  F155         	movff	?___flsub+1,_powf$1823+1
  6123  002374  C034  F156         	movff	?___flsub+2,_powf$1823+2
  6124  002378  C035  F157         	movff	?___flsub+3,_powf$1823+3
  6125  00237C  C154  F019         	movff	_powf$1823,___flmul@b
  6126  002380  C155  F01A         	movff	_powf$1823+1,___flmul@b+1
  6127  002384  C156  F01B         	movff	_powf$1823+2,___flmul@b+2
  6128  002388  C157  F01C         	movff	_powf$1823+3,___flmul@b+3
  6129  00238C  C178  F01D         	movff	powf@v,___flmul@a
  6130  002390  C179  F01E         	movff	powf@v+1,___flmul@a+1
  6131  002394  C17A  F01F         	movff	powf@v+2,___flmul@a+2
  6132  002398  C17B  F020         	movff	powf@v+3,___flmul@a+3
  6133  00239C  EC47  F022         	call	___flmul	;wreg free
  6134  0023A0  C019  F130         	movff	?___flmul,powf@s_l
  6135  0023A4  C01A  F131         	movff	?___flmul+1,powf@s_l+1
  6136  0023A8  C01B  F132         	movff	?___flmul+2,powf@s_l+2
  6137  0023AC  C01C  F133         	movff	?___flmul+3,powf@s_l+3
  6138  0023B0  C15C  F019         	movff	powf@s,___flmul@b
  6139  0023B4  C15D  F01A         	movff	powf@s+1,___flmul@b+1
  6140  0023B8  C15E  F01B         	movff	powf@s+2,___flmul@b+2
  6141  0023BC  C15F  F01C         	movff	powf@s+3,___flmul@b+3
  6142  0023C0  C15C  F01D         	movff	powf@s,___flmul@a
  6143  0023C4  C15D  F01E         	movff	powf@s+1,___flmul@a+1
  6144  0023C8  C15E  F01F         	movff	powf@s+2,___flmul@a+2
  6145  0023CC  C15F  F020         	movff	powf@s+3,___flmul@a+3
  6146  0023D0  EC47  F022         	call	___flmul	;wreg free
  6147  0023D4  C019  F18C         	movff	?___flmul,powf@s2
  6148  0023D8  C01A  F18D         	movff	?___flmul+1,powf@s2+1
  6149  0023DC  C01B  F18E         	movff	?___flmul+2,powf@s2+2
  6150  0023E0  C01C  F18F         	movff	?___flmul+3,powf@s2+3
  6151  0023E4  0E55               	movlw	85
  6152  0023E6  6E0D               	movwf	___fladd@a^0,c
  6153  0023E8  0E32               	movlw	50
  6154  0023EA  6E0E               	movwf	(___fladd@a+1)^0,c
  6155  0023EC  0E6C               	movlw	108
  6156  0023EE  6E0F               	movwf	(___fladd@a+2)^0,c
  6157  0023F0  0E3E               	movlw	62
  6158  0023F2  6E10               	movwf	(___fladd@a+3)^0,c
  6159  0023F4  0E42               	movlw	66
  6160  0023F6  6E1D               	movwf	___flmul@a^0,c
  6161  0023F8  0EF1               	movlw	241
  6162  0023FA  6E1E               	movwf	(___flmul@a+1)^0,c
  6163  0023FC  0E53               	movlw	83
  6164  0023FE  6E1F               	movwf	(___flmul@a+2)^0,c
  6165  002400  0E3E               	movlw	62
  6166  002402  6E20               	movwf	(___flmul@a+3)^0,c
  6167  002404  C18C  F019         	movff	powf@s2,___flmul@b
  6168  002408  C18D  F01A         	movff	powf@s2+1,___flmul@b+1
  6169  00240C  C18E  F01B         	movff	powf@s2+2,___flmul@b+2
  6170  002410  C18F  F01C         	movff	powf@s2+3,___flmul@b+3
  6171  002414  EC47  F022         	call	___flmul	;wreg free
  6172  002418  C019  F009         	movff	?___flmul,___fladd@b
  6173  00241C  C01A  F00A         	movff	?___flmul+1,___fladd@b+1
  6174  002420  C01B  F00B         	movff	?___flmul+2,___fladd@b+2
  6175  002424  C01C  F00C         	movff	?___flmul+3,___fladd@b+3
  6176  002428  ECE7  F01F         	call	___fladd	;wreg free
  6177  00242C  C009  F1A4         	movff	?___fladd,_powf$1822
  6178  002430  C00A  F1A5         	movff	?___fladd+1,_powf$1822+1
  6179  002434  C00B  F1A6         	movff	?___fladd+2,_powf$1822+2
  6180  002438  C00C  F1A7         	movff	?___fladd+3,_powf$1822+3
  6181  00243C  0E05               	movlw	5
  6182  00243E  6E0D               	movwf	___fladd@a^0,c
  6183  002440  0EA3               	movlw	163
  6184  002442  6E0E               	movwf	(___fladd@a+1)^0,c
  6185  002444  0E8B               	movlw	139
  6186  002446  6E0F               	movwf	(___fladd@a+2)^0,c
  6187  002448  0E3E               	movlw	62
  6188  00244A  6E10               	movwf	(___fladd@a+3)^0,c
  6189  00244C  C18C  F01D         	movff	powf@s2,___flmul@a
  6190  002450  C18D  F01E         	movff	powf@s2+1,___flmul@a+1
  6191  002454  C18E  F01F         	movff	powf@s2+2,___flmul@a+2
  6192  002458  C18F  F020         	movff	powf@s2+3,___flmul@a+3
  6193  00245C  C1A4  F019         	movff	_powf$1822,___flmul@b
  6194  002460  C1A5  F01A         	movff	_powf$1822+1,___flmul@b+1
  6195  002464  C1A6  F01B         	movff	_powf$1822+2,___flmul@b+2
  6196  002468  C1A7  F01C         	movff	_powf$1822+3,___flmul@b+3
  6197  00246C  EC47  F022         	call	___flmul	;wreg free
  6198  002470  C019  F009         	movff	?___flmul,___fladd@b
  6199  002474  C01A  F00A         	movff	?___flmul+1,___fladd@b+1
  6200  002478  C01B  F00B         	movff	?___flmul+2,___fladd@b+2
  6201  00247C  C01C  F00C         	movff	?___flmul+3,___fladd@b+3
  6202  002480  ECE7  F01F         	call	___fladd	;wreg free
  6203  002484  C009  F154         	movff	?___fladd,_powf$1823
  6204  002488  C00A  F155         	movff	?___fladd+1,_powf$1823+1
  6205  00248C  C00B  F156         	movff	?___fladd+2,_powf$1823+2
  6206  002490  C00C  F157         	movff	?___fladd+3,_powf$1823+3
  6207  002494  0EAB               	movlw	171
  6208  002496  6E0D               	movwf	___fladd@a^0,c
  6209  002498  0EAA               	movlw	170
  6210  00249A  6E0E               	movwf	(___fladd@a+1)^0,c
  6211  00249C  0EAA               	movlw	170
  6212  00249E  6E0F               	movwf	(___fladd@a+2)^0,c
  6213  0024A0  0E3E               	movlw	62
  6214  0024A2  6E10               	movwf	(___fladd@a+3)^0,c
  6215  0024A4  C18C  F01D         	movff	powf@s2,___flmul@a
  6216  0024A8  C18D  F01E         	movff	powf@s2+1,___flmul@a+1
  6217  0024AC  C18E  F01F         	movff	powf@s2+2,___flmul@a+2
  6218  0024B0  C18F  F020         	movff	powf@s2+3,___flmul@a+3
  6219  0024B4  C154  F019         	movff	_powf$1823,___flmul@b
  6220  0024B8  C155  F01A         	movff	_powf$1823+1,___flmul@b+1
  6221  0024BC  C156  F01B         	movff	_powf$1823+2,___flmul@b+2
  6222  0024C0  C157  F01C         	movff	_powf$1823+3,___flmul@b+3
  6223  0024C4  EC47  F022         	call	___flmul	;wreg free
  6224  0024C8  C019  F009         	movff	?___flmul,___fladd@b
  6225  0024CC  C01A  F00A         	movff	?___flmul+1,___fladd@b+1
  6226  0024D0  C01B  F00B         	movff	?___flmul+2,___fladd@b+2
  6227  0024D4  C01C  F00C         	movff	?___flmul+3,___fladd@b+3
  6228  0024D8  ECE7  F01F         	call	___fladd	;wreg free
  6229  0024DC  C009  F148         	movff	?___fladd,_powf$1824
  6230  0024E0  C00A  F149         	movff	?___fladd+1,_powf$1824+1
  6231  0024E4  C00B  F14A         	movff	?___fladd+2,_powf$1824+2
  6232  0024E8  C00C  F14B         	movff	?___fladd+3,_powf$1824+3
  6233  0024EC  0EB7               	movlw	183
  6234  0024EE  6E0D               	movwf	___fladd@a^0,c
  6235  0024F0  0E6D               	movlw	109
  6236  0024F2  6E0E               	movwf	(___fladd@a+1)^0,c
  6237  0024F4  0EDB               	movlw	219
  6238  0024F6  6E0F               	movwf	(___fladd@a+2)^0,c
  6239  0024F8  0E3E               	movlw	62
  6240  0024FA  6E10               	movwf	(___fladd@a+3)^0,c
  6241  0024FC  C18C  F01D         	movff	powf@s2,___flmul@a
  6242  002500  C18D  F01E         	movff	powf@s2+1,___flmul@a+1
  6243  002504  C18E  F01F         	movff	powf@s2+2,___flmul@a+2
  6244  002508  C18F  F020         	movff	powf@s2+3,___flmul@a+3
  6245  00250C  C148  F019         	movff	_powf$1824,___flmul@b
  6246  002510  C149  F01A         	movff	_powf$1824+1,___flmul@b+1
  6247  002514  C14A  F01B         	movff	_powf$1824+2,___flmul@b+2
  6248  002518  C14B  F01C         	movff	_powf$1824+3,___flmul@b+3
  6249  00251C  EC47  F022         	call	___flmul	;wreg free
  6250  002520  C019  F009         	movff	?___flmul,___fladd@b
  6251  002524  C01A  F00A         	movff	?___flmul+1,___fladd@b+1
  6252  002528  C01B  F00B         	movff	?___flmul+2,___fladd@b+2
  6253  00252C  C01C  F00C         	movff	?___flmul+3,___fladd@b+3
  6254  002530  ECE7  F01F         	call	___fladd	;wreg free
  6255  002534  C009  F138         	movff	?___fladd,_powf$1826
  6256  002538  C00A  F139         	movff	?___fladd+1,_powf$1826+1
  6257  00253C  C00B  F13A         	movff	?___fladd+2,_powf$1826+2
  6258  002540  C00C  F13B         	movff	?___fladd+3,_powf$1826+3
  6259  002544  0E9A               	movlw	154
  6260  002546  6E0D               	movwf	___fladd@a^0,c
  6261  002548  0E99               	movlw	153
  6262  00254A  6E0E               	movwf	(___fladd@a+1)^0,c
  6263  00254C  0E19               	movlw	25
  6264  00254E  6E0F               	movwf	(___fladd@a+2)^0,c
  6265  002550  0E3F               	movlw	63
  6266  002552  6E10               	movwf	(___fladd@a+3)^0,c
  6267  002554  C18C  F01D         	movff	powf@s2,___flmul@a
  6268  002558  C18D  F01E         	movff	powf@s2+1,___flmul@a+1
  6269  00255C  C18E  F01F         	movff	powf@s2+2,___flmul@a+2
  6270  002560  C18F  F020         	movff	powf@s2+3,___flmul@a+3
  6271  002564  C138  F019         	movff	_powf$1826,___flmul@b
  6272  002568  C139  F01A         	movff	_powf$1826+1,___flmul@b+1
  6273  00256C  C13A  F01B         	movff	_powf$1826+2,___flmul@b+2
  6274  002570  C13B  F01C         	movff	_powf$1826+3,___flmul@b+3
  6275  002574  EC47  F022         	call	___flmul	;wreg free
  6276  002578  C019  F009         	movff	?___flmul,___fladd@b
  6277  00257C  C01A  F00A         	movff	?___flmul+1,___fladd@b+1
  6278  002580  C01B  F00B         	movff	?___flmul+2,___fladd@b+2
  6279  002584  C01C  F00C         	movff	?___flmul+3,___fladd@b+3
  6280  002588  ECE7  F01F         	call	___fladd	;wreg free
  6281  00258C  C009  F100         	movff	?___fladd,_powf$1827
  6282  002590  C00A  F101         	movff	?___fladd+1,_powf$1827+1
  6283  002594  C00B  F102         	movff	?___fladd+2,_powf$1827+2
  6284  002598  C00C  F103         	movff	?___fladd+3,_powf$1827+3
  6285  00259C  C18C  F01D         	movff	powf@s2,___flmul@a
  6286  0025A0  C18D  F01E         	movff	powf@s2+1,___flmul@a+1
  6287  0025A4  C18E  F01F         	movff	powf@s2+2,___flmul@a+2
  6288  0025A8  C18F  F020         	movff	powf@s2+3,___flmul@a+3
  6289  0025AC  C18C  F019         	movff	powf@s2,___flmul@b
  6290  0025B0  C18D  F01A         	movff	powf@s2+1,___flmul@b+1
  6291  0025B4  C18E  F01B         	movff	powf@s2+2,___flmul@b+2
  6292  0025B8  C18F  F01C         	movff	powf@s2+3,___flmul@b+3
  6293  0025BC  EC47  F022         	call	___flmul	;wreg free
  6294  0025C0  C019  F104         	movff	?___flmul,_powf$1828
  6295  0025C4  C01A  F105         	movff	?___flmul+1,_powf$1828+1
  6296  0025C8  C01B  F106         	movff	?___flmul+2,_powf$1828+2
  6297  0025CC  C01C  F107         	movff	?___flmul+3,_powf$1828+3
  6298  0025D0  C100  F019         	movff	_powf$1827,___flmul@b
  6299  0025D4  C101  F01A         	movff	_powf$1827+1,___flmul@b+1
  6300  0025D8  C102  F01B         	movff	_powf$1827+2,___flmul@b+2
  6301  0025DC  C103  F01C         	movff	_powf$1827+3,___flmul@b+3
  6302  0025E0  C104  F01D         	movff	_powf$1828,___flmul@a
  6303  0025E4  C105  F01E         	movff	_powf$1828+1,___flmul@a+1
  6304  0025E8  C106  F01F         	movff	_powf$1828+2,___flmul@a+2
  6305  0025EC  C107  F020         	movff	_powf$1828+3,___flmul@a+3
  6306  0025F0  EC47  F022         	call	___flmul	;wreg free
  6307  0025F4  C019  F14C         	movff	?___flmul,powf@r
  6308  0025F8  C01A  F14D         	movff	?___flmul+1,powf@r+1
  6309  0025FC  C01B  F14E         	movff	?___flmul+2,powf@r+2
  6310  002600  C01C  F14F         	movff	?___flmul+3,powf@r+3
  6311  002604  C130  F01D         	movff	powf@s_l,___flmul@a
  6312  002608  C131  F01E         	movff	powf@s_l+1,___flmul@a+1
  6313  00260C  C132  F01F         	movff	powf@s_l+2,___flmul@a+2
  6314  002610  C133  F020         	movff	powf@s_l+3,___flmul@a+3
  6315  002614  C15C  F00D         	movff	powf@s,___fladd@a
  6316  002618  C15D  F00E         	movff	powf@s+1,___fladd@a+1
  6317  00261C  C15E  F00F         	movff	powf@s+2,___fladd@a+2
  6318  002620  C15F  F010         	movff	powf@s+3,___fladd@a+3
  6319  002624  C16C  F009         	movff	powf@s_h,___fladd@b
  6320  002628  C16D  F00A         	movff	powf@s_h+1,___fladd@b+1
  6321  00262C  C16E  F00B         	movff	powf@s_h+2,___fladd@b+2
  6322  002630  C16F  F00C         	movff	powf@s_h+3,___fladd@b+3
  6323  002634  ECE7  F01F         	call	___fladd	;wreg free
  6324  002638  C009  F019         	movff	?___fladd,___flmul@b
  6325  00263C  C00A  F01A         	movff	?___fladd+1,___flmul@b+1
  6326  002640  C00B  F01B         	movff	?___fladd+2,___flmul@b+2
  6327  002644  C00C  F01C         	movff	?___fladd+3,___flmul@b+3
  6328  002648  EC47  F022         	call	___flmul	;wreg free
  6329  00264C  C019  F158         	movff	?___flmul,_powf$1829
  6330  002650  C01A  F159         	movff	?___flmul+1,_powf$1829+1
  6331  002654  C01B  F15A         	movff	?___flmul+2,_powf$1829+2
  6332  002658  C01C  F15B         	movff	?___flmul+3,_powf$1829+3
  6333  00265C  C14C  F009         	movff	powf@r,___fladd@b
  6334  002660  C14D  F00A         	movff	powf@r+1,___fladd@b+1
  6335  002664  C14E  F00B         	movff	powf@r+2,___fladd@b+2
  6336  002668  C14F  F00C         	movff	powf@r+3,___fladd@b+3
  6337  00266C  C158  F00D         	movff	_powf$1829,___fladd@a
  6338  002670  C159  F00E         	movff	_powf$1829+1,___fladd@a+1
  6339  002674  C15A  F00F         	movff	_powf$1829+2,___fladd@a+2
  6340  002678  C15B  F010         	movff	_powf$1829+3,___fladd@a+3
  6341  00267C  ECE7  F01F         	call	___fladd	;wreg free
  6342  002680  C009  F14C         	movff	?___fladd,powf@r
  6343  002684  C00A  F14D         	movff	?___fladd+1,powf@r+1
  6344  002688  C00B  F14E         	movff	?___fladd+2,powf@r+2
  6345  00268C  C00C  F14F         	movff	?___fladd+3,powf@r+3
  6346  002690  C16C  F019         	movff	powf@s_h,___flmul@b
  6347  002694  C16D  F01A         	movff	powf@s_h+1,___flmul@b+1
  6348  002698  C16E  F01B         	movff	powf@s_h+2,___flmul@b+2
  6349  00269C  C16F  F01C         	movff	powf@s_h+3,___flmul@b+3
  6350  0026A0  C16C  F01D         	movff	powf@s_h,___flmul@a
  6351  0026A4  C16D  F01E         	movff	powf@s_h+1,___flmul@a+1
  6352  0026A8  C16E  F01F         	movff	powf@s_h+2,___flmul@a+2
  6353  0026AC  C16F  F020         	movff	powf@s_h+3,___flmul@a+3
  6354  0026B0  EC47  F022         	call	___flmul	;wreg free
  6355  0026B4  C019  F18C         	movff	?___flmul,powf@s2
  6356  0026B8  C01A  F18D         	movff	?___flmul+1,powf@s2+1
  6357  0026BC  C01B  F18E         	movff	?___flmul+2,powf@s2+2
  6358  0026C0  C01C  F18F         	movff	?___flmul+3,powf@s2+3
  6359  0026C4  0E00               	movlw	0
  6360  0026C6  6E0D               	movwf	___fladd@a^0,c
  6361  0026C8  0E00               	movlw	0
  6362  0026CA  6E0E               	movwf	(___fladd@a+1)^0,c
  6363  0026CC  0E40               	movlw	64
  6364  0026CE  6E0F               	movwf	(___fladd@a+2)^0,c
  6365  0026D0  0E40               	movlw	64
  6366  0026D2  6E10               	movwf	(___fladd@a+3)^0,c
  6367  0026D4  C18C  F009         	movff	powf@s2,___fladd@b
  6368  0026D8  C18D  F00A         	movff	powf@s2+1,___fladd@b+1
  6369  0026DC  C18E  F00B         	movff	powf@s2+2,___fladd@b+2
  6370  0026E0  C18F  F00C         	movff	powf@s2+3,___fladd@b+3
  6371  0026E4  ECE7  F01F         	call	___fladd	;wreg free
  6372  0026E8  C009  F158         	movff	?___fladd,_powf$1829
  6373  0026EC  C00A  F159         	movff	?___fladd+1,_powf$1829+1
  6374  0026F0  C00B  F15A         	movff	?___fladd+2,_powf$1829+2
  6375  0026F4  C00C  F15B         	movff	?___fladd+3,_powf$1829+3
  6376  0026F8  C158  F009         	movff	_powf$1829,___fladd@b
  6377  0026FC  C159  F00A         	movff	_powf$1829+1,___fladd@b+1
  6378  002700  C15A  F00B         	movff	_powf$1829+2,___fladd@b+2
  6379  002704  C15B  F00C         	movff	_powf$1829+3,___fladd@b+3
  6380  002708  C14C  F00D         	movff	powf@r,___fladd@a
  6381  00270C  C14D  F00E         	movff	powf@r+1,___fladd@a+1
  6382  002710  C14E  F00F         	movff	powf@r+2,___fladd@a+2
  6383  002714  C14F  F010         	movff	powf@r+3,___fladd@a+3
  6384  002718  ECE7  F01F         	call	___fladd	;wreg free
  6385  00271C  C009  F168         	movff	?___fladd,powf@t_h
  6386  002720  C00A  F169         	movff	?___fladd+1,powf@t_h+1
  6387  002724  C00B  F16A         	movff	?___fladd+2,powf@t_h+2
  6388  002728  C00C  F16B         	movff	?___fladd+3,powf@t_h+3
  6389  00272C  C168  F1B8         	movff	powf@t_h,powf@__xc8_float_word
  6390  002730  C169  F1B9         	movff	powf@t_h+1,powf@__xc8_float_word+1
  6391  002734  C16A  F1BA         	movff	powf@t_h+2,powf@__xc8_float_word+2
  6392  002738  C16B  F1BB         	movff	powf@t_h+3,powf@__xc8_float_word+3
  6393  00273C  C1B8  F194         	movff	powf@__xc8_float_word,powf@is
  6394  002740  C1B9  F195         	movff	powf@__xc8_float_word+1,powf@is+1
  6395  002744  C1BA  F196         	movff	powf@__xc8_float_word+2,powf@is+2
  6396  002748  C1BB  F197         	movff	powf@__xc8_float_word+3,powf@is+3
  6397  00274C  0E00               	movlw	0
  6398  00274E  0101               	movlb	1	; () banked
  6399  002750  1594               	andwf	powf@is& (0+255),w,b
  6400  002752  6FB8               	movwf	powf@__xc8_float_word& (0+255),b
  6401  002754  0EF0               	movlw	240
  6402  002756  1595               	andwf	(powf@is+1)& (0+255),w,b
  6403  002758  6FB9               	movwf	(powf@__xc8_float_word+1)& (0+255),b
  6404  00275A  0EFF               	movlw	255
  6405  00275C  1596               	andwf	(powf@is+2)& (0+255),w,b
  6406  00275E  6FBA               	movwf	(powf@__xc8_float_word+2)& (0+255),b
  6407  002760  0EFF               	movlw	255
  6408  002762  1597               	andwf	(powf@is+3)& (0+255),w,b
  6409  002764  6FBB               	movwf	(powf@__xc8_float_word+3)& (0+255),b
  6410  002766                     
  6411                           ; BSR set to: 1
  6412  002766  C1B8  F168         	movff	powf@__xc8_float_word,powf@t_h
  6413  00276A  C1B9  F169         	movff	powf@__xc8_float_word+1,powf@t_h+1
  6414  00276E  C1BA  F16A         	movff	powf@__xc8_float_word+2,powf@t_h+2
  6415  002772  C1BB  F16B         	movff	powf@__xc8_float_word+3,powf@t_h+3
  6416  002776                     
  6417                           ; BSR set to: 1
  6418  002776  0E00               	movlw	0
  6419  002778  6E0D               	movwf	___fladd@a^0,c
  6420  00277A  0E00               	movlw	0
  6421  00277C  6E0E               	movwf	(___fladd@a+1)^0,c
  6422  00277E  0E40               	movlw	64
  6423  002780  6E0F               	movwf	(___fladd@a+2)^0,c
  6424  002782  0EC0               	movlw	192
  6425  002784  6E10               	movwf	(___fladd@a+3)^0,c
  6426  002786  C168  F009         	movff	powf@t_h,___fladd@b
  6427  00278A  C169  F00A         	movff	powf@t_h+1,___fladd@b+1
  6428  00278E  C16A  F00B         	movff	powf@t_h+2,___fladd@b+2
  6429  002792  C16B  F00C         	movff	powf@t_h+3,___fladd@b+3
  6430  002796  ECE7  F01F         	call	___fladd	;wreg free
  6431  00279A  C009  F13C         	movff	?___fladd,_powf$1830
  6432  00279E  C00A  F13D         	movff	?___fladd+1,_powf$1830+1
  6433  0027A2  C00B  F13E         	movff	?___fladd+2,_powf$1830+2
  6434  0027A6  C00C  F13F         	movff	?___fladd+3,_powf$1830+3
  6435  0027AA  C18C  F036         	movff	powf@s2,___flsub@a
  6436  0027AE  C18D  F037         	movff	powf@s2+1,___flsub@a+1
  6437  0027B2  C18E  F038         	movff	powf@s2+2,___flsub@a+2
  6438  0027B6  C18F  F039         	movff	powf@s2+3,___flsub@a+3
  6439  0027BA  C13C  F032         	movff	_powf$1830,___flsub@b
  6440  0027BE  C13D  F033         	movff	_powf$1830+1,___flsub@b+1
  6441  0027C2  C13E  F034         	movff	_powf$1830+2,___flsub@b+2
  6442  0027C6  C13F  F035         	movff	_powf$1830+3,___flsub@b+3
  6443  0027CA  EC79  F031         	call	___flsub	;wreg free
  6444  0027CE  C032  F140         	movff	?___flsub,_powf$1831
  6445  0027D2  C033  F141         	movff	?___flsub+1,_powf$1831+1
  6446  0027D6  C034  F142         	movff	?___flsub+2,_powf$1831+2
  6447  0027DA  C035  F143         	movff	?___flsub+3,_powf$1831+3
  6448  0027DE  C14C  F032         	movff	powf@r,___flsub@b
  6449  0027E2  C14D  F033         	movff	powf@r+1,___flsub@b+1
  6450  0027E6  C14E  F034         	movff	powf@r+2,___flsub@b+2
  6451  0027EA  C14F  F035         	movff	powf@r+3,___flsub@b+3
  6452  0027EE  C140  F036         	movff	_powf$1831,___flsub@a
  6453  0027F2  C141  F037         	movff	_powf$1831+1,___flsub@a+1
  6454  0027F6  C142  F038         	movff	_powf$1831+2,___flsub@a+2
  6455  0027FA  C143  F039         	movff	_powf$1831+3,___flsub@a+3
  6456  0027FE  EC79  F031         	call	___flsub	;wreg free
  6457  002802  C032  F134         	movff	?___flsub,powf@t_l
  6458  002806  C033  F135         	movff	?___flsub+1,powf@t_l+1
  6459  00280A  C034  F136         	movff	?___flsub+2,powf@t_l+2
  6460  00280E  C035  F137         	movff	?___flsub+3,powf@t_l+3
  6461  002812  C16C  F019         	movff	powf@s_h,___flmul@b
  6462  002816  C16D  F01A         	movff	powf@s_h+1,___flmul@b+1
  6463  00281A  C16E  F01B         	movff	powf@s_h+2,___flmul@b+2
  6464  00281E  C16F  F01C         	movff	powf@s_h+3,___flmul@b+3
  6465  002822  C168  F01D         	movff	powf@t_h,___flmul@a
  6466  002826  C169  F01E         	movff	powf@t_h+1,___flmul@a+1
  6467  00282A  C16A  F01F         	movff	powf@t_h+2,___flmul@a+2
  6468  00282E  C16B  F020         	movff	powf@t_h+3,___flmul@a+3
  6469  002832  EC47  F022         	call	___flmul	;wreg free
  6470  002836  C019  F174         	movff	?___flmul,powf@u
  6471  00283A  C01A  F175         	movff	?___flmul+1,powf@u+1
  6472  00283E  C01B  F176         	movff	?___flmul+2,powf@u+2
  6473  002842  C01C  F177         	movff	?___flmul+3,powf@u+3
  6474  002846  C168  F01D         	movff	powf@t_h,___flmul@a
  6475  00284A  C169  F01E         	movff	powf@t_h+1,___flmul@a+1
  6476  00284E  C16A  F01F         	movff	powf@t_h+2,___flmul@a+2
  6477  002852  C16B  F020         	movff	powf@t_h+3,___flmul@a+3
  6478  002856  C130  F019         	movff	powf@s_l,___flmul@b
  6479  00285A  C131  F01A         	movff	powf@s_l+1,___flmul@b+1
  6480  00285E  C132  F01B         	movff	powf@s_l+2,___flmul@b+2
  6481  002862  C133  F01C         	movff	powf@s_l+3,___flmul@b+3
  6482  002866  EC47  F022         	call	___flmul	;wreg free
  6483  00286A  C019  F009         	movff	?___flmul,___fladd@b
  6484  00286E  C01A  F00A         	movff	?___flmul+1,___fladd@b+1
  6485  002872  C01B  F00B         	movff	?___flmul+2,___fladd@b+2
  6486  002876  C01C  F00C         	movff	?___flmul+3,___fladd@b+3
  6487  00287A  C15C  F01D         	movff	powf@s,___flmul@a
  6488  00287E  C15D  F01E         	movff	powf@s+1,___flmul@a+1
  6489  002882  C15E  F01F         	movff	powf@s+2,___flmul@a+2
  6490  002886  C15F  F020         	movff	powf@s+3,___flmul@a+3
  6491  00288A  C134  F019         	movff	powf@t_l,___flmul@b
  6492  00288E  C135  F01A         	movff	powf@t_l+1,___flmul@b+1
  6493  002892  C136  F01B         	movff	powf@t_l+2,___flmul@b+2
  6494  002896  C137  F01C         	movff	powf@t_l+3,___flmul@b+3
  6495  00289A  EC47  F022         	call	___flmul	;wreg free
  6496  00289E  C019  F00D         	movff	?___flmul,___fladd@a
  6497  0028A2  C01A  F00E         	movff	?___flmul+1,___fladd@a+1
  6498  0028A6  C01B  F00F         	movff	?___flmul+2,___fladd@a+2
  6499  0028AA  C01C  F010         	movff	?___flmul+3,___fladd@a+3
  6500  0028AE  ECE7  F01F         	call	___fladd	;wreg free
  6501  0028B2  C009  F178         	movff	?___fladd,powf@v
  6502  0028B6  C00A  F179         	movff	?___fladd+1,powf@v+1
  6503  0028BA  C00B  F17A         	movff	?___fladd+2,powf@v+2
  6504  0028BE  C00C  F17B         	movff	?___fladd+3,powf@v+3
  6505  0028C2  C174  F009         	movff	powf@u,___fladd@b
  6506  0028C6  C175  F00A         	movff	powf@u+1,___fladd@b+1
  6507  0028CA  C176  F00B         	movff	powf@u+2,___fladd@b+2
  6508  0028CE  C177  F00C         	movff	powf@u+3,___fladd@b+3
  6509  0028D2  C178  F00D         	movff	powf@v,___fladd@a
  6510  0028D6  C179  F00E         	movff	powf@v+1,___fladd@a+1
  6511  0028DA  C17A  F00F         	movff	powf@v+2,___fladd@a+2
  6512  0028DE  C17B  F010         	movff	powf@v+3,___fladd@a+3
  6513  0028E2  ECE7  F01F         	call	___fladd	;wreg free
  6514  0028E6  C009  F19C         	movff	?___fladd,powf@p_h
  6515  0028EA  C00A  F19D         	movff	?___fladd+1,powf@p_h+1
  6516  0028EE  C00B  F19E         	movff	?___fladd+2,powf@p_h+2
  6517  0028F2  C00C  F19F         	movff	?___fladd+3,powf@p_h+3
  6518  0028F6  C19C  F1B8         	movff	powf@p_h,powf@__xc8_float_word
  6519  0028FA  C19D  F1B9         	movff	powf@p_h+1,powf@__xc8_float_word+1
  6520  0028FE  C19E  F1BA         	movff	powf@p_h+2,powf@__xc8_float_word+2
  6521  002902  C19F  F1BB         	movff	powf@p_h+3,powf@__xc8_float_word+3
  6522  002906  C1B8  F194         	movff	powf@__xc8_float_word,powf@is
  6523  00290A  C1B9  F195         	movff	powf@__xc8_float_word+1,powf@is+1
  6524  00290E  C1BA  F196         	movff	powf@__xc8_float_word+2,powf@is+2
  6525  002912  C1BB  F197         	movff	powf@__xc8_float_word+3,powf@is+3
  6526  002916  0E00               	movlw	0
  6527  002918  0101               	movlb	1	; () banked
  6528  00291A  1594               	andwf	powf@is& (0+255),w,b
  6529  00291C  6FB8               	movwf	powf@__xc8_float_word& (0+255),b
  6530  00291E  0EF0               	movlw	240
  6531  002920  1595               	andwf	(powf@is+1)& (0+255),w,b
  6532  002922  6FB9               	movwf	(powf@__xc8_float_word+1)& (0+255),b
  6533  002924  0EFF               	movlw	255
  6534  002926  1596               	andwf	(powf@is+2)& (0+255),w,b
  6535  002928  6FBA               	movwf	(powf@__xc8_float_word+2)& (0+255),b
  6536  00292A  0EFF               	movlw	255
  6537  00292C  1597               	andwf	(powf@is+3)& (0+255),w,b
  6538  00292E  6FBB               	movwf	(powf@__xc8_float_word+3)& (0+255),b
  6539  002930                     
  6540                           ; BSR set to: 1
  6541  002930  C1B8  F19C         	movff	powf@__xc8_float_word,powf@p_h
  6542  002934  C1B9  F19D         	movff	powf@__xc8_float_word+1,powf@p_h+1
  6543  002938  C1BA  F19E         	movff	powf@__xc8_float_word+2,powf@p_h+2
  6544  00293C  C1BB  F19F         	movff	powf@__xc8_float_word+3,powf@p_h+3
  6545  002940                     
  6546                           ; BSR set to: 1
  6547  002940  C174  F036         	movff	powf@u,___flsub@a
  6548  002944  C175  F037         	movff	powf@u+1,___flsub@a+1
  6549  002948  C176  F038         	movff	powf@u+2,___flsub@a+2
  6550  00294C  C177  F039         	movff	powf@u+3,___flsub@a+3
  6551  002950  C19C  F032         	movff	powf@p_h,___flsub@b
  6552  002954  C19D  F033         	movff	powf@p_h+1,___flsub@b+1
  6553  002958  C19E  F034         	movff	powf@p_h+2,___flsub@b+2
  6554  00295C  C19F  F035         	movff	powf@p_h+3,___flsub@b+3
  6555  002960  EC79  F031         	call	___flsub	;wreg free
  6556  002964  C032  F198         	movff	?___flsub,_powf$1825
  6557  002968  C033  F199         	movff	?___flsub+1,_powf$1825+1
  6558  00296C  C034  F19A         	movff	?___flsub+2,_powf$1825+2
  6559  002970  C035  F19B         	movff	?___flsub+3,_powf$1825+3
  6560  002974  C178  F032         	movff	powf@v,___flsub@b
  6561  002978  C179  F033         	movff	powf@v+1,___flsub@b+1
  6562  00297C  C17A  F034         	movff	powf@v+2,___flsub@b+2
  6563  002980  C17B  F035         	movff	powf@v+3,___flsub@b+3
  6564  002984  C198  F036         	movff	_powf$1825,___flsub@a
  6565  002988  C199  F037         	movff	_powf$1825+1,___flsub@a+1
  6566  00298C  C19A  F038         	movff	_powf$1825+2,___flsub@a+2
  6567  002990  C19B  F039         	movff	_powf$1825+3,___flsub@a+3
  6568  002994  EC79  F031         	call	___flsub	;wreg free
  6569  002998  C032  F164         	movff	?___flsub,powf@p_l
  6570  00299C  C033  F165         	movff	?___flsub+1,powf@p_l+1
  6571  0029A0  C034  F166         	movff	?___flsub+2,powf@p_l+2
  6572  0029A4  C035  F167         	movff	?___flsub+3,powf@p_l+3
  6573  0029A8  C19C  F019         	movff	powf@p_h,___flmul@b
  6574  0029AC  C19D  F01A         	movff	powf@p_h+1,___flmul@b+1
  6575  0029B0  C19E  F01B         	movff	powf@p_h+2,___flmul@b+2
  6576  0029B4  C19F  F01C         	movff	powf@p_h+3,___flmul@b+3
  6577  0029B8  0E00               	movlw	0
  6578  0029BA  6E1D               	movwf	___flmul@a^0,c
  6579  0029BC  0E40               	movlw	64
  6580  0029BE  6E1E               	movwf	(___flmul@a+1)^0,c
  6581  0029C0  0E76               	movlw	118
  6582  0029C2  6E1F               	movwf	(___flmul@a+2)^0,c
  6583  0029C4  0E3F               	movlw	63
  6584  0029C6  6E20               	movwf	(___flmul@a+3)^0,c
  6585  0029C8  EC47  F022         	call	___flmul	;wreg free
  6586  0029CC  C019  F120         	movff	?___flmul,powf@z_h
  6587  0029D0  C01A  F121         	movff	?___flmul+1,powf@z_h+1
  6588  0029D4  C01B  F122         	movff	?___flmul+2,powf@z_h+2
  6589  0029D8  C01C  F123         	movff	?___flmul+3,powf@z_h+3
  6590  0029DC  0E4F               	movlw	79
  6591  0029DE  6E1D               	movwf	___flmul@a^0,c
  6592  0029E0  0E38               	movlw	56
  6593  0029E2  6E1E               	movwf	(___flmul@a+1)^0,c
  6594  0029E4  0E76               	movlw	118
  6595  0029E6  6E1F               	movwf	(___flmul@a+2)^0,c
  6596  0029E8  0E3F               	movlw	63
  6597  0029EA  6E20               	movwf	(___flmul@a+3)^0,c
  6598  0029EC  C164  F019         	movff	powf@p_l,___flmul@b
  6599  0029F0  C165  F01A         	movff	powf@p_l+1,___flmul@b+1
  6600  0029F4  C166  F01B         	movff	powf@p_l+2,___flmul@b+2
  6601  0029F8  C167  F01C         	movff	powf@p_l+3,___flmul@b+3
  6602  0029FC  EC47  F022         	call	___flmul	;wreg free
  6603  002A00  C019  F00D         	movff	?___flmul,___fladd@a
  6604  002A04  C01A  F00E         	movff	?___flmul+1,___fladd@a+1
  6605  002A08  C01B  F00F         	movff	?___flmul+2,___fladd@a+2
  6606  002A0C  C01C  F010         	movff	?___flmul+3,___fladd@a+3
  6607  002A10  0EC6               	movlw	198
  6608  002A12  6E1D               	movwf	___flmul@a^0,c
  6609  002A14  0E23               	movlw	35
  6610  002A16  6E1E               	movwf	(___flmul@a+1)^0,c
  6611  002A18  0EF6               	movlw	246
  6612  002A1A  6E1F               	movwf	(___flmul@a+2)^0,c
  6613  002A1C  0EB8               	movlw	184
  6614  002A1E  6E20               	movwf	(___flmul@a+3)^0,c
  6615  002A20  C19C  F019         	movff	powf@p_h,___flmul@b
  6616  002A24  C19D  F01A         	movff	powf@p_h+1,___flmul@b+1
  6617  002A28  C19E  F01B         	movff	powf@p_h+2,___flmul@b+2
  6618  002A2C  C19F  F01C         	movff	powf@p_h+3,___flmul@b+3
  6619  002A30  EC47  F022         	call	___flmul	;wreg free
  6620  002A34  C019  F009         	movff	?___flmul,___fladd@b
  6621  002A38  C01A  F00A         	movff	?___flmul+1,___fladd@b+1
  6622  002A3C  C01B  F00B         	movff	?___flmul+2,___fladd@b+2
  6623  002A40  C01C  F00C         	movff	?___flmul+3,___fladd@b+3
  6624  002A44  ECE7  F01F         	call	___fladd	;wreg free
  6625  002A48  C009  F158         	movff	?___fladd,_powf$1829
  6626  002A4C  C00A  F159         	movff	?___fladd+1,_powf$1829+1
  6627  002A50  C00B  F15A         	movff	?___fladd+2,_powf$1829+2
  6628  002A54  C00C  F15B         	movff	?___fladd+3,_powf$1829+3
  6629  002A58  C158  F009         	movff	_powf$1829,___fladd@b
  6630  002A5C  C159  F00A         	movff	_powf$1829+1,___fladd@b+1
  6631  002A60  C15A  F00B         	movff	_powf$1829+2,___fladd@b+2
  6632  002A64  C15B  F00C         	movff	_powf$1829+3,___fladd@b+3
  6633  002A68  C1A0  F090         	movff	powf@k,??_powf
  6634  002A6C  C1A1  F091         	movff	powf@k+1,??_powf+1
  6635  002A70  0100               	movlb	0	; () banked
  6636  002A72  90D8               	bcf	status,0,c
  6637  002A74  3790               	rlcf	??_powf& (0+255),f,b
  6638  002A76  3791               	rlcf	(??_powf+1)& (0+255),f,b
  6639  002A78  90D8               	bcf	status,0,c
  6640  002A7A  3790               	rlcf	??_powf& (0+255),f,b
  6641  002A7C  3791               	rlcf	(??_powf+1)& (0+255),f,b
  6642  002A7E  0E01               	movlw	low _dp_l
  6643  002A80  2590               	addwf	??_powf& (0+255),w,b
  6644  002A82  6EF6               	movwf	tblptrl,c
  6645  002A84  0E10               	movlw	high _dp_l
  6646  002A86  2191               	addwfc	(??_powf+1)& (0+255),w,b
  6647  002A88  6EF7               	movwf	tblptrh,c
  6648  002A8A                     	if	1	;There are 3 active tblptr bytes
  6649  002A8A  6AF8               	clrf	tblptru,c
  6650  002A8C  0E00               	movlw	low (__mediumconst shr (0+16))
  6651  002A8E  22F8               	addwfc	tblptru,f,c
  6652  002A90                     	endif
  6653  002A90  0009               	tblrd		*+
  6654  002A92  CFF5 F00D          	movff	tablat,___fladd@a
  6655  002A96  0009               	tblrd		*+
  6656  002A98  CFF5 F00E          	movff	tablat,___fladd@a+1
  6657  002A9C  0009               	tblrd		*+
  6658  002A9E  CFF5 F00F          	movff	tablat,___fladd@a+2
  6659  002AA2  000A               	tblrd		*-
  6660  002AA4  CFF5 F010          	movff	tablat,___fladd@a+3
  6661  002AA8  ECE7  F01F         	call	___fladd	;wreg free
  6662  002AAC  C009  F124         	movff	?___fladd,powf@z_l
  6663  002AB0  C00A  F125         	movff	?___fladd+1,powf@z_l+1
  6664  002AB4  C00B  F126         	movff	?___fladd+2,powf@z_l+2
  6665  002AB8  C00C  F127         	movff	?___fladd+3,powf@z_l+3
  6666  002ABC  C180  F009         	movff	powf@n,___xxtofl@val
  6667  002AC0  C181  F00A         	movff	powf@n+1,___xxtofl@val+1
  6668  002AC4  C182  F00B         	movff	powf@n+2,___xxtofl@val+2
  6669  002AC8  C183  F00C         	movff	powf@n+3,___xxtofl@val+3
  6670  002ACC  0E01               	movlw	1
  6671  002ACE  EC86  F028         	call	___xxtofl
  6672  002AD2  C009  F1B0         	movff	?___xxtofl,powf@t
  6673  002AD6  C00A  F1B1         	movff	?___xxtofl+1,powf@t+1
  6674  002ADA  C00B  F1B2         	movff	?___xxtofl+2,powf@t+2
  6675  002ADE  C00C  F1B3         	movff	?___xxtofl+3,powf@t+3
  6676  002AE2  C124  F00D         	movff	powf@z_l,___fladd@a
  6677  002AE6  C125  F00E         	movff	powf@z_l+1,___fladd@a+1
  6678  002AEA  C126  F00F         	movff	powf@z_l+2,___fladd@a+2
  6679  002AEE  C127  F010         	movff	powf@z_l+3,___fladd@a+3
  6680  002AF2  C120  F009         	movff	powf@z_h,___fladd@b
  6681  002AF6  C121  F00A         	movff	powf@z_h+1,___fladd@b+1
  6682  002AFA  C122  F00B         	movff	powf@z_h+2,___fladd@b+2
  6683  002AFE  C123  F00C         	movff	powf@z_h+3,___fladd@b+3
  6684  002B02  ECE7  F01F         	call	___fladd	;wreg free
  6685  002B06  C009  F158         	movff	?___fladd,_powf$1829
  6686  002B0A  C00A  F159         	movff	?___fladd+1,_powf$1829+1
  6687  002B0E  C00B  F15A         	movff	?___fladd+2,_powf$1829+2
  6688  002B12  C00C  F15B         	movff	?___fladd+3,_powf$1829+3
  6689  002B16  C1A0  F090         	movff	powf@k,??_powf
  6690  002B1A  C1A1  F091         	movff	powf@k+1,??_powf+1
  6691  002B1E  0100               	movlb	0	; () banked
  6692  002B20  90D8               	bcf	status,0,c
  6693  002B22  3790               	rlcf	??_powf& (0+255),f,b
  6694  002B24  3791               	rlcf	(??_powf+1)& (0+255),f,b
  6695  002B26  90D8               	bcf	status,0,c
  6696  002B28  3790               	rlcf	??_powf& (0+255),f,b
  6697  002B2A  3791               	rlcf	(??_powf+1)& (0+255),f,b
  6698  002B2C  0E09               	movlw	low _dp_h
  6699  002B2E  2590               	addwf	??_powf& (0+255),w,b
  6700  002B30  6EF6               	movwf	tblptrl,c
  6701  002B32  0E10               	movlw	high _dp_h
  6702  002B34  2191               	addwfc	(??_powf+1)& (0+255),w,b
  6703  002B36  6EF7               	movwf	tblptrh,c
  6704  002B38                     	if	1	;There are 3 active tblptr bytes
  6705  002B38  6AF8               	clrf	tblptru,c
  6706  002B3A  0E00               	movlw	low (__mediumconst shr (0+16))
  6707  002B3C  22F8               	addwfc	tblptru,f,c
  6708  002B3E                     	endif
  6709  002B3E  0009               	tblrd		*+
  6710  002B40  CFF5 F00D          	movff	tablat,___fladd@a
  6711  002B44  0009               	tblrd		*+
  6712  002B46  CFF5 F00E          	movff	tablat,___fladd@a+1
  6713  002B4A  0009               	tblrd		*+
  6714  002B4C  CFF5 F00F          	movff	tablat,___fladd@a+2
  6715  002B50  000A               	tblrd		*-
  6716  002B52  CFF5 F010          	movff	tablat,___fladd@a+3
  6717  002B56  C158  F009         	movff	_powf$1829,___fladd@b
  6718  002B5A  C159  F00A         	movff	_powf$1829+1,___fladd@b+1
  6719  002B5E  C15A  F00B         	movff	_powf$1829+2,___fladd@b+2
  6720  002B62  C15B  F00C         	movff	_powf$1829+3,___fladd@b+3
  6721  002B66  ECE7  F01F         	call	___fladd	;wreg free
  6722  002B6A  C009  F108         	movff	?___fladd,_powf$1832
  6723  002B6E  C00A  F109         	movff	?___fladd+1,_powf$1832+1
  6724  002B72  C00B  F10A         	movff	?___fladd+2,_powf$1832+2
  6725  002B76  C00C  F10B         	movff	?___fladd+3,_powf$1832+3
  6726  002B7A  C108  F009         	movff	_powf$1832,___fladd@b
  6727  002B7E  C109  F00A         	movff	_powf$1832+1,___fladd@b+1
  6728  002B82  C10A  F00B         	movff	_powf$1832+2,___fladd@b+2
  6729  002B86  C10B  F00C         	movff	_powf$1832+3,___fladd@b+3
  6730  002B8A  C1B0  F00D         	movff	powf@t,___fladd@a
  6731  002B8E  C1B1  F00E         	movff	powf@t+1,___fladd@a+1
  6732  002B92  C1B2  F00F         	movff	powf@t+2,___fladd@a+2
  6733  002B96  C1B3  F010         	movff	powf@t+3,___fladd@a+3
  6734  002B9A  ECE7  F01F         	call	___fladd	;wreg free
  6735  002B9E  C009  F184         	movff	?___fladd,powf@t1
  6736  002BA2  C00A  F185         	movff	?___fladd+1,powf@t1+1
  6737  002BA6  C00B  F186         	movff	?___fladd+2,powf@t1+2
  6738  002BAA  C00C  F187         	movff	?___fladd+3,powf@t1+3
  6739  002BAE  C184  F1B8         	movff	powf@t1,powf@__xc8_float_word
  6740  002BB2  C185  F1B9         	movff	powf@t1+1,powf@__xc8_float_word+1
  6741  002BB6  C186  F1BA         	movff	powf@t1+2,powf@__xc8_float_word+2
  6742  002BBA  C187  F1BB         	movff	powf@t1+3,powf@__xc8_float_word+3
  6743  002BBE  C1B8  F194         	movff	powf@__xc8_float_word,powf@is
  6744  002BC2  C1B9  F195         	movff	powf@__xc8_float_word+1,powf@is+1
  6745  002BC6  C1BA  F196         	movff	powf@__xc8_float_word+2,powf@is+2
  6746  002BCA  C1BB  F197         	movff	powf@__xc8_float_word+3,powf@is+3
  6747  002BCE  0E00               	movlw	0
  6748  002BD0  0101               	movlb	1	; () banked
  6749  002BD2  1594               	andwf	powf@is& (0+255),w,b
  6750  002BD4  6FB8               	movwf	powf@__xc8_float_word& (0+255),b
  6751  002BD6  0EF0               	movlw	240
  6752  002BD8  1595               	andwf	(powf@is+1)& (0+255),w,b
  6753  002BDA  6FB9               	movwf	(powf@__xc8_float_word+1)& (0+255),b
  6754  002BDC  0EFF               	movlw	255
  6755  002BDE  1596               	andwf	(powf@is+2)& (0+255),w,b
  6756  002BE0  6FBA               	movwf	(powf@__xc8_float_word+2)& (0+255),b
  6757  002BE2  0EFF               	movlw	255
  6758  002BE4  1597               	andwf	(powf@is+3)& (0+255),w,b
  6759  002BE6  6FBB               	movwf	(powf@__xc8_float_word+3)& (0+255),b
  6760  002BE8                     
  6761                           ; BSR set to: 1
  6762  002BE8  C1B8  F184         	movff	powf@__xc8_float_word,powf@t1
  6763  002BEC  C1B9  F185         	movff	powf@__xc8_float_word+1,powf@t1+1
  6764  002BF0  C1BA  F186         	movff	powf@__xc8_float_word+2,powf@t1+2
  6765  002BF4  C1BB  F187         	movff	powf@__xc8_float_word+3,powf@t1+3
  6766  002BF8                     
  6767                           ; BSR set to: 1
  6768  002BF8  C1B0  F036         	movff	powf@t,___flsub@a
  6769  002BFC  C1B1  F037         	movff	powf@t+1,___flsub@a+1
  6770  002C00  C1B2  F038         	movff	powf@t+2,___flsub@a+2
  6771  002C04  C1B3  F039         	movff	powf@t+3,___flsub@a+3
  6772  002C08  C184  F032         	movff	powf@t1,___flsub@b
  6773  002C0C  C185  F033         	movff	powf@t1+1,___flsub@b+1
  6774  002C10  C186  F034         	movff	powf@t1+2,___flsub@b+2
  6775  002C14  C187  F035         	movff	powf@t1+3,___flsub@b+3
  6776  002C18  EC79  F031         	call	___flsub	;wreg free
  6777  002C1C  C032  F198         	movff	?___flsub,_powf$1825
  6778  002C20  C033  F199         	movff	?___flsub+1,_powf$1825+1
  6779  002C24  C034  F19A         	movff	?___flsub+2,_powf$1825+2
  6780  002C28  C035  F19B         	movff	?___flsub+3,_powf$1825+3
  6781  002C2C  C1A0  F090         	movff	powf@k,??_powf
  6782  002C30  C1A1  F091         	movff	powf@k+1,??_powf+1
  6783  002C34  0100               	movlb	0	; () banked
  6784  002C36  90D8               	bcf	status,0,c
  6785  002C38  3790               	rlcf	??_powf& (0+255),f,b
  6786  002C3A  3791               	rlcf	(??_powf+1)& (0+255),f,b
  6787  002C3C  90D8               	bcf	status,0,c
  6788  002C3E  3790               	rlcf	??_powf& (0+255),f,b
  6789  002C40  3791               	rlcf	(??_powf+1)& (0+255),f,b
  6790  002C42  0E09               	movlw	low _dp_h
  6791  002C44  2590               	addwf	??_powf& (0+255),w,b
  6792  002C46  6EF6               	movwf	tblptrl,c
  6793  002C48  0E10               	movlw	high _dp_h
  6794  002C4A  2191               	addwfc	(??_powf+1)& (0+255),w,b
  6795  002C4C  6EF7               	movwf	tblptrh,c
  6796  002C4E                     	if	1	;There are 3 active tblptr bytes
  6797  002C4E  6AF8               	clrf	tblptru,c
  6798  002C50  0E00               	movlw	low (__mediumconst shr (0+16))
  6799  002C52  22F8               	addwfc	tblptru,f,c
  6800  002C54                     	endif
  6801  002C54  0009               	tblrd		*+
  6802  002C56  CFF5 F036          	movff	tablat,___flsub@a
  6803  002C5A  0009               	tblrd		*+
  6804  002C5C  CFF5 F037          	movff	tablat,___flsub@a+1
  6805  002C60  0009               	tblrd		*+
  6806  002C62  CFF5 F038          	movff	tablat,___flsub@a+2
  6807  002C66  000A               	tblrd		*-
  6808  002C68  CFF5 F039          	movff	tablat,___flsub@a+3
  6809  002C6C  C198  F032         	movff	_powf$1825,___flsub@b
  6810  002C70  C199  F033         	movff	_powf$1825+1,___flsub@b+1
  6811  002C74  C19A  F034         	movff	_powf$1825+2,___flsub@b+2
  6812  002C78  C19B  F035         	movff	_powf$1825+3,___flsub@b+3
  6813  002C7C  EC79  F031         	call	___flsub	;wreg free
  6814  002C80  C032  F140         	movff	?___flsub,_powf$1831
  6815  002C84  C033  F141         	movff	?___flsub+1,_powf$1831+1
  6816  002C88  C034  F142         	movff	?___flsub+2,_powf$1831+2
  6817  002C8C  C035  F143         	movff	?___flsub+3,_powf$1831+3
  6818  002C90  C120  F036         	movff	powf@z_h,___flsub@a
  6819  002C94  C121  F037         	movff	powf@z_h+1,___flsub@a+1
  6820  002C98  C122  F038         	movff	powf@z_h+2,___flsub@a+2
  6821  002C9C  C123  F039         	movff	powf@z_h+3,___flsub@a+3
  6822  002CA0  C140  F032         	movff	_powf$1831,___flsub@b
  6823  002CA4  C141  F033         	movff	_powf$1831+1,___flsub@b+1
  6824  002CA8  C142  F034         	movff	_powf$1831+2,___flsub@b+2
  6825  002CAC  C143  F035         	movff	_powf$1831+3,___flsub@b+3
  6826  002CB0  EC79  F031         	call	___flsub	;wreg free
  6827  002CB4  C032  F10C         	movff	?___flsub,_powf$1833
  6828  002CB8  C033  F10D         	movff	?___flsub+1,_powf$1833+1
  6829  002CBC  C034  F10E         	movff	?___flsub+2,_powf$1833+2
  6830  002CC0  C035  F10F         	movff	?___flsub+3,_powf$1833+3
  6831  002CC4  C124  F032         	movff	powf@z_l,___flsub@b
  6832  002CC8  C125  F033         	movff	powf@z_l+1,___flsub@b+1
  6833  002CCC  C126  F034         	movff	powf@z_l+2,___flsub@b+2
  6834  002CD0  C127  F035         	movff	powf@z_l+3,___flsub@b+3
  6835  002CD4  C10C  F036         	movff	_powf$1833,___flsub@a
  6836  002CD8  C10D  F037         	movff	_powf$1833+1,___flsub@a+1
  6837  002CDC  C10E  F038         	movff	_powf$1833+2,___flsub@a+2
  6838  002CE0  C10F  F039         	movff	_powf$1833+3,___flsub@a+3
  6839  002CE4  EC79  F031         	call	___flsub	;wreg free
  6840  002CE8  C032  F11C         	movff	?___flsub,powf@t2
  6841  002CEC  C033  F11D         	movff	?___flsub+1,powf@t2+1
  6842  002CF0  C034  F11E         	movff	?___flsub+2,powf@t2+2
  6843  002CF4  C035  F11F         	movff	?___flsub+3,powf@t2+3
  6844  002CF8                     l6255:
  6845  002CF8  C08C  F1B8         	movff	powf@y,powf@__xc8_float_word
  6846  002CFC  C08D  F1B9         	movff	powf@y+1,powf@__xc8_float_word+1
  6847  002D00  C08E  F1BA         	movff	powf@y+2,powf@__xc8_float_word+2
  6848  002D04  C08F  F1BB         	movff	powf@y+3,powf@__xc8_float_word+3
  6849  002D08  C1B8  F194         	movff	powf@__xc8_float_word,powf@is
  6850  002D0C  C1B9  F195         	movff	powf@__xc8_float_word+1,powf@is+1
  6851  002D10  C1BA  F196         	movff	powf@__xc8_float_word+2,powf@is+2
  6852  002D14  C1BB  F197         	movff	powf@__xc8_float_word+3,powf@is+3
  6853  002D18  0E00               	movlw	0
  6854  002D1A  0101               	movlb	1	; () banked
  6855  002D1C  1594               	andwf	powf@is& (0+255),w,b
  6856  002D1E  6FB8               	movwf	powf@__xc8_float_word& (0+255),b
  6857  002D20  0EF0               	movlw	240
  6858  002D22  1595               	andwf	(powf@is+1)& (0+255),w,b
  6859  002D24  6FB9               	movwf	(powf@__xc8_float_word+1)& (0+255),b
  6860  002D26  0EFF               	movlw	255
  6861  002D28  1596               	andwf	(powf@is+2)& (0+255),w,b
  6862  002D2A  6FBA               	movwf	(powf@__xc8_float_word+2)& (0+255),b
  6863  002D2C  0EFF               	movlw	255
  6864  002D2E  1597               	andwf	(powf@is+3)& (0+255),w,b
  6865  002D30  6FBB               	movwf	(powf@__xc8_float_word+3)& (0+255),b
  6866  002D32                     
  6867                           ; BSR set to: 1
  6868  002D32  C1B8  F128         	movff	powf@__xc8_float_word,powf@y1
  6869  002D36  C1B9  F129         	movff	powf@__xc8_float_word+1,powf@y1+1
  6870  002D3A  C1BA  F12A         	movff	powf@__xc8_float_word+2,powf@y1+2
  6871  002D3E  C1BB  F12B         	movff	powf@__xc8_float_word+3,powf@y1+3
  6872  002D42                     
  6873                           ; BSR set to: 1
  6874  002D42  C184  F01D         	movff	powf@t1,___flmul@a
  6875  002D46  C185  F01E         	movff	powf@t1+1,___flmul@a+1
  6876  002D4A  C186  F01F         	movff	powf@t1+2,___flmul@a+2
  6877  002D4E  C187  F020         	movff	powf@t1+3,___flmul@a+3
  6878  002D52  C128  F036         	movff	powf@y1,___flsub@a
  6879  002D56  C129  F037         	movff	powf@y1+1,___flsub@a+1
  6880  002D5A  C12A  F038         	movff	powf@y1+2,___flsub@a+2
  6881  002D5E  C12B  F039         	movff	powf@y1+3,___flsub@a+3
  6882  002D62  C08C  F032         	movff	powf@y,___flsub@b
  6883  002D66  C08D  F033         	movff	powf@y+1,___flsub@b+1
  6884  002D6A  C08E  F034         	movff	powf@y+2,___flsub@b+2
  6885  002D6E  C08F  F035         	movff	powf@y+3,___flsub@b+3
  6886  002D72  EC79  F031         	call	___flsub	;wreg free
  6887  002D76  C032  F019         	movff	?___flsub,___flmul@b
  6888  002D7A  C033  F01A         	movff	?___flsub+1,___flmul@b+1
  6889  002D7E  C034  F01B         	movff	?___flsub+2,___flmul@b+2
  6890  002D82  C035  F01C         	movff	?___flsub+3,___flmul@b+3
  6891  002D86  EC47  F022         	call	___flmul	;wreg free
  6892  002D8A  C019  F110         	movff	?___flmul,_powf$1834
  6893  002D8E  C01A  F111         	movff	?___flmul+1,_powf$1834+1
  6894  002D92  C01B  F112         	movff	?___flmul+2,_powf$1834+2
  6895  002D96  C01C  F113         	movff	?___flmul+3,_powf$1834+3
  6896  002D9A  C110  F009         	movff	_powf$1834,___fladd@b
  6897  002D9E  C111  F00A         	movff	_powf$1834+1,___fladd@b+1
  6898  002DA2  C112  F00B         	movff	_powf$1834+2,___fladd@b+2
  6899  002DA6  C113  F00C         	movff	_powf$1834+3,___fladd@b+3
  6900  002DAA  C11C  F01D         	movff	powf@t2,___flmul@a
  6901  002DAE  C11D  F01E         	movff	powf@t2+1,___flmul@a+1
  6902  002DB2  C11E  F01F         	movff	powf@t2+2,___flmul@a+2
  6903  002DB6  C11F  F020         	movff	powf@t2+3,___flmul@a+3
  6904  002DBA  C08C  F019         	movff	powf@y,___flmul@b
  6905  002DBE  C08D  F01A         	movff	powf@y+1,___flmul@b+1
  6906  002DC2  C08E  F01B         	movff	powf@y+2,___flmul@b+2
  6907  002DC6  C08F  F01C         	movff	powf@y+3,___flmul@b+3
  6908  002DCA  EC47  F022         	call	___flmul	;wreg free
  6909  002DCE  C019  F00D         	movff	?___flmul,___fladd@a
  6910  002DD2  C01A  F00E         	movff	?___flmul+1,___fladd@a+1
  6911  002DD6  C01B  F00F         	movff	?___flmul+2,___fladd@a+2
  6912  002DDA  C01C  F010         	movff	?___flmul+3,___fladd@a+3
  6913  002DDE  ECE7  F01F         	call	___fladd	;wreg free
  6914  002DE2  C009  F164         	movff	?___fladd,powf@p_l
  6915  002DE6  C00A  F165         	movff	?___fladd+1,powf@p_l+1
  6916  002DEA  C00B  F166         	movff	?___fladd+2,powf@p_l+2
  6917  002DEE  C00C  F167         	movff	?___fladd+3,powf@p_l+3
  6918  002DF2  C128  F019         	movff	powf@y1,___flmul@b
  6919  002DF6  C129  F01A         	movff	powf@y1+1,___flmul@b+1
  6920  002DFA  C12A  F01B         	movff	powf@y1+2,___flmul@b+2
  6921  002DFE  C12B  F01C         	movff	powf@y1+3,___flmul@b+3
  6922  002E02  C184  F01D         	movff	powf@t1,___flmul@a
  6923  002E06  C185  F01E         	movff	powf@t1+1,___flmul@a+1
  6924  002E0A  C186  F01F         	movff	powf@t1+2,___flmul@a+2
  6925  002E0E  C187  F020         	movff	powf@t1+3,___flmul@a+3
  6926  002E12  EC47  F022         	call	___flmul	;wreg free
  6927  002E16  C019  F19C         	movff	?___flmul,powf@p_h
  6928  002E1A  C01A  F19D         	movff	?___flmul+1,powf@p_h+1
  6929  002E1E  C01B  F19E         	movff	?___flmul+2,powf@p_h+2
  6930  002E22  C01C  F19F         	movff	?___flmul+3,powf@p_h+3
  6931  002E26  C164  F009         	movff	powf@p_l,___fladd@b
  6932  002E2A  C165  F00A         	movff	powf@p_l+1,___fladd@b+1
  6933  002E2E  C166  F00B         	movff	powf@p_l+2,___fladd@b+2
  6934  002E32  C167  F00C         	movff	powf@p_l+3,___fladd@b+3
  6935  002E36  C19C  F00D         	movff	powf@p_h,___fladd@a
  6936  002E3A  C19D  F00E         	movff	powf@p_h+1,___fladd@a+1
  6937  002E3E  C19E  F00F         	movff	powf@p_h+2,___fladd@a+2
  6938  002E42  C19F  F010         	movff	powf@p_h+3,___fladd@a+3
  6939  002E46  ECE7  F01F         	call	___fladd	;wreg free
  6940  002E4A  C009  F1B4         	movff	?___fladd,powf@z
  6941  002E4E  C00A  F1B5         	movff	?___fladd+1,powf@z+1
  6942  002E52  C00B  F1B6         	movff	?___fladd+2,powf@z+2
  6943  002E56  C00C  F1B7         	movff	?___fladd+3,powf@z+3
  6944  002E5A  C1B4  F1B8         	movff	powf@z,powf@__xc8_float_word
  6945  002E5E  C1B5  F1B9         	movff	powf@z+1,powf@__xc8_float_word+1
  6946  002E62  C1B6  F1BA         	movff	powf@z+2,powf@__xc8_float_word+2
  6947  002E66  C1B7  F1BB         	movff	powf@z+3,powf@__xc8_float_word+3
  6948  002E6A  C1B8  F1AC         	movff	powf@__xc8_float_word,powf@j
  6949  002E6E  C1B9  F1AD         	movff	powf@__xc8_float_word+1,powf@j+1
  6950  002E72  C1BA  F1AE         	movff	powf@__xc8_float_word+2,powf@j+2
  6951  002E76  C1BB  F1AF         	movff	powf@__xc8_float_word+3,powf@j+3
  6952  002E7A  0101               	movlb	1	; () banked
  6953  002E7C  BFAF               	btfsc	(powf@j+3)& (0+255),7,b
  6954  002E7E  EF4D  F017         	goto	u5931
  6955  002E82  05AC               	decf	powf@j& (0+255),w,b
  6956  002E84  0E00               	movlw	0
  6957  002E86  59AD               	subwfb	(powf@j+1)& (0+255),w,b
  6958  002E88  0E00               	movlw	0
  6959  002E8A  59AE               	subwfb	(powf@j+2)& (0+255),w,b
  6960  002E8C  0E43               	movlw	67
  6961  002E8E  59AF               	subwfb	(powf@j+3)& (0+255),w,b
  6962  002E90  A0D8               	btfss	status,0,c
  6963  002E92  EF4D  F017         	goto	u5931
  6964  002E96  EF4F  F017         	goto	u5930
  6965  002E9A                     u5931:
  6966  002E9A  EF85  F017         	goto	l6283
  6967  002E9E                     u5930:
  6968  002E9E                     
  6969                           ; BSR set to: 1
  6970  002E9E  0ECA               	movlw	202
  6971  002EA0  6E1D               	movwf	___flmul@a^0,c
  6972  002EA2  0EF2               	movlw	242
  6973  002EA4  6E1E               	movwf	(___flmul@a+1)^0,c
  6974  002EA6  0E49               	movlw	73
  6975  002EA8  6E1F               	movwf	(___flmul@a+2)^0,c
  6976  002EAA  0E71               	movlw	113
  6977  002EAC  6E20               	movwf	(___flmul@a+3)^0,c
  6978  002EAE  C188  F019         	movff	powf@sn,___flmul@b
  6979  002EB2  C189  F01A         	movff	powf@sn+1,___flmul@b+1
  6980  002EB6  C18A  F01B         	movff	powf@sn+2,___flmul@b+2
  6981  002EBA  C18B  F01C         	movff	powf@sn+3,___flmul@b+3
  6982  002EBE  EC47  F022         	call	___flmul	;wreg free
  6983  002EC2  C019  F1A4         	movff	?___flmul,_powf$1822
  6984  002EC6  C01A  F1A5         	movff	?___flmul+1,_powf$1822+1
  6985  002ECA  C01B  F1A6         	movff	?___flmul+2,_powf$1822+2
  6986  002ECE  C01C  F1A7         	movff	?___flmul+3,_powf$1822+3
  6987  002ED2  C1A4  F019         	movff	_powf$1822,___flmul@b
  6988  002ED6  C1A5  F01A         	movff	_powf$1822+1,___flmul@b+1
  6989  002EDA  C1A6  F01B         	movff	_powf$1822+2,___flmul@b+2
  6990  002EDE  C1A7  F01C         	movff	_powf$1822+3,___flmul@b+3
  6991  002EE2  0ECA               	movlw	202
  6992  002EE4  6E1D               	movwf	___flmul@a^0,c
  6993  002EE6  0EF2               	movlw	242
  6994  002EE8  6E1E               	movwf	(___flmul@a+1)^0,c
  6995  002EEA  0E49               	movlw	73
  6996  002EEC  6E1F               	movwf	(___flmul@a+2)^0,c
  6997  002EEE  0E71               	movlw	113
  6998  002EF0  6E20               	movwf	(___flmul@a+3)^0,c
  6999  002EF2  EC47  F022         	call	___flmul	;wreg free
  7000  002EF6  C019  F088         	movff	?___flmul,?_powf
  7001  002EFA  C01A  F089         	movff	?___flmul+1,?_powf+1
  7002  002EFE  C01B  F08A         	movff	?___flmul+2,?_powf+2
  7003  002F02  C01C  F08B         	movff	?___flmul+3,?_powf+3
  7004  002F06  EF86  F01D         	goto	l1510
  7005  002F0A                     l6283:
  7006                           
  7007                           ; BSR set to: 1
  7008  002F0A  0E43               	movlw	67
  7009  002F0C  19AF               	xorwf	(powf@j+3)& (0+255),w,b
  7010  002F0E  11AC               	iorwf	powf@j& (0+255),w,b
  7011  002F10  11AD               	iorwf	(powf@j+1)& (0+255),w,b
  7012  002F12  11AE               	iorwf	(powf@j+2)& (0+255),w,b
  7013  002F14  A4D8               	btfss	status,2,c
  7014  002F16  EF8F  F017         	goto	u5941
  7015  002F1A  EF91  F017         	goto	u5940
  7016  002F1E                     u5941:
  7017  002F1E  EF04  F018         	goto	l6291
  7018  002F22                     u5940:
  7019  002F22                     
  7020                           ; BSR set to: 1
  7021  002F22  C19C  F036         	movff	powf@p_h,___flsub@a
  7022  002F26  C19D  F037         	movff	powf@p_h+1,___flsub@a+1
  7023  002F2A  C19E  F038         	movff	powf@p_h+2,___flsub@a+2
  7024  002F2E  C19F  F039         	movff	powf@p_h+3,___flsub@a+3
  7025  002F32  C1B4  F032         	movff	powf@z,___flsub@b
  7026  002F36  C1B5  F033         	movff	powf@z+1,___flsub@b+1
  7027  002F3A  C1B6  F034         	movff	powf@z+2,___flsub@b+2
  7028  002F3E  C1B7  F035         	movff	powf@z+3,___flsub@b+3
  7029  002F42  EC79  F031         	call	___flsub	;wreg free
  7030  002F46  C032  F03A         	movff	?___flsub,___flge@ff1
  7031  002F4A  C033  F03B         	movff	?___flsub+1,___flge@ff1+1
  7032  002F4E  C034  F03C         	movff	?___flsub+2,___flge@ff1+2
  7033  002F52  C035  F03D         	movff	?___flsub+3,___flge@ff1+3
  7034  002F56  0E3C               	movlw	60
  7035  002F58  6E0D               	movwf	___fladd@a^0,c
  7036  002F5A  0EAA               	movlw	170
  7037  002F5C  6E0E               	movwf	(___fladd@a+1)^0,c
  7038  002F5E  0E38               	movlw	56
  7039  002F60  6E0F               	movwf	(___fladd@a+2)^0,c
  7040  002F62  0E33               	movlw	51
  7041  002F64  6E10               	movwf	(___fladd@a+3)^0,c
  7042  002F66  C164  F009         	movff	powf@p_l,___fladd@b
  7043  002F6A  C165  F00A         	movff	powf@p_l+1,___fladd@b+1
  7044  002F6E  C166  F00B         	movff	powf@p_l+2,___fladd@b+2
  7045  002F72  C167  F00C         	movff	powf@p_l+3,___fladd@b+3
  7046  002F76  ECE7  F01F         	call	___fladd	;wreg free
  7047  002F7A  C009  F03E         	movff	?___fladd,___flge@ff2
  7048  002F7E  C00A  F03F         	movff	?___fladd+1,___flge@ff2+1
  7049  002F82  C00B  F040         	movff	?___fladd+2,___flge@ff2+2
  7050  002F86  C00C  F041         	movff	?___fladd+3,___flge@ff2+3
  7051  002F8A  EC79  F02A         	call	___flge	;wreg free
  7052  002F8E  B0D8               	btfsc	status,0,c
  7053  002F90  EFCC  F017         	goto	u5951
  7054  002F94  EFCE  F017         	goto	u5950
  7055  002F98                     u5951:
  7056  002F98  EFCE  F018         	goto	l6307
  7057  002F9C                     u5950:
  7058  002F9C  0ECA               	movlw	202
  7059  002F9E  6E1D               	movwf	___flmul@a^0,c
  7060  002FA0  0EF2               	movlw	242
  7061  002FA2  6E1E               	movwf	(___flmul@a+1)^0,c
  7062  002FA4  0E49               	movlw	73
  7063  002FA6  6E1F               	movwf	(___flmul@a+2)^0,c
  7064  002FA8  0E71               	movlw	113
  7065  002FAA  6E20               	movwf	(___flmul@a+3)^0,c
  7066  002FAC  C188  F019         	movff	powf@sn,___flmul@b
  7067  002FB0  C189  F01A         	movff	powf@sn+1,___flmul@b+1
  7068  002FB4  C18A  F01B         	movff	powf@sn+2,___flmul@b+2
  7069  002FB8  C18B  F01C         	movff	powf@sn+3,___flmul@b+3
  7070  002FBC  EC47  F022         	call	___flmul	;wreg free
  7071  002FC0  C019  F1A4         	movff	?___flmul,_powf$1822
  7072  002FC4  C01A  F1A5         	movff	?___flmul+1,_powf$1822+1
  7073  002FC8  C01B  F1A6         	movff	?___flmul+2,_powf$1822+2
  7074  002FCC  C01C  F1A7         	movff	?___flmul+3,_powf$1822+3
  7075  002FD0  C1A4  F019         	movff	_powf$1822,___flmul@b
  7076  002FD4  C1A5  F01A         	movff	_powf$1822+1,___flmul@b+1
  7077  002FD8  C1A6  F01B         	movff	_powf$1822+2,___flmul@b+2
  7078  002FDC  C1A7  F01C         	movff	_powf$1822+3,___flmul@b+3
  7079  002FE0  0ECA               	movlw	202
  7080  002FE2  6E1D               	movwf	___flmul@a^0,c
  7081  002FE4  0EF2               	movlw	242
  7082  002FE6  6E1E               	movwf	(___flmul@a+1)^0,c
  7083  002FE8  0E49               	movlw	73
  7084  002FEA  6E1F               	movwf	(___flmul@a+2)^0,c
  7085  002FEC  0E71               	movlw	113
  7086  002FEE  6E20               	movwf	(___flmul@a+3)^0,c
  7087  002FF0  EC47  F022         	call	___flmul	;wreg free
  7088  002FF4  C019  F088         	movff	?___flmul,?_powf
  7089  002FF8  C01A  F089         	movff	?___flmul+1,?_powf+1
  7090  002FFC  C01B  F08A         	movff	?___flmul+2,?_powf+2
  7091  003000  C01C  F08B         	movff	?___flmul+3,?_powf+3
  7092  003004  EF86  F01D         	goto	l1510
  7093  003008                     l6291:
  7094                           
  7095                           ; BSR set to: 1
  7096  003008  0EFF               	movlw	255
  7097  00300A  15AC               	andwf	powf@j& (0+255),w,b
  7098  00300C  0100               	movlb	0	; () banked
  7099  00300E  6F90               	movwf	??_powf& (0+255),b
  7100  003010  0EFF               	movlw	255
  7101  003012  0101               	movlb	1	; () banked
  7102  003014  15AD               	andwf	(powf@j+1)& (0+255),w,b
  7103  003016  0100               	movlb	0	; () banked
  7104  003018  6F91               	movwf	(??_powf+1)& (0+255),b
  7105  00301A  0EFF               	movlw	255
  7106  00301C  0101               	movlb	1	; () banked
  7107  00301E  15AE               	andwf	(powf@j+2)& (0+255),w,b
  7108  003020  0100               	movlb	0	; () banked
  7109  003022  6F92               	movwf	(??_powf+2)& (0+255),b
  7110  003024  0E7F               	movlw	127
  7111  003026  0101               	movlb	1	; () banked
  7112  003028  15AF               	andwf	(powf@j+3)& (0+255),w,b
  7113  00302A  0100               	movlb	0	; () banked
  7114  00302C  6F93               	movwf	(??_powf+3)& (0+255),b
  7115  00302E  BF93               	btfsc	(??_powf+3)& (0+255),7,b
  7116  003030  EF26  F018         	goto	u5961
  7117  003034  0590               	decf	??_powf& (0+255),w,b
  7118  003036  0E00               	movlw	0
  7119  003038  5991               	subwfb	(??_powf+1)& (0+255),w,b
  7120  00303A  0E16               	movlw	22
  7121  00303C  5992               	subwfb	(??_powf+2)& (0+255),w,b
  7122  00303E  0E43               	movlw	67
  7123  003040  5993               	subwfb	(??_powf+3)& (0+255),w,b
  7124  003042  A0D8               	btfss	status,0,c
  7125  003044  EF26  F018         	goto	u5961
  7126  003048  EF28  F018         	goto	u5960
  7127  00304C                     u5961:
  7128  00304C  EF5E  F018         	goto	l6299
  7129  003050                     u5960:
  7130  003050                     
  7131                           ; BSR set to: 0
  7132  003050  0E60               	movlw	96
  7133  003052  6E1D               	movwf	___flmul@a^0,c
  7134  003054  0E42               	movlw	66
  7135  003056  6E1E               	movwf	(___flmul@a+1)^0,c
  7136  003058  0EA2               	movlw	162
  7137  00305A  6E1F               	movwf	(___flmul@a+2)^0,c
  7138  00305C  0E0D               	movlw	13
  7139  00305E  6E20               	movwf	(___flmul@a+3)^0,c
  7140  003060  C188  F019         	movff	powf@sn,___flmul@b
  7141  003064  C189  F01A         	movff	powf@sn+1,___flmul@b+1
  7142  003068  C18A  F01B         	movff	powf@sn+2,___flmul@b+2
  7143  00306C  C18B  F01C         	movff	powf@sn+3,___flmul@b+3
  7144  003070  EC47  F022         	call	___flmul	;wreg free
  7145  003074  C019  F1A4         	movff	?___flmul,_powf$1822
  7146  003078  C01A  F1A5         	movff	?___flmul+1,_powf$1822+1
  7147  00307C  C01B  F1A6         	movff	?___flmul+2,_powf$1822+2
  7148  003080  C01C  F1A7         	movff	?___flmul+3,_powf$1822+3
  7149  003084  C1A4  F019         	movff	_powf$1822,___flmul@b
  7150  003088  C1A5  F01A         	movff	_powf$1822+1,___flmul@b+1
  7151  00308C  C1A6  F01B         	movff	_powf$1822+2,___flmul@b+2
  7152  003090  C1A7  F01C         	movff	_powf$1822+3,___flmul@b+3
  7153  003094  0E60               	movlw	96
  7154  003096  6E1D               	movwf	___flmul@a^0,c
  7155  003098  0E42               	movlw	66
  7156  00309A  6E1E               	movwf	(___flmul@a+1)^0,c
  7157  00309C  0EA2               	movlw	162
  7158  00309E  6E1F               	movwf	(___flmul@a+2)^0,c
  7159  0030A0  0E0D               	movlw	13
  7160  0030A2  6E20               	movwf	(___flmul@a+3)^0,c
  7161  0030A4  EC47  F022         	call	___flmul	;wreg free
  7162  0030A8  C019  F088         	movff	?___flmul,?_powf
  7163  0030AC  C01A  F089         	movff	?___flmul+1,?_powf+1
  7164  0030B0  C01B  F08A         	movff	?___flmul+2,?_powf+2
  7165  0030B4  C01C  F08B         	movff	?___flmul+3,?_powf+3
  7166  0030B8  EF86  F01D         	goto	l1510
  7167  0030BC                     l6299:
  7168                           
  7169                           ; BSR set to: 0
  7170  0030BC  0E16               	movlw	22
  7171  0030BE  0101               	movlb	1	; () banked
  7172  0030C0  19AE               	xorwf	(powf@j+2)& (0+255),w,b
  7173  0030C2  E109               	bnz	u5971
  7174  0030C4  0EC3               	movlw	195
  7175  0030C6  19AF               	xorwf	(powf@j+3)& (0+255),w,b
  7176  0030C8  11AC               	iorwf	powf@j& (0+255),w,b
  7177  0030CA  11AD               	iorwf	(powf@j+1)& (0+255),w,b
  7178  0030CC  A4D8               	btfss	status,2,c
  7179  0030CE  EF6B  F018         	goto	u5971
  7180  0030D2  EF6D  F018         	goto	u5970
  7181  0030D6                     u5971:
  7182  0030D6  EFCE  F018         	goto	l6307
  7183  0030DA                     u5970:
  7184  0030DA                     
  7185                           ; BSR set to: 1
  7186  0030DA  C19C  F036         	movff	powf@p_h,___flsub@a
  7187  0030DE  C19D  F037         	movff	powf@p_h+1,___flsub@a+1
  7188  0030E2  C19E  F038         	movff	powf@p_h+2,___flsub@a+2
  7189  0030E6  C19F  F039         	movff	powf@p_h+3,___flsub@a+3
  7190  0030EA  C1B4  F032         	movff	powf@z,___flsub@b
  7191  0030EE  C1B5  F033         	movff	powf@z+1,___flsub@b+1
  7192  0030F2  C1B6  F034         	movff	powf@z+2,___flsub@b+2
  7193  0030F6  C1B7  F035         	movff	powf@z+3,___flsub@b+3
  7194  0030FA  EC79  F031         	call	___flsub	;wreg free
  7195  0030FE  C032  F03A         	movff	?___flsub,___flge@ff1
  7196  003102  C033  F03B         	movff	?___flsub+1,___flge@ff1+1
  7197  003106  C034  F03C         	movff	?___flsub+2,___flge@ff1+2
  7198  00310A  C035  F03D         	movff	?___flsub+3,___flge@ff1+3
  7199  00310E  C164  F03E         	movff	powf@p_l,___flge@ff2
  7200  003112  C165  F03F         	movff	powf@p_l+1,___flge@ff2+1
  7201  003116  C166  F040         	movff	powf@p_l+2,___flge@ff2+2
  7202  00311A  C167  F041         	movff	powf@p_l+3,___flge@ff2+3
  7203  00311E  EC79  F02A         	call	___flge	;wreg free
  7204  003122  A0D8               	btfss	status,0,c
  7205  003124  EF96  F018         	goto	u5981
  7206  003128  EF98  F018         	goto	u5980
  7207  00312C                     u5981:
  7208  00312C  EFCE  F018         	goto	l6307
  7209  003130                     u5980:
  7210  003130  0E60               	movlw	96
  7211  003132  6E1D               	movwf	___flmul@a^0,c
  7212  003134  0E42               	movlw	66
  7213  003136  6E1E               	movwf	(___flmul@a+1)^0,c
  7214  003138  0EA2               	movlw	162
  7215  00313A  6E1F               	movwf	(___flmul@a+2)^0,c
  7216  00313C  0E0D               	movlw	13
  7217  00313E  6E20               	movwf	(___flmul@a+3)^0,c
  7218  003140  C188  F019         	movff	powf@sn,___flmul@b
  7219  003144  C189  F01A         	movff	powf@sn+1,___flmul@b+1
  7220  003148  C18A  F01B         	movff	powf@sn+2,___flmul@b+2
  7221  00314C  C18B  F01C         	movff	powf@sn+3,___flmul@b+3
  7222  003150  EC47  F022         	call	___flmul	;wreg free
  7223  003154  C019  F1A4         	movff	?___flmul,_powf$1822
  7224  003158  C01A  F1A5         	movff	?___flmul+1,_powf$1822+1
  7225  00315C  C01B  F1A6         	movff	?___flmul+2,_powf$1822+2
  7226  003160  C01C  F1A7         	movff	?___flmul+3,_powf$1822+3
  7227  003164  C1A4  F019         	movff	_powf$1822,___flmul@b
  7228  003168  C1A5  F01A         	movff	_powf$1822+1,___flmul@b+1
  7229  00316C  C1A6  F01B         	movff	_powf$1822+2,___flmul@b+2
  7230  003170  C1A7  F01C         	movff	_powf$1822+3,___flmul@b+3
  7231  003174  0E60               	movlw	96
  7232  003176  6E1D               	movwf	___flmul@a^0,c
  7233  003178  0E42               	movlw	66
  7234  00317A  6E1E               	movwf	(___flmul@a+1)^0,c
  7235  00317C  0EA2               	movlw	162
  7236  00317E  6E1F               	movwf	(___flmul@a+2)^0,c
  7237  003180  0E0D               	movlw	13
  7238  003182  6E20               	movwf	(___flmul@a+3)^0,c
  7239  003184  EC47  F022         	call	___flmul	;wreg free
  7240  003188  C019  F088         	movff	?___flmul,?_powf
  7241  00318C  C01A  F089         	movff	?___flmul+1,?_powf+1
  7242  003190  C01B  F08A         	movff	?___flmul+2,?_powf+2
  7243  003194  C01C  F08B         	movff	?___flmul+3,?_powf+3
  7244  003198  EF86  F01D         	goto	l1510
  7245  00319C                     l6307:
  7246  00319C  0EFF               	movlw	255
  7247  00319E  0101               	movlb	1	; () banked
  7248  0031A0  15AC               	andwf	powf@j& (0+255),w,b
  7249  0031A2  6F2C               	movwf	powf@i& (0+255),b
  7250  0031A4  0EFF               	movlw	255
  7251  0031A6  15AD               	andwf	(powf@j+1)& (0+255),w,b
  7252  0031A8  6F2D               	movwf	(powf@i+1)& (0+255),b
  7253  0031AA  0EFF               	movlw	255
  7254  0031AC  15AE               	andwf	(powf@j+2)& (0+255),w,b
  7255  0031AE  6F2E               	movwf	(powf@i+2)& (0+255),b
  7256  0031B0  0E7F               	movlw	127
  7257  0031B2  15AF               	andwf	(powf@j+3)& (0+255),w,b
  7258  0031B4  6F2F               	movwf	(powf@i+3)& (0+255),b
  7259  0031B6  0E17               	movlw	23
  7260  0031B8  0100               	movlb	0	; () banked
  7261  0031BA  6F90               	movwf	??_powf& (0+255),b
  7262  0031BC  C12C  F091         	movff	powf@i,??_powf+1
  7263  0031C0  C12D  F092         	movff	powf@i+1,??_powf+2
  7264  0031C4  C12E  F093         	movff	powf@i+2,??_powf+3
  7265  0031C8  C12F  F094         	movff	powf@i+3,??_powf+4
  7266  0031CC                     u5995:
  7267  0031CC  6790               	tstfsz	??_powf& (0+255),b
  7268  0031CE  EFEB  F018         	goto	u5996
  7269  0031D2  EFF3  F018         	goto	u5997
  7270  0031D6                     u5996:
  7271  0031D6  3594               	rlcf	(??_powf+4)& (0+255),w,b
  7272  0031D8  3394               	rrcf	(??_powf+4)& (0+255),f,b
  7273  0031DA  3393               	rrcf	(??_powf+3)& (0+255),f,b
  7274  0031DC  3392               	rrcf	(??_powf+2)& (0+255),f,b
  7275  0031DE  3391               	rrcf	(??_powf+1)& (0+255),f,b
  7276  0031E0  2F90               	decfsz	??_powf& (0+255),f,b
  7277  0031E2  EFE6  F018         	goto	u5995
  7278  0031E6                     u5997:
  7279  0031E6  0E81               	movlw	129
  7280  0031E8  0100               	movlb	0	; () banked
  7281  0031EA  2591               	addwf	(??_powf+1)& (0+255),w,b
  7282  0031EC  0101               	movlb	1	; () banked
  7283  0031EE  6FA0               	movwf	powf@k& (0+255),b
  7284  0031F0  0EFF               	movlw	255
  7285  0031F2  0100               	movlb	0	; () banked
  7286  0031F4  2192               	addwfc	(??_powf+2)& (0+255),w,b
  7287  0031F6  0101               	movlb	1	; () banked
  7288  0031F8  6FA1               	movwf	(powf@k+1)& (0+255),b
  7289  0031FA  0EFF               	movlw	255
  7290  0031FC  0100               	movlb	0	; () banked
  7291  0031FE  2193               	addwfc	(??_powf+3)& (0+255),w,b
  7292  003200  0101               	movlb	1	; () banked
  7293  003202  6FA2               	movwf	(powf@k+2)& (0+255),b
  7294  003204  0EFF               	movlw	255
  7295  003206  0100               	movlb	0	; () banked
  7296  003208  2194               	addwfc	(??_powf+4)& (0+255),w,b
  7297  00320A  0101               	movlb	1	; () banked
  7298  00320C  6FA3               	movwf	(powf@k+3)& (0+255),b
  7299  00320E                     
  7300                           ; BSR set to: 1
  7301  00320E  0E00               	movlw	0
  7302  003210  6F80               	movwf	powf@n& (0+255),b
  7303  003212  0E00               	movlw	0
  7304  003214  6F81               	movwf	(powf@n+1)& (0+255),b
  7305  003216  0E00               	movlw	0
  7306  003218  6F82               	movwf	(powf@n+2)& (0+255),b
  7307  00321A  0E00               	movlw	0
  7308  00321C  6F83               	movwf	(powf@n+3)& (0+255),b
  7309  00321E                     
  7310                           ; BSR set to: 1
  7311  00321E  BF2F               	btfsc	(powf@i+3)& (0+255),7,b
  7312  003220  EF1E  F019         	goto	u6001
  7313  003224  052C               	decf	powf@i& (0+255),w,b
  7314  003226  0E00               	movlw	0
  7315  003228  592D               	subwfb	(powf@i+1)& (0+255),w,b
  7316  00322A  0E00               	movlw	0
  7317  00322C  592E               	subwfb	(powf@i+2)& (0+255),w,b
  7318  00322E  0E3F               	movlw	63
  7319  003230  592F               	subwfb	(powf@i+3)& (0+255),w,b
  7320  003232  A0D8               	btfss	status,0,c
  7321  003234  EF1E  F019         	goto	u6001
  7322  003238  EF20  F019         	goto	u6000
  7323  00323C                     u6001:
  7324  00323C  EF24  F01A         	goto	l6321
  7325  003240                     u6000:
  7326  003240                     
  7327                           ; BSR set to: 1
  7328  003240  C1A0  F090         	movff	powf@k,??_powf
  7329  003244  0E01               	movlw	1
  7330  003246  0100               	movlb	0	; () banked
  7331  003248  2790               	addwf	??_powf& (0+255),f,b
  7332  00324A  0E00               	movlw	0
  7333  00324C  6F91               	movwf	(??_powf+1)& (0+255),b
  7334  00324E  0E00               	movlw	0
  7335  003250  6F92               	movwf	(??_powf+2)& (0+255),b
  7336  003252  0E80               	movlw	128
  7337  003254  6F93               	movwf	(??_powf+3)& (0+255),b
  7338  003256  0E00               	movlw	0
  7339  003258  6F94               	movwf	(??_powf+4)& (0+255),b
  7340  00325A                     u6015:
  7341  00325A  6790               	tstfsz	??_powf& (0+255),b
  7342  00325C  EF32  F019         	goto	u6016
  7343  003260  EF3A  F019         	goto	u6017
  7344  003264                     u6016:
  7345  003264  3594               	rlcf	(??_powf+4)& (0+255),w,b
  7346  003266  3394               	rrcf	(??_powf+4)& (0+255),f,b
  7347  003268  3393               	rrcf	(??_powf+3)& (0+255),f,b
  7348  00326A  3392               	rrcf	(??_powf+2)& (0+255),f,b
  7349  00326C  3391               	rrcf	(??_powf+1)& (0+255),f,b
  7350  00326E  2F90               	decfsz	??_powf& (0+255),f,b
  7351  003270  EF2D  F019         	goto	u6015
  7352  003274                     u6017:
  7353  003274  0101               	movlb	1	; () banked
  7354  003276  51AC               	movf	powf@j& (0+255),w,b
  7355  003278  0100               	movlb	0	; () banked
  7356  00327A  2591               	addwf	(??_powf+1)& (0+255),w,b
  7357  00327C  0101               	movlb	1	; () banked
  7358  00327E  6F80               	movwf	powf@n& (0+255),b
  7359  003280  51AD               	movf	(powf@j+1)& (0+255),w,b
  7360  003282  0100               	movlb	0	; () banked
  7361  003284  2192               	addwfc	(??_powf+2)& (0+255),w,b
  7362  003286  0101               	movlb	1	; () banked
  7363  003288  6F81               	movwf	(powf@n+1)& (0+255),b
  7364  00328A  51AE               	movf	(powf@j+2)& (0+255),w,b
  7365  00328C  0100               	movlb	0	; () banked
  7366  00328E  2193               	addwfc	(??_powf+3)& (0+255),w,b
  7367  003290  0101               	movlb	1	; () banked
  7368  003292  6F82               	movwf	(powf@n+2)& (0+255),b
  7369  003294  51AF               	movf	(powf@j+3)& (0+255),w,b
  7370  003296  0100               	movlb	0	; () banked
  7371  003298  2194               	addwfc	(??_powf+4)& (0+255),w,b
  7372  00329A  0101               	movlb	1	; () banked
  7373  00329C  6F83               	movwf	(powf@n+3)& (0+255),b
  7374  00329E  0E81               	movlw	129
  7375  0032A0  0100               	movlb	0	; () banked
  7376  0032A2  6F90               	movwf	??_powf& (0+255),b
  7377  0032A4  0EFF               	movlw	255
  7378  0032A6  6F91               	movwf	(??_powf+1)& (0+255),b
  7379  0032A8  0EFF               	movlw	255
  7380  0032AA  6F92               	movwf	(??_powf+2)& (0+255),b
  7381  0032AC  0EFF               	movlw	255
  7382  0032AE  6F93               	movwf	(??_powf+3)& (0+255),b
  7383  0032B0  0E17               	movlw	23
  7384  0032B2  6F94               	movwf	(??_powf+4)& (0+255),b
  7385  0032B4  C180  F095         	movff	powf@n,??_powf+5
  7386  0032B8  C181  F096         	movff	powf@n+1,??_powf+6
  7387  0032BC  C182  F097         	movff	powf@n+2,??_powf+7
  7388  0032C0  C183  F098         	movff	powf@n+3,??_powf+8
  7389  0032C4                     u6025:
  7390  0032C4  6794               	tstfsz	(??_powf+4)& (0+255),b
  7391  0032C6  EF67  F019         	goto	u6026
  7392  0032CA  EF6F  F019         	goto	u6027
  7393  0032CE                     u6026:
  7394  0032CE  3598               	rlcf	(??_powf+8)& (0+255),w,b
  7395  0032D0  3398               	rrcf	(??_powf+8)& (0+255),f,b
  7396  0032D2  3397               	rrcf	(??_powf+7)& (0+255),f,b
  7397  0032D4  3396               	rrcf	(??_powf+6)& (0+255),f,b
  7398  0032D6  3395               	rrcf	(??_powf+5)& (0+255),f,b
  7399  0032D8  2F94               	decfsz	(??_powf+4)& (0+255),f,b
  7400  0032DA  EF62  F019         	goto	u6025
  7401  0032DE                     u6027:
  7402  0032DE  0100               	movlb	0	; () banked
  7403  0032E0  5195               	movf	(??_powf+5)& (0+255),w,b
  7404  0032E2  2590               	addwf	??_powf& (0+255),w,b
  7405  0032E4  0101               	movlb	1	; () banked
  7406  0032E6  6FA0               	movwf	powf@k& (0+255),b
  7407  0032E8  0E00               	movlw	0
  7408  0032EA  0100               	movlb	0	; () banked
  7409  0032EC  2191               	addwfc	(??_powf+1)& (0+255),w,b
  7410  0032EE  0101               	movlb	1	; () banked
  7411  0032F0  6FA1               	movwf	(powf@k+1)& (0+255),b
  7412  0032F2  0E00               	movlw	0
  7413  0032F4  0100               	movlb	0	; () banked
  7414  0032F6  2192               	addwfc	(??_powf+2)& (0+255),w,b
  7415  0032F8  0101               	movlb	1	; () banked
  7416  0032FA  6FA2               	movwf	(powf@k+2)& (0+255),b
  7417  0032FC  0E00               	movlw	0
  7418  0032FE  0100               	movlb	0	; () banked
  7419  003300  2193               	addwfc	(??_powf+3)& (0+255),w,b
  7420  003302  0101               	movlb	1	; () banked
  7421  003304  6FA3               	movwf	(powf@k+3)& (0+255),b
  7422  003306                     
  7423                           ; BSR set to: 1
  7424  003306  C1A0  F090         	movff	powf@k,??_powf
  7425  00330A  0EFF               	movlw	255
  7426  00330C  0100               	movlb	0	; () banked
  7427  00330E  6F91               	movwf	(??_powf+1)& (0+255),b
  7428  003310  0EFF               	movlw	255
  7429  003312  6F92               	movwf	(??_powf+2)& (0+255),b
  7430  003314  0E7F               	movlw	127
  7431  003316  6F93               	movwf	(??_powf+3)& (0+255),b
  7432  003318  0E00               	movlw	0
  7433  00331A  6F94               	movwf	(??_powf+4)& (0+255),b
  7434  00331C                     u6035:
  7435  00331C  6790               	tstfsz	??_powf& (0+255),b
  7436  00331E  EF93  F019         	goto	u6036
  7437  003322  EF9B  F019         	goto	u6037
  7438  003326                     u6036:
  7439  003326  3594               	rlcf	(??_powf+4)& (0+255),w,b
  7440  003328  3394               	rrcf	(??_powf+4)& (0+255),f,b
  7441  00332A  3393               	rrcf	(??_powf+3)& (0+255),f,b
  7442  00332C  3392               	rrcf	(??_powf+2)& (0+255),f,b
  7443  00332E  3391               	rrcf	(??_powf+1)& (0+255),f,b
  7444  003330  2F90               	decfsz	??_powf& (0+255),f,b
  7445  003332  EF8E  F019         	goto	u6035
  7446  003336                     u6037:
  7447  003336  0100               	movlb	0	; () banked
  7448  003338  1D91               	comf	(??_powf+1)& (0+255),w,b
  7449  00333A  6F95               	movwf	(??_powf+5)& (0+255),b
  7450  00333C  1D92               	comf	(??_powf+2)& (0+255),w,b
  7451  00333E  6F96               	movwf	(??_powf+6)& (0+255),b
  7452  003340  1D93               	comf	(??_powf+3)& (0+255),w,b
  7453  003342  6F97               	movwf	(??_powf+7)& (0+255),b
  7454  003344  1D94               	comf	(??_powf+4)& (0+255),w,b
  7455  003346  6F98               	movwf	(??_powf+8)& (0+255),b
  7456  003348  0101               	movlb	1	; () banked
  7457  00334A  5180               	movf	powf@n& (0+255),w,b
  7458  00334C  0100               	movlb	0	; () banked
  7459  00334E  1595               	andwf	(??_powf+5)& (0+255),w,b
  7460  003350  0101               	movlb	1	; () banked
  7461  003352  6FB8               	movwf	powf@__xc8_float_word& (0+255),b
  7462  003354  5181               	movf	(powf@n+1)& (0+255),w,b
  7463  003356  0100               	movlb	0	; () banked
  7464  003358  1596               	andwf	(??_powf+6)& (0+255),w,b
  7465  00335A  0101               	movlb	1	; () banked
  7466  00335C  6FB9               	movwf	(powf@__xc8_float_word+1)& (0+255),b
  7467  00335E  5182               	movf	(powf@n+2)& (0+255),w,b
  7468  003360  0100               	movlb	0	; () banked
  7469  003362  1597               	andwf	(??_powf+7)& (0+255),w,b
  7470  003364  0101               	movlb	1	; () banked
  7471  003366  6FBA               	movwf	(powf@__xc8_float_word+2)& (0+255),b
  7472  003368  5183               	movf	(powf@n+3)& (0+255),w,b
  7473  00336A  0100               	movlb	0	; () banked
  7474  00336C  1598               	andwf	(??_powf+8)& (0+255),w,b
  7475  00336E  0101               	movlb	1	; () banked
  7476  003370  6FBB               	movwf	(powf@__xc8_float_word+3)& (0+255),b
  7477  003372                     
  7478                           ; BSR set to: 1
  7479  003372  C1B8  F1B0         	movff	powf@__xc8_float_word,powf@t
  7480  003376  C1B9  F1B1         	movff	powf@__xc8_float_word+1,powf@t+1
  7481  00337A  C1BA  F1B2         	movff	powf@__xc8_float_word+2,powf@t+2
  7482  00337E  C1BB  F1B3         	movff	powf@__xc8_float_word+3,powf@t+3
  7483  003382                     
  7484                           ; BSR set to: 1
  7485  003382  51A0               	movf	powf@k& (0+255),w,b
  7486  003384  0817               	sublw	23
  7487  003386  0100               	movlb	0	; () banked
  7488  003388  6F90               	movwf	??_powf& (0+255),b
  7489  00338A  0EFF               	movlw	255
  7490  00338C  0101               	movlb	1	; () banked
  7491  00338E  1580               	andwf	powf@n& (0+255),w,b
  7492  003390  0100               	movlb	0	; () banked
  7493  003392  6F91               	movwf	(??_powf+1)& (0+255),b
  7494  003394  0EFF               	movlw	255
  7495  003396  0101               	movlb	1	; () banked
  7496  003398  1581               	andwf	(powf@n+1)& (0+255),w,b
  7497  00339A  0100               	movlb	0	; () banked
  7498  00339C  6F92               	movwf	(??_powf+2)& (0+255),b
  7499  00339E  0E7F               	movlw	127
  7500  0033A0  0101               	movlb	1	; () banked
  7501  0033A2  1582               	andwf	(powf@n+2)& (0+255),w,b
  7502  0033A4  0100               	movlb	0	; () banked
  7503  0033A6  6F93               	movwf	(??_powf+3)& (0+255),b
  7504  0033A8  0E00               	movlw	0
  7505  0033AA  0101               	movlb	1	; () banked
  7506  0033AC  1583               	andwf	(powf@n+3)& (0+255),w,b
  7507  0033AE  0100               	movlb	0	; () banked
  7508  0033B0  6F94               	movwf	(??_powf+4)& (0+255),b
  7509  0033B2  0E00               	movlw	0
  7510  0033B4  1191               	iorwf	(??_powf+1)& (0+255),w,b
  7511  0033B6  6F95               	movwf	(??_powf+5)& (0+255),b
  7512  0033B8  0E00               	movlw	0
  7513  0033BA  1192               	iorwf	(??_powf+2)& (0+255),w,b
  7514  0033BC  6F96               	movwf	(??_powf+6)& (0+255),b
  7515  0033BE  0E80               	movlw	128
  7516  0033C0  1193               	iorwf	(??_powf+3)& (0+255),w,b
  7517  0033C2  6F97               	movwf	(??_powf+7)& (0+255),b
  7518  0033C4  0E00               	movlw	0
  7519  0033C6  1194               	iorwf	(??_powf+4)& (0+255),w,b
  7520  0033C8  6F98               	movwf	(??_powf+8)& (0+255),b
  7521  0033CA                     u6045:
  7522  0033CA  6790               	tstfsz	??_powf& (0+255),b
  7523  0033CC  EFEA  F019         	goto	u6046
  7524  0033D0  EFF2  F019         	goto	u6047
  7525  0033D4                     u6046:
  7526  0033D4  3598               	rlcf	(??_powf+8)& (0+255),w,b
  7527  0033D6  3398               	rrcf	(??_powf+8)& (0+255),f,b
  7528  0033D8  3397               	rrcf	(??_powf+7)& (0+255),f,b
  7529  0033DA  3396               	rrcf	(??_powf+6)& (0+255),f,b
  7530  0033DC  3395               	rrcf	(??_powf+5)& (0+255),f,b
  7531  0033DE  2F90               	decfsz	??_powf& (0+255),f,b
  7532  0033E0  EFE5  F019         	goto	u6045
  7533  0033E4                     u6047:
  7534  0033E4  C095  F180         	movff	??_powf+5,powf@n
  7535  0033E8  C096  F181         	movff	??_powf+6,powf@n+1
  7536  0033EC  C097  F182         	movff	??_powf+7,powf@n+2
  7537  0033F0  C098  F183         	movff	??_powf+8,powf@n+3
  7538  0033F4  0101               	movlb	1	; () banked
  7539  0033F6  BFAF               	btfsc	(powf@j+3)& (0+255),7,b
  7540  0033F8  EF02  F01A         	goto	u6050
  7541  0033FC  EF00  F01A         	goto	u6051
  7542  003400                     u6051:
  7543  003400  EF0A  F01A         	goto	l6319
  7544  003404                     u6050:
  7545  003404                     
  7546                           ; BSR set to: 1
  7547  003404  1F83               	comf	(powf@n+3)& (0+255),f,b
  7548  003406  1F82               	comf	(powf@n+2)& (0+255),f,b
  7549  003408  1F81               	comf	(powf@n+1)& (0+255),f,b
  7550  00340A  6D80               	negf	powf@n& (0+255),b
  7551  00340C  0E00               	movlw	0
  7552  00340E  2381               	addwfc	(powf@n+1)& (0+255),f,b
  7553  003410  2382               	addwfc	(powf@n+2)& (0+255),f,b
  7554  003412  2383               	addwfc	(powf@n+3)& (0+255),f,b
  7555  003414                     l6319:
  7556                           
  7557                           ; BSR set to: 1
  7558  003414  C19C  F032         	movff	powf@p_h,___flsub@b
  7559  003418  C19D  F033         	movff	powf@p_h+1,___flsub@b+1
  7560  00341C  C19E  F034         	movff	powf@p_h+2,___flsub@b+2
  7561  003420  C19F  F035         	movff	powf@p_h+3,___flsub@b+3
  7562  003424  C1B0  F036         	movff	powf@t,___flsub@a
  7563  003428  C1B1  F037         	movff	powf@t+1,___flsub@a+1
  7564  00342C  C1B2  F038         	movff	powf@t+2,___flsub@a+2
  7565  003430  C1B3  F039         	movff	powf@t+3,___flsub@a+3
  7566  003434  EC79  F031         	call	___flsub	;wreg free
  7567  003438  C032  F19C         	movff	?___flsub,powf@p_h
  7568  00343C  C033  F19D         	movff	?___flsub+1,powf@p_h+1
  7569  003440  C034  F19E         	movff	?___flsub+2,powf@p_h+2
  7570  003444  C035  F19F         	movff	?___flsub+3,powf@p_h+3
  7571  003448                     l6321:
  7572  003448  C164  F009         	movff	powf@p_l,___fladd@b
  7573  00344C  C165  F00A         	movff	powf@p_l+1,___fladd@b+1
  7574  003450  C166  F00B         	movff	powf@p_l+2,___fladd@b+2
  7575  003454  C167  F00C         	movff	powf@p_l+3,___fladd@b+3
  7576  003458  C19C  F00D         	movff	powf@p_h,___fladd@a
  7577  00345C  C19D  F00E         	movff	powf@p_h+1,___fladd@a+1
  7578  003460  C19E  F00F         	movff	powf@p_h+2,___fladd@a+2
  7579  003464  C19F  F010         	movff	powf@p_h+3,___fladd@a+3
  7580  003468  ECE7  F01F         	call	___fladd	;wreg free
  7581  00346C  C009  F1B0         	movff	?___fladd,powf@t
  7582  003470  C00A  F1B1         	movff	?___fladd+1,powf@t+1
  7583  003474  C00B  F1B2         	movff	?___fladd+2,powf@t+2
  7584  003478  C00C  F1B3         	movff	?___fladd+3,powf@t+3
  7585  00347C  C1B0  F1B8         	movff	powf@t,powf@__xc8_float_word
  7586  003480  C1B1  F1B9         	movff	powf@t+1,powf@__xc8_float_word+1
  7587  003484  C1B2  F1BA         	movff	powf@t+2,powf@__xc8_float_word+2
  7588  003488  C1B3  F1BB         	movff	powf@t+3,powf@__xc8_float_word+3
  7589  00348C  C1B8  F194         	movff	powf@__xc8_float_word,powf@is
  7590  003490  C1B9  F195         	movff	powf@__xc8_float_word+1,powf@is+1
  7591  003494  C1BA  F196         	movff	powf@__xc8_float_word+2,powf@is+2
  7592  003498  C1BB  F197         	movff	powf@__xc8_float_word+3,powf@is+3
  7593  00349C  0E00               	movlw	0
  7594  00349E  0101               	movlb	1	; () banked
  7595  0034A0  1594               	andwf	powf@is& (0+255),w,b
  7596  0034A2  6FB8               	movwf	powf@__xc8_float_word& (0+255),b
  7597  0034A4  0E80               	movlw	128
  7598  0034A6  1595               	andwf	(powf@is+1)& (0+255),w,b
  7599  0034A8  6FB9               	movwf	(powf@__xc8_float_word+1)& (0+255),b
  7600  0034AA  0EFF               	movlw	255
  7601  0034AC  1596               	andwf	(powf@is+2)& (0+255),w,b
  7602  0034AE  6FBA               	movwf	(powf@__xc8_float_word+2)& (0+255),b
  7603  0034B0  0EFF               	movlw	255
  7604  0034B2  1597               	andwf	(powf@is+3)& (0+255),w,b
  7605  0034B4  6FBB               	movwf	(powf@__xc8_float_word+3)& (0+255),b
  7606  0034B6                     
  7607                           ; BSR set to: 1
  7608  0034B6  C1B8  F1B0         	movff	powf@__xc8_float_word,powf@t
  7609  0034BA  C1B9  F1B1         	movff	powf@__xc8_float_word+1,powf@t+1
  7610  0034BE  C1BA  F1B2         	movff	powf@__xc8_float_word+2,powf@t+2
  7611  0034C2  C1BB  F1B3         	movff	powf@__xc8_float_word+3,powf@t+3
  7612  0034C6                     
  7613                           ; BSR set to: 1
  7614  0034C6  C1B0  F019         	movff	powf@t,___flmul@b
  7615  0034CA  C1B1  F01A         	movff	powf@t+1,___flmul@b+1
  7616  0034CE  C1B2  F01B         	movff	powf@t+2,___flmul@b+2
  7617  0034D2  C1B3  F01C         	movff	powf@t+3,___flmul@b+3
  7618  0034D6  0E00               	movlw	0
  7619  0034D8  6E1D               	movwf	___flmul@a^0,c
  7620  0034DA  0E72               	movlw	114
  7621  0034DC  6E1E               	movwf	(___flmul@a+1)^0,c
  7622  0034DE  0E31               	movlw	49
  7623  0034E0  6E1F               	movwf	(___flmul@a+2)^0,c
  7624  0034E2  0E3F               	movlw	63
  7625  0034E4  6E20               	movwf	(___flmul@a+3)^0,c
  7626  0034E6  EC47  F022         	call	___flmul	;wreg free
  7627  0034EA  C019  F174         	movff	?___flmul,powf@u
  7628  0034EE  C01A  F175         	movff	?___flmul+1,powf@u+1
  7629  0034F2  C01B  F176         	movff	?___flmul+2,powf@u+2
  7630  0034F6  C01C  F177         	movff	?___flmul+3,powf@u+3
  7631  0034FA  C19C  F036         	movff	powf@p_h,___flsub@a
  7632  0034FE  C19D  F037         	movff	powf@p_h+1,___flsub@a+1
  7633  003502  C19E  F038         	movff	powf@p_h+2,___flsub@a+2
  7634  003506  C19F  F039         	movff	powf@p_h+3,___flsub@a+3
  7635  00350A  C1B0  F032         	movff	powf@t,___flsub@b
  7636  00350E  C1B1  F033         	movff	powf@t+1,___flsub@b+1
  7637  003512  C1B2  F034         	movff	powf@t+2,___flsub@b+2
  7638  003516  C1B3  F035         	movff	powf@t+3,___flsub@b+3
  7639  00351A  EC79  F031         	call	___flsub	;wreg free
  7640  00351E  C032  F198         	movff	?___flsub,_powf$1825
  7641  003522  C033  F199         	movff	?___flsub+1,_powf$1825+1
  7642  003526  C034  F19A         	movff	?___flsub+2,_powf$1825+2
  7643  00352A  C035  F19B         	movff	?___flsub+3,_powf$1825+3
  7644  00352E  0E18               	movlw	24
  7645  003530  6E1D               	movwf	___flmul@a^0,c
  7646  003532  0E72               	movlw	114
  7647  003534  6E1E               	movwf	(___flmul@a+1)^0,c
  7648  003536  0E31               	movlw	49
  7649  003538  6E1F               	movwf	(___flmul@a+2)^0,c
  7650  00353A  0E3F               	movlw	63
  7651  00353C  6E20               	movwf	(___flmul@a+3)^0,c
  7652  00353E  C198  F036         	movff	_powf$1825,___flsub@a
  7653  003542  C199  F037         	movff	_powf$1825+1,___flsub@a+1
  7654  003546  C19A  F038         	movff	_powf$1825+2,___flsub@a+2
  7655  00354A  C19B  F039         	movff	_powf$1825+3,___flsub@a+3
  7656  00354E  C164  F032         	movff	powf@p_l,___flsub@b
  7657  003552  C165  F033         	movff	powf@p_l+1,___flsub@b+1
  7658  003556  C166  F034         	movff	powf@p_l+2,___flsub@b+2
  7659  00355A  C167  F035         	movff	powf@p_l+3,___flsub@b+3
  7660  00355E  EC79  F031         	call	___flsub	;wreg free
  7661  003562  C032  F019         	movff	?___flsub,___flmul@b
  7662  003566  C033  F01A         	movff	?___flsub+1,___flmul@b+1
  7663  00356A  C034  F01B         	movff	?___flsub+2,___flmul@b+2
  7664  00356E  C035  F01C         	movff	?___flsub+3,___flmul@b+3
  7665  003572  EC47  F022         	call	___flmul	;wreg free
  7666  003576  C019  F114         	movff	?___flmul,_powf$1835
  7667  00357A  C01A  F115         	movff	?___flmul+1,_powf$1835+1
  7668  00357E  C01B  F116         	movff	?___flmul+2,_powf$1835+2
  7669  003582  C01C  F117         	movff	?___flmul+3,_powf$1835+3
  7670  003586  C114  F009         	movff	_powf$1835,___fladd@b
  7671  00358A  C115  F00A         	movff	_powf$1835+1,___fladd@b+1
  7672  00358E  C116  F00B         	movff	_powf$1835+2,___fladd@b+2
  7673  003592  C117  F00C         	movff	_powf$1835+3,___fladd@b+3
  7674  003596  0E8C               	movlw	140
  7675  003598  6E1D               	movwf	___flmul@a^0,c
  7676  00359A  0EBE               	movlw	190
  7677  00359C  6E1E               	movwf	(___flmul@a+1)^0,c
  7678  00359E  0EBF               	movlw	191
  7679  0035A0  6E1F               	movwf	(___flmul@a+2)^0,c
  7680  0035A2  0E35               	movlw	53
  7681  0035A4  6E20               	movwf	(___flmul@a+3)^0,c
  7682  0035A6  C1B0  F019         	movff	powf@t,___flmul@b
  7683  0035AA  C1B1  F01A         	movff	powf@t+1,___flmul@b+1
  7684  0035AE  C1B2  F01B         	movff	powf@t+2,___flmul@b+2
  7685  0035B2  C1B3  F01C         	movff	powf@t+3,___flmul@b+3
  7686  0035B6  EC47  F022         	call	___flmul	;wreg free
  7687  0035BA  C019  F00D         	movff	?___flmul,___fladd@a
  7688  0035BE  C01A  F00E         	movff	?___flmul+1,___fladd@a+1
  7689  0035C2  C01B  F00F         	movff	?___flmul+2,___fladd@a+2
  7690  0035C6  C01C  F010         	movff	?___flmul+3,___fladd@a+3
  7691  0035CA  ECE7  F01F         	call	___fladd	;wreg free
  7692  0035CE  C009  F178         	movff	?___fladd,powf@v
  7693  0035D2  C00A  F179         	movff	?___fladd+1,powf@v+1
  7694  0035D6  C00B  F17A         	movff	?___fladd+2,powf@v+2
  7695  0035DA  C00C  F17B         	movff	?___fladd+3,powf@v+3
  7696  0035DE  C174  F009         	movff	powf@u,___fladd@b
  7697  0035E2  C175  F00A         	movff	powf@u+1,___fladd@b+1
  7698  0035E6  C176  F00B         	movff	powf@u+2,___fladd@b+2
  7699  0035EA  C177  F00C         	movff	powf@u+3,___fladd@b+3
  7700  0035EE  C178  F00D         	movff	powf@v,___fladd@a
  7701  0035F2  C179  F00E         	movff	powf@v+1,___fladd@a+1
  7702  0035F6  C17A  F00F         	movff	powf@v+2,___fladd@a+2
  7703  0035FA  C17B  F010         	movff	powf@v+3,___fladd@a+3
  7704  0035FE  ECE7  F01F         	call	___fladd	;wreg free
  7705  003602  C009  F1B4         	movff	?___fladd,powf@z
  7706  003606  C00A  F1B5         	movff	?___fladd+1,powf@z+1
  7707  00360A  C00B  F1B6         	movff	?___fladd+2,powf@z+2
  7708  00360E  C00C  F1B7         	movff	?___fladd+3,powf@z+3
  7709  003612  C174  F036         	movff	powf@u,___flsub@a
  7710  003616  C175  F037         	movff	powf@u+1,___flsub@a+1
  7711  00361A  C176  F038         	movff	powf@u+2,___flsub@a+2
  7712  00361E  C177  F039         	movff	powf@u+3,___flsub@a+3
  7713  003622  C1B4  F032         	movff	powf@z,___flsub@b
  7714  003626  C1B5  F033         	movff	powf@z+1,___flsub@b+1
  7715  00362A  C1B6  F034         	movff	powf@z+2,___flsub@b+2
  7716  00362E  C1B7  F035         	movff	powf@z+3,___flsub@b+3
  7717  003632  EC79  F031         	call	___flsub	;wreg free
  7718  003636  C032  F198         	movff	?___flsub,_powf$1825
  7719  00363A  C033  F199         	movff	?___flsub+1,_powf$1825+1
  7720  00363E  C034  F19A         	movff	?___flsub+2,_powf$1825+2
  7721  003642  C035  F19B         	movff	?___flsub+3,_powf$1825+3
  7722  003646  C178  F032         	movff	powf@v,___flsub@b
  7723  00364A  C179  F033         	movff	powf@v+1,___flsub@b+1
  7724  00364E  C17A  F034         	movff	powf@v+2,___flsub@b+2
  7725  003652  C17B  F035         	movff	powf@v+3,___flsub@b+3
  7726  003656  C198  F036         	movff	_powf$1825,___flsub@a
  7727  00365A  C199  F037         	movff	_powf$1825+1,___flsub@a+1
  7728  00365E  C19A  F038         	movff	_powf$1825+2,___flsub@a+2
  7729  003662  C19B  F039         	movff	_powf$1825+3,___flsub@a+3
  7730  003666  EC79  F031         	call	___flsub	;wreg free
  7731  00366A  C032  F144         	movff	?___flsub,powf@w
  7732  00366E  C033  F145         	movff	?___flsub+1,powf@w+1
  7733  003672  C034  F146         	movff	?___flsub+2,powf@w+2
  7734  003676  C035  F147         	movff	?___flsub+3,powf@w+3
  7735  00367A  C1B4  F019         	movff	powf@z,___flmul@b
  7736  00367E  C1B5  F01A         	movff	powf@z+1,___flmul@b+1
  7737  003682  C1B6  F01B         	movff	powf@z+2,___flmul@b+2
  7738  003686  C1B7  F01C         	movff	powf@z+3,___flmul@b+3
  7739  00368A  C1B4  F01D         	movff	powf@z,___flmul@a
  7740  00368E  C1B5  F01E         	movff	powf@z+1,___flmul@a+1
  7741  003692  C1B6  F01F         	movff	powf@z+2,___flmul@a+2
  7742  003696  C1B7  F020         	movff	powf@z+3,___flmul@a+3
  7743  00369A  EC47  F022         	call	___flmul	;wreg free
  7744  00369E  C019  F1B0         	movff	?___flmul,powf@t
  7745  0036A2  C01A  F1B1         	movff	?___flmul+1,powf@t+1
  7746  0036A6  C01B  F1B2         	movff	?___flmul+2,powf@t+2
  7747  0036AA  C01C  F1B3         	movff	?___flmul+3,powf@t+3
  7748  0036AE  0E0E               	movlw	14
  7749  0036B0  6E0D               	movwf	___fladd@a^0,c
  7750  0036B2  0EEA               	movlw	234
  7751  0036B4  6E0E               	movwf	(___fladd@a+1)^0,c
  7752  0036B6  0EDD               	movlw	221
  7753  0036B8  6E0F               	movwf	(___fladd@a+2)^0,c
  7754  0036BA  0EB5               	movlw	181
  7755  0036BC  6E10               	movwf	(___fladd@a+3)^0,c
  7756  0036BE  0E4C               	movlw	76
  7757  0036C0  6E1D               	movwf	___flmul@a^0,c
  7758  0036C2  0EBB               	movlw	187
  7759  0036C4  6E1E               	movwf	(___flmul@a+1)^0,c
  7760  0036C6  0E31               	movlw	49
  7761  0036C8  6E1F               	movwf	(___flmul@a+2)^0,c
  7762  0036CA  0E33               	movlw	51
  7763  0036CC  6E20               	movwf	(___flmul@a+3)^0,c
  7764  0036CE  C1B0  F019         	movff	powf@t,___flmul@b
  7765  0036D2  C1B1  F01A         	movff	powf@t+1,___flmul@b+1
  7766  0036D6  C1B2  F01B         	movff	powf@t+2,___flmul@b+2
  7767  0036DA  C1B3  F01C         	movff	powf@t+3,___flmul@b+3
  7768  0036DE  EC47  F022         	call	___flmul	;wreg free
  7769  0036E2  C019  F009         	movff	?___flmul,___fladd@b
  7770  0036E6  C01A  F00A         	movff	?___flmul+1,___fladd@b+1
  7771  0036EA  C01B  F00B         	movff	?___flmul+2,___fladd@b+2
  7772  0036EE  C01C  F00C         	movff	?___flmul+3,___fladd@b+3
  7773  0036F2  ECE7  F01F         	call	___fladd	;wreg free
  7774  0036F6  C009  F1A4         	movff	?___fladd,_powf$1822
  7775  0036FA  C00A  F1A5         	movff	?___fladd+1,_powf$1822+1
  7776  0036FE  C00B  F1A6         	movff	?___fladd+2,_powf$1822+2
  7777  003702  C00C  F1A7         	movff	?___fladd+3,_powf$1822+3
  7778  003706  0E55               	movlw	85
  7779  003708  6E0D               	movwf	___fladd@a^0,c
  7780  00370A  0EB3               	movlw	179
  7781  00370C  6E0E               	movwf	(___fladd@a+1)^0,c
  7782  00370E  0E8A               	movlw	138
  7783  003710  6E0F               	movwf	(___fladd@a+2)^0,c
  7784  003712  0E38               	movlw	56
  7785  003714  6E10               	movwf	(___fladd@a+3)^0,c
  7786  003716  C1B0  F01D         	movff	powf@t,___flmul@a
  7787  00371A  C1B1  F01E         	movff	powf@t+1,___flmul@a+1
  7788  00371E  C1B2  F01F         	movff	powf@t+2,___flmul@a+2
  7789  003722  C1B3  F020         	movff	powf@t+3,___flmul@a+3
  7790  003726  C1A4  F019         	movff	_powf$1822,___flmul@b
  7791  00372A  C1A5  F01A         	movff	_powf$1822+1,___flmul@b+1
  7792  00372E  C1A6  F01B         	movff	_powf$1822+2,___flmul@b+2
  7793  003732  C1A7  F01C         	movff	_powf$1822+3,___flmul@b+3
  7794  003736  EC47  F022         	call	___flmul	;wreg free
  7795  00373A  C019  F009         	movff	?___flmul,___fladd@b
  7796  00373E  C01A  F00A         	movff	?___flmul+1,___fladd@b+1
  7797  003742  C01B  F00B         	movff	?___flmul+2,___fladd@b+2
  7798  003746  C01C  F00C         	movff	?___flmul+3,___fladd@b+3
  7799  00374A  ECE7  F01F         	call	___fladd	;wreg free
  7800  00374E  C009  F154         	movff	?___fladd,_powf$1823
  7801  003752  C00A  F155         	movff	?___fladd+1,_powf$1823+1
  7802  003756  C00B  F156         	movff	?___fladd+2,_powf$1823+2
  7803  00375A  C00C  F157         	movff	?___fladd+3,_powf$1823+3
  7804  00375E  0E61               	movlw	97
  7805  003760  6E0D               	movwf	___fladd@a^0,c
  7806  003762  0E0B               	movlw	11
  7807  003764  6E0E               	movwf	(___fladd@a+1)^0,c
  7808  003766  0E36               	movlw	54
  7809  003768  6E0F               	movwf	(___fladd@a+2)^0,c
  7810  00376A  0EBB               	movlw	187
  7811  00376C  6E10               	movwf	(___fladd@a+3)^0,c
  7812  00376E  C1B0  F01D         	movff	powf@t,___flmul@a
  7813  003772  C1B1  F01E         	movff	powf@t+1,___flmul@a+1
  7814  003776  C1B2  F01F         	movff	powf@t+2,___flmul@a+2
  7815  00377A  C1B3  F020         	movff	powf@t+3,___flmul@a+3
  7816  00377E  C154  F019         	movff	_powf$1823,___flmul@b
  7817  003782  C155  F01A         	movff	_powf$1823+1,___flmul@b+1
  7818  003786  C156  F01B         	movff	_powf$1823+2,___flmul@b+2
  7819  00378A  C157  F01C         	movff	_powf$1823+3,___flmul@b+3
  7820  00378E  EC47  F022         	call	___flmul	;wreg free
  7821  003792  C019  F009         	movff	?___flmul,___fladd@b
  7822  003796  C01A  F00A         	movff	?___flmul+1,___fladd@b+1
  7823  00379A  C01B  F00B         	movff	?___flmul+2,___fladd@b+2
  7824  00379E  C01C  F00C         	movff	?___flmul+3,___fladd@b+3
  7825  0037A2  ECE7  F01F         	call	___fladd	;wreg free
  7826  0037A6  C009  F148         	movff	?___fladd,_powf$1824
  7827  0037AA  C00A  F149         	movff	?___fladd+1,_powf$1824+1
  7828  0037AE  C00B  F14A         	movff	?___fladd+2,_powf$1824+2
  7829  0037B2  C00C  F14B         	movff	?___fladd+3,_powf$1824+3
  7830  0037B6  0EAB               	movlw	171
  7831  0037B8  6E0D               	movwf	___fladd@a^0,c
  7832  0037BA  0EAA               	movlw	170
  7833  0037BC  6E0E               	movwf	(___fladd@a+1)^0,c
  7834  0037BE  0E2A               	movlw	42
  7835  0037C0  6E0F               	movwf	(___fladd@a+2)^0,c
  7836  0037C2  0E3E               	movlw	62
  7837  0037C4  6E10               	movwf	(___fladd@a+3)^0,c
  7838  0037C6  C1B0  F01D         	movff	powf@t,___flmul@a
  7839  0037CA  C1B1  F01E         	movff	powf@t+1,___flmul@a+1
  7840  0037CE  C1B2  F01F         	movff	powf@t+2,___flmul@a+2
  7841  0037D2  C1B3  F020         	movff	powf@t+3,___flmul@a+3
  7842  0037D6  C148  F019         	movff	_powf$1824,___flmul@b
  7843  0037DA  C149  F01A         	movff	_powf$1824+1,___flmul@b+1
  7844  0037DE  C14A  F01B         	movff	_powf$1824+2,___flmul@b+2
  7845  0037E2  C14B  F01C         	movff	_powf$1824+3,___flmul@b+3
  7846  0037E6  EC47  F022         	call	___flmul	;wreg free
  7847  0037EA  C019  F009         	movff	?___flmul,___fladd@b
  7848  0037EE  C01A  F00A         	movff	?___flmul+1,___fladd@b+1
  7849  0037F2  C01B  F00B         	movff	?___flmul+2,___fladd@b+2
  7850  0037F6  C01C  F00C         	movff	?___flmul+3,___fladd@b+3
  7851  0037FA  ECE7  F01F         	call	___fladd	;wreg free
  7852  0037FE  C009  F138         	movff	?___fladd,_powf$1826
  7853  003802  C00A  F139         	movff	?___fladd+1,_powf$1826+1
  7854  003806  C00B  F13A         	movff	?___fladd+2,_powf$1826+2
  7855  00380A  C00C  F13B         	movff	?___fladd+3,_powf$1826+3
  7856  00380E  C1B4  F032         	movff	powf@z,___flsub@b
  7857  003812  C1B5  F033         	movff	powf@z+1,___flsub@b+1
  7858  003816  C1B6  F034         	movff	powf@z+2,___flsub@b+2
  7859  00381A  C1B7  F035         	movff	powf@z+3,___flsub@b+3
  7860  00381E  C1B0  F01D         	movff	powf@t,___flmul@a
  7861  003822  C1B1  F01E         	movff	powf@t+1,___flmul@a+1
  7862  003826  C1B2  F01F         	movff	powf@t+2,___flmul@a+2
  7863  00382A  C1B3  F020         	movff	powf@t+3,___flmul@a+3
  7864  00382E  C138  F019         	movff	_powf$1826,___flmul@b
  7865  003832  C139  F01A         	movff	_powf$1826+1,___flmul@b+1
  7866  003836  C13A  F01B         	movff	_powf$1826+2,___flmul@b+2
  7867  00383A  C13B  F01C         	movff	_powf$1826+3,___flmul@b+3
  7868  00383E  EC47  F022         	call	___flmul	;wreg free
  7869  003842  C019  F036         	movff	?___flmul,___flsub@a
  7870  003846  C01A  F037         	movff	?___flmul+1,___flsub@a+1
  7871  00384A  C01B  F038         	movff	?___flmul+2,___flsub@a+2
  7872  00384E  C01C  F039         	movff	?___flmul+3,___flsub@a+3
  7873  003852  EC79  F031         	call	___flsub	;wreg free
  7874  003856  C032  F184         	movff	?___flsub,powf@t1
  7875  00385A  C033  F185         	movff	?___flsub+1,powf@t1+1
  7876  00385E  C034  F186         	movff	?___flsub+2,powf@t1+2
  7877  003862  C035  F187         	movff	?___flsub+3,powf@t1+3
  7878  003866  0E00               	movlw	0
  7879  003868  6E0D               	movwf	___fladd@a^0,c
  7880  00386A  0E00               	movlw	0
  7881  00386C  6E0E               	movwf	(___fladd@a+1)^0,c
  7882  00386E  0E00               	movlw	0
  7883  003870  6E0F               	movwf	(___fladd@a+2)^0,c
  7884  003872  0EC0               	movlw	192
  7885  003874  6E10               	movwf	(___fladd@a+3)^0,c
  7886  003876  C184  F009         	movff	powf@t1,___fladd@b
  7887  00387A  C185  F00A         	movff	powf@t1+1,___fladd@b+1
  7888  00387E  C186  F00B         	movff	powf@t1+2,___fladd@b+2
  7889  003882  C187  F00C         	movff	powf@t1+3,___fladd@b+3
  7890  003886  ECE7  F01F         	call	___fladd	;wreg free
  7891  00388A  C009  F03E         	movff	?___fladd,___fldiv@a
  7892  00388E  C00A  F03F         	movff	?___fladd+1,___fldiv@a+1
  7893  003892  C00B  F040         	movff	?___fladd+2,___fldiv@a+2
  7894  003896  C00C  F041         	movff	?___fladd+3,___fldiv@a+3
  7895  00389A  C184  F01D         	movff	powf@t1,___flmul@a
  7896  00389E  C185  F01E         	movff	powf@t1+1,___flmul@a+1
  7897  0038A2  C186  F01F         	movff	powf@t1+2,___flmul@a+2
  7898  0038A6  C187  F020         	movff	powf@t1+3,___flmul@a+3
  7899  0038AA  C1B4  F019         	movff	powf@z,___flmul@b
  7900  0038AE  C1B5  F01A         	movff	powf@z+1,___flmul@b+1
  7901  0038B2  C1B6  F01B         	movff	powf@z+2,___flmul@b+2
  7902  0038B6  C1B7  F01C         	movff	powf@z+3,___flmul@b+3
  7903  0038BA  EC47  F022         	call	___flmul	;wreg free
  7904  0038BE  C019  F03A         	movff	?___flmul,___fldiv@b
  7905  0038C2  C01A  F03B         	movff	?___flmul+1,___fldiv@b+1
  7906  0038C6  C01B  F03C         	movff	?___flmul+2,___fldiv@b+2
  7907  0038CA  C01C  F03D         	movff	?___flmul+3,___fldiv@b+3
  7908  0038CE  EC5C  F024         	call	___fldiv	;wreg free
  7909  0038D2  C03A  F13C         	movff	?___fldiv,_powf$1830
  7910  0038D6  C03B  F13D         	movff	?___fldiv+1,_powf$1830+1
  7911  0038DA  C03C  F13E         	movff	?___fldiv+2,_powf$1830+2
  7912  0038DE  C03D  F13F         	movff	?___fldiv+3,_powf$1830+3
  7913  0038E2  C144  F00D         	movff	powf@w,___fladd@a
  7914  0038E6  C145  F00E         	movff	powf@w+1,___fladd@a+1
  7915  0038EA  C146  F00F         	movff	powf@w+2,___fladd@a+2
  7916  0038EE  C147  F010         	movff	powf@w+3,___fladd@a+3
  7917  0038F2  C144  F01D         	movff	powf@w,___flmul@a
  7918  0038F6  C145  F01E         	movff	powf@w+1,___flmul@a+1
  7919  0038FA  C146  F01F         	movff	powf@w+2,___flmul@a+2
  7920  0038FE  C147  F020         	movff	powf@w+3,___flmul@a+3
  7921  003902  C1B4  F019         	movff	powf@z,___flmul@b
  7922  003906  C1B5  F01A         	movff	powf@z+1,___flmul@b+1
  7923  00390A  C1B6  F01B         	movff	powf@z+2,___flmul@b+2
  7924  00390E  C1B7  F01C         	movff	powf@z+3,___flmul@b+3
  7925  003912  EC47  F022         	call	___flmul	;wreg free
  7926  003916  C019  F009         	movff	?___flmul,___fladd@b
  7927  00391A  C01A  F00A         	movff	?___flmul+1,___fladd@b+1
  7928  00391E  C01B  F00B         	movff	?___flmul+2,___fladd@b+2
  7929  003922  C01C  F00C         	movff	?___flmul+3,___fladd@b+3
  7930  003926  ECE7  F01F         	call	___fladd	;wreg free
  7931  00392A  C009  F118         	movff	?___fladd,_powf$1836
  7932  00392E  C00A  F119         	movff	?___fladd+1,_powf$1836+1
  7933  003932  C00B  F11A         	movff	?___fladd+2,_powf$1836+2
  7934  003936  C00C  F11B         	movff	?___fladd+3,_powf$1836+3
  7935  00393A  C13C  F032         	movff	_powf$1830,___flsub@b
  7936  00393E  C13D  F033         	movff	_powf$1830+1,___flsub@b+1
  7937  003942  C13E  F034         	movff	_powf$1830+2,___flsub@b+2
  7938  003946  C13F  F035         	movff	_powf$1830+3,___flsub@b+3
  7939  00394A  C118  F036         	movff	_powf$1836,___flsub@a
  7940  00394E  C119  F037         	movff	_powf$1836+1,___flsub@a+1
  7941  003952  C11A  F038         	movff	_powf$1836+2,___flsub@a+2
  7942  003956  C11B  F039         	movff	_powf$1836+3,___flsub@a+3
  7943  00395A  EC79  F031         	call	___flsub	;wreg free
  7944  00395E  C032  F14C         	movff	?___flsub,powf@r
  7945  003962  C033  F14D         	movff	?___flsub+1,powf@r+1
  7946  003966  C034  F14E         	movff	?___flsub+2,powf@r+2
  7947  00396A  C035  F14F         	movff	?___flsub+3,powf@r+3
  7948  00396E  C1B4  F036         	movff	powf@z,___flsub@a
  7949  003972  C1B5  F037         	movff	powf@z+1,___flsub@a+1
  7950  003976  C1B6  F038         	movff	powf@z+2,___flsub@a+2
  7951  00397A  C1B7  F039         	movff	powf@z+3,___flsub@a+3
  7952  00397E  C14C  F032         	movff	powf@r,___flsub@b
  7953  003982  C14D  F033         	movff	powf@r+1,___flsub@b+1
  7954  003986  C14E  F034         	movff	powf@r+2,___flsub@b+2
  7955  00398A  C14F  F035         	movff	powf@r+3,___flsub@b+3
  7956  00398E  EC79  F031         	call	___flsub	;wreg free
  7957  003992  C032  F198         	movff	?___flsub,_powf$1825
  7958  003996  C033  F199         	movff	?___flsub+1,_powf$1825+1
  7959  00399A  C034  F19A         	movff	?___flsub+2,_powf$1825+2
  7960  00399E  C035  F19B         	movff	?___flsub+3,_powf$1825+3
  7961  0039A2  0E00               	movlw	0
  7962  0039A4  6E32               	movwf	___flsub@b^0,c
  7963  0039A6  0E00               	movlw	0
  7964  0039A8  6E33               	movwf	(___flsub@b+1)^0,c
  7965  0039AA  0E80               	movlw	128
  7966  0039AC  6E34               	movwf	(___flsub@b+2)^0,c
  7967  0039AE  0E3F               	movlw	63
  7968  0039B0  6E35               	movwf	(___flsub@b+3)^0,c
  7969  0039B2  C198  F036         	movff	_powf$1825,___flsub@a
  7970  0039B6  C199  F037         	movff	_powf$1825+1,___flsub@a+1
  7971  0039BA  C19A  F038         	movff	_powf$1825+2,___flsub@a+2
  7972  0039BE  C19B  F039         	movff	_powf$1825+3,___flsub@a+3
  7973  0039C2  EC79  F031         	call	___flsub	;wreg free
  7974  0039C6  C032  F1B4         	movff	?___flsub,powf@z
  7975  0039CA  C033  F1B5         	movff	?___flsub+1,powf@z+1
  7976  0039CE  C034  F1B6         	movff	?___flsub+2,powf@z+2
  7977  0039D2  C035  F1B7         	movff	?___flsub+3,powf@z+3
  7978  0039D6  C1B4  F1B8         	movff	powf@z,powf@__xc8_float_word
  7979  0039DA  C1B5  F1B9         	movff	powf@z+1,powf@__xc8_float_word+1
  7980  0039DE  C1B6  F1BA         	movff	powf@z+2,powf@__xc8_float_word+2
  7981  0039E2  C1B7  F1BB         	movff	powf@z+3,powf@__xc8_float_word+3
  7982  0039E6  C1B8  F1AC         	movff	powf@__xc8_float_word,powf@j
  7983  0039EA  C1B9  F1AD         	movff	powf@__xc8_float_word+1,powf@j+1
  7984  0039EE  C1BA  F1AE         	movff	powf@__xc8_float_word+2,powf@j+2
  7985  0039F2  C1BB  F1AF         	movff	powf@__xc8_float_word+3,powf@j+3
  7986  0039F6  C180  F090         	movff	powf@n,??_powf
  7987  0039FA  C181  F091         	movff	powf@n+1,??_powf+1
  7988  0039FE  C182  F092         	movff	powf@n+2,??_powf+2
  7989  003A02  C183  F093         	movff	powf@n+3,??_powf+3
  7990  003A06  0E17               	movlw	23
  7991  003A08                     u6065:
  7992  003A08  90D8               	bcf	status,0,c
  7993  003A0A  0100               	movlb	0	; () banked
  7994  003A0C  3790               	rlcf	??_powf& (0+255),f,b
  7995  003A0E  3791               	rlcf	(??_powf+1)& (0+255),f,b
  7996  003A10  3792               	rlcf	(??_powf+2)& (0+255),f,b
  7997  003A12  3793               	rlcf	(??_powf+3)& (0+255),f,b
  7998  003A14  2EE8               	decfsz	wreg,f,c
  7999  003A16  EF04  F01D         	goto	u6065
  8000  003A1A  5190               	movf	??_powf& (0+255),w,b
  8001  003A1C  0101               	movlb	1	; () banked
  8002  003A1E  27AC               	addwf	powf@j& (0+255),f,b
  8003  003A20  0100               	movlb	0	; () banked
  8004  003A22  5191               	movf	(??_powf+1)& (0+255),w,b
  8005  003A24  0101               	movlb	1	; () banked
  8006  003A26  23AD               	addwfc	(powf@j+1)& (0+255),f,b
  8007  003A28  0100               	movlb	0	; () banked
  8008  003A2A  5192               	movf	(??_powf+2)& (0+255),w,b
  8009  003A2C  0101               	movlb	1	; () banked
  8010  003A2E  23AE               	addwfc	(powf@j+2)& (0+255),f,b
  8011  003A30  0100               	movlb	0	; () banked
  8012  003A32  5193               	movf	(??_powf+3)& (0+255),w,b
  8013  003A34  0101               	movlb	1	; () banked
  8014  003A36  23AF               	addwfc	(powf@j+3)& (0+255),f,b
  8015  003A38                     
  8016                           ; BSR set to: 1
  8017  003A38  0E17               	movlw	23
  8018  003A3A  0100               	movlb	0	; () banked
  8019  003A3C  6F90               	movwf	??_powf& (0+255),b
  8020  003A3E  C1AC  F091         	movff	powf@j,??_powf+1
  8021  003A42  C1AD  F092         	movff	powf@j+1,??_powf+2
  8022  003A46  C1AE  F093         	movff	powf@j+2,??_powf+3
  8023  003A4A  C1AF  F094         	movff	powf@j+3,??_powf+4
  8024  003A4E                     u6075:
  8025  003A4E  6790               	tstfsz	??_powf& (0+255),b
  8026  003A50  EF2C  F01D         	goto	u6076
  8027  003A54  EF34  F01D         	goto	u6077
  8028  003A58                     u6076:
  8029  003A58  3594               	rlcf	(??_powf+4)& (0+255),w,b
  8030  003A5A  3394               	rrcf	(??_powf+4)& (0+255),f,b
  8031  003A5C  3393               	rrcf	(??_powf+3)& (0+255),f,b
  8032  003A5E  3392               	rrcf	(??_powf+2)& (0+255),f,b
  8033  003A60  3391               	rrcf	(??_powf+1)& (0+255),f,b
  8034  003A62  2F90               	decfsz	??_powf& (0+255),f,b
  8035  003A64  EF27  F01D         	goto	u6075
  8036  003A68                     u6077:
  8037  003A68  0100               	movlb	0	; () banked
  8038  003A6A  BF94               	btfsc	(??_powf+4)& (0+255),7,b
  8039  003A6C  EF44  F01D         	goto	u6080
  8040  003A70  5194               	movf	(??_powf+4)& (0+255),w,b
  8041  003A72  1193               	iorwf	(??_powf+3)& (0+255),w,b
  8042  003A74  1192               	iorwf	(??_powf+2)& (0+255),w,b
  8043  003A76  E106               	bnz	u6081
  8044  003A78  0591               	decf	(??_powf+1)& (0+255),w,b
  8045  003A7A  B0D8               	btfsc	status,0,c
  8046  003A7C  EF42  F01D         	goto	u6081
  8047  003A80  EF44  F01D         	goto	u6080
  8048  003A84                     u6081:
  8049  003A84  EF5C  F01D         	goto	l1622
  8050  003A88                     u6080:
  8051  003A88                     
  8052                           ; BSR set to: 0
  8053  003A88  C1B4  F032         	movff	powf@z,scalbnf@x
  8054  003A8C  C1B5  F033         	movff	powf@z+1,scalbnf@x+1
  8055  003A90  C1B6  F034         	movff	powf@z+2,scalbnf@x+2
  8056  003A94  C1B7  F035         	movff	powf@z+3,scalbnf@x+3
  8057  003A98  C180  F036         	movff	powf@n,scalbnf@n
  8058  003A9C  C181  F037         	movff	powf@n+1,scalbnf@n+1
  8059  003AA0  EC6C  F027         	call	_scalbnf	;wreg free
  8060  003AA4  C032  F1B4         	movff	?_scalbnf,powf@z
  8061  003AA8  C033  F1B5         	movff	?_scalbnf+1,powf@z+1
  8062  003AAC  C034  F1B6         	movff	?_scalbnf+2,powf@z+2
  8063  003AB0  C035  F1B7         	movff	?_scalbnf+3,powf@z+3
  8064  003AB4  EF6C  F01D         	goto	l6377
  8065  003AB8                     l1622:
  8066                           
  8067                           ; BSR set to: 0
  8068  003AB8  C1AC  F1B8         	movff	powf@j,powf@__xc8_float_word
  8069  003ABC  C1AD  F1B9         	movff	powf@j+1,powf@__xc8_float_word+1
  8070  003AC0  C1AE  F1BA         	movff	powf@j+2,powf@__xc8_float_word+2
  8071  003AC4  C1AF  F1BB         	movff	powf@j+3,powf@__xc8_float_word+3
  8072  003AC8  C1B8  F1B4         	movff	powf@__xc8_float_word,powf@z
  8073  003ACC  C1B9  F1B5         	movff	powf@__xc8_float_word+1,powf@z+1
  8074  003AD0  C1BA  F1B6         	movff	powf@__xc8_float_word+2,powf@z+2
  8075  003AD4  C1BB  F1B7         	movff	powf@__xc8_float_word+3,powf@z+3
  8076  003AD8                     l6377:
  8077  003AD8  C188  F019         	movff	powf@sn,___flmul@b
  8078  003ADC  C189  F01A         	movff	powf@sn+1,___flmul@b+1
  8079  003AE0  C18A  F01B         	movff	powf@sn+2,___flmul@b+2
  8080  003AE4  C18B  F01C         	movff	powf@sn+3,___flmul@b+3
  8081  003AE8  C1B4  F01D         	movff	powf@z,___flmul@a
  8082  003AEC  C1B5  F01E         	movff	powf@z+1,___flmul@a+1
  8083  003AF0  C1B6  F01F         	movff	powf@z+2,___flmul@a+2
  8084  003AF4  C1B7  F020         	movff	powf@z+3,___flmul@a+3
  8085  003AF8  EC47  F022         	call	___flmul	;wreg free
  8086  003AFC  C019  F088         	movff	?___flmul,?_powf
  8087  003B00  C01A  F089         	movff	?___flmul+1,?_powf+1
  8088  003B04  C01B  F08A         	movff	?___flmul+2,?_powf+2
  8089  003B08  C01C  F08B         	movff	?___flmul+3,?_powf+3
  8090  003B0C                     l1510:
  8091  003B0C  0012               	return		;funcret
  8092  003B0E                     __end_of_powf:
  8093                           	opt callstack 0
  8094                           
  8095 ;; *************** function _sqrtf *****************
  8096 ;; Defined at:
  8097 ;;		line 22 in file "C:\Program Files (x86)\Microchip\xc8\v2.10\pic\sources\c99\common\sqrtf.c"
  8098 ;; Parameters:    Size  Location     Type
  8099 ;;  x               4   69[COMRAM] float 
  8100 ;; Auto vars:     Size  Location     Type
  8101 ;;  ix              4   36[BANK0 ] long 
  8102 ;;  r               4   32[BANK0 ] unsigned long 
  8103 ;;  m               4   28[BANK0 ] long 
  8104 ;;  z               4   24[BANK0 ] float 
  8105 ;;  t               4   20[BANK0 ] long 
  8106 ;;  q               4   16[BANK0 ] long 
  8107 ;;  __xc8_float_    4   12[BANK0 ] struct .
  8108 ;;  i               4    8[BANK0 ] long 
  8109 ;;  s               4    4[BANK0 ] long 
  8110 ;;  sign            4    0        long 
  8111 ;; Return value:  Size  Location     Type
  8112 ;;                  4   69[COMRAM] float 
  8113 ;; Registers used:
  8114 ;;		wreg, status,2, status,0, prodl, prodh, cstack
  8115 ;; Tracked objects:
  8116 ;;		On entry : 0/0
  8117 ;;		On exit  : 0/0
  8118 ;;		Unchanged: 0/0
  8119 ;; Data sizes:     COMRAM   BANK0   BANK1   BANK2   BANK3   BANK4   BANK5   BANK6   BANK7   BANK8   BANK9  BANK10  BANK1
      +1  BANK12  BANK13  BANK14  BANK15
  8120 ;;      Params:         4       0       0       0       0       0       0       0       0       0       0       0       
      +0       0       0       0       0
  8121 ;;      Locals:         0      40       0       0       0       0       0       0       0       0       0       0       
      +0       0       0       0       0
  8122 ;;      Temps:          5       0       0       0       0       0       0       0       0       0       0       0       
      +0       0       0       0       0
  8123 ;;      Totals:         9      40       0       0       0       0       0       0       0       0       0       0       
      +0       0       0       0       0
  8124 ;;Total ram usage:       49 bytes
  8125 ;; Hardware stack levels used:    1
  8126 ;; Hardware stack levels required when called:    4
  8127 ;; This function calls:
  8128 ;;		___fladd
  8129 ;;		___flge
  8130 ;;		___flmul
  8131 ;;		_nanf
  8132 ;; This function is called by:
  8133 ;;		_powf
  8134 ;; This function uses a non-reentrant model
  8135 ;;
  8136                           
  8137                           	psect	text23
  8138  003B0E                     __ptext23:
  8139                           	opt callstack 0
  8140  003B0E                     _sqrtf:
  8141                           	opt callstack 22
  8142  003B0E  C046  F06C         	movff	sqrtf@x,sqrtf@__xc8_float_word
  8143  003B12  C047  F06D         	movff	sqrtf@x+1,sqrtf@__xc8_float_word+1
  8144  003B16  C048  F06E         	movff	sqrtf@x+2,sqrtf@__xc8_float_word+2
  8145  003B1A  C049  F06F         	movff	sqrtf@x+3,sqrtf@__xc8_float_word+3
  8146  003B1E  C06C  F084         	movff	sqrtf@__xc8_float_word,sqrtf@ix
  8147  003B22  C06D  F085         	movff	sqrtf@__xc8_float_word+1,sqrtf@ix+1
  8148  003B26  C06E  F086         	movff	sqrtf@__xc8_float_word+2,sqrtf@ix+2
  8149  003B2A  C06F  F087         	movff	sqrtf@__xc8_float_word+3,sqrtf@ix+3
  8150  003B2E  0E00               	movlw	0
  8151  003B30  0100               	movlb	0	; () banked
  8152  003B32  1584               	andwf	sqrtf@ix& (0+255),w,b
  8153  003B34  6E4A               	movwf	??_sqrtf^0,c
  8154  003B36  0E00               	movlw	0
  8155  003B38  1585               	andwf	(sqrtf@ix+1)& (0+255),w,b
  8156  003B3A  6E4B               	movwf	(??_sqrtf+1)^0,c
  8157  003B3C  0E80               	movlw	128
  8158  003B3E  1586               	andwf	(sqrtf@ix+2)& (0+255),w,b
  8159  003B40  6E4C               	movwf	(??_sqrtf+2)^0,c
  8160  003B42  0E7F               	movlw	127
  8161  003B44  1587               	andwf	(sqrtf@ix+3)& (0+255),w,b
  8162  003B46  6E4D               	movwf	(??_sqrtf+3)^0,c
  8163  003B48  0E80               	movlw	128
  8164  003B4A  184C               	xorwf	(??_sqrtf+2)^0,w,c
  8165  003B4C  E109               	bnz	u3651
  8166  003B4E  0E7F               	movlw	127
  8167  003B50  184D               	xorwf	(??_sqrtf+3)^0,w,c
  8168  003B52  104A               	iorwf	??_sqrtf^0,w,c
  8169  003B54  104B               	iorwf	(??_sqrtf+1)^0,w,c
  8170  003B56  A4D8               	btfss	status,2,c
  8171  003B58  EFB0  F01D         	goto	u3651
  8172  003B5C  EFB2  F01D         	goto	u3650
  8173  003B60                     u3651:
  8174  003B60  EFE0  F01D         	goto	l4377
  8175  003B64                     u3650:
  8176  003B64                     
  8177                           ; BSR set to: 0
  8178  003B64  C046  F01D         	movff	sqrtf@x,___flmul@a
  8179  003B68  C047  F01E         	movff	sqrtf@x+1,___flmul@a+1
  8180  003B6C  C048  F01F         	movff	sqrtf@x+2,___flmul@a+2
  8181  003B70  C049  F020         	movff	sqrtf@x+3,___flmul@a+3
  8182  003B74  C046  F019         	movff	sqrtf@x,___flmul@b
  8183  003B78  C047  F01A         	movff	sqrtf@x+1,___flmul@b+1
  8184  003B7C  C048  F01B         	movff	sqrtf@x+2,___flmul@b+2
  8185  003B80  C049  F01C         	movff	sqrtf@x+3,___flmul@b+3
  8186  003B84  EC47  F022         	call	___flmul	;wreg free
  8187  003B88  C019  F009         	movff	?___flmul,___fladd@b
  8188  003B8C  C01A  F00A         	movff	?___flmul+1,___fladd@b+1
  8189  003B90  C01B  F00B         	movff	?___flmul+2,___fladd@b+2
  8190  003B94  C01C  F00C         	movff	?___flmul+3,___fladd@b+3
  8191  003B98  C046  F00D         	movff	sqrtf@x,___fladd@a
  8192  003B9C  C047  F00E         	movff	sqrtf@x+1,___fladd@a+1
  8193  003BA0  C048  F00F         	movff	sqrtf@x+2,___fladd@a+2
  8194  003BA4  C049  F010         	movff	sqrtf@x+3,___fladd@a+3
  8195  003BA8  ECE7  F01F         	call	___fladd	;wreg free
  8196  003BAC  C009  F046         	movff	?___fladd,?_sqrtf
  8197  003BB0  C00A  F047         	movff	?___fladd+1,?_sqrtf+1
  8198  003BB4  C00B  F048         	movff	?___fladd+2,?_sqrtf+2
  8199  003BB8  C00C  F049         	movff	?___fladd+3,?_sqrtf+3
  8200  003BBC  EFE6  F01F         	goto	l1645
  8201  003BC0                     l4377:
  8202                           
  8203                           ; BSR set to: 0
  8204  003BC0  BF87               	btfsc	(sqrtf@ix+3)& (0+255),7,b
  8205  003BC2  EFEF  F01D         	goto	u3660
  8206  003BC6  5187               	movf	(sqrtf@ix+3)& (0+255),w,b
  8207  003BC8  1186               	iorwf	(sqrtf@ix+2)& (0+255),w,b
  8208  003BCA  1185               	iorwf	(sqrtf@ix+1)& (0+255),w,b
  8209  003BCC  E106               	bnz	u3661
  8210  003BCE  0584               	decf	sqrtf@ix& (0+255),w,b
  8211  003BD0  B0D8               	btfsc	status,0,c
  8212  003BD2  EFED  F01D         	goto	u3661
  8213  003BD6  EFEF  F01D         	goto	u3660
  8214  003BDA                     u3661:
  8215  003BDA  EF2B  F01E         	goto	l4391
  8216  003BDE                     u3660:
  8217  003BDE                     
  8218                           ; BSR set to: 0
  8219  003BDE  0EFF               	movlw	255
  8220  003BE0  1584               	andwf	sqrtf@ix& (0+255),w,b
  8221  003BE2  6E4A               	movwf	??_sqrtf^0,c
  8222  003BE4  0EFF               	movlw	255
  8223  003BE6  1585               	andwf	(sqrtf@ix+1)& (0+255),w,b
  8224  003BE8  6E4B               	movwf	(??_sqrtf+1)^0,c
  8225  003BEA  0EFF               	movlw	255
  8226  003BEC  1586               	andwf	(sqrtf@ix+2)& (0+255),w,b
  8227  003BEE  6E4C               	movwf	(??_sqrtf+2)^0,c
  8228  003BF0  0E7F               	movlw	127
  8229  003BF2  1587               	andwf	(sqrtf@ix+3)& (0+255),w,b
  8230  003BF4  6E4D               	movwf	(??_sqrtf+3)^0,c
  8231  003BF6  504A               	movf	??_sqrtf^0,w,c
  8232  003BF8  104B               	iorwf	(??_sqrtf+1)^0,w,c
  8233  003BFA  104C               	iorwf	(??_sqrtf+2)^0,w,c
  8234  003BFC  104D               	iorwf	(??_sqrtf+3)^0,w,c
  8235  003BFE  A4D8               	btfss	status,2,c
  8236  003C00  EF04  F01E         	goto	u3671
  8237  003C04  EF06  F01E         	goto	u3670
  8238  003C08                     u3671:
  8239  003C08  EF10  F01E         	goto	l4383
  8240  003C0C                     u3670:
  8241  003C0C                     
  8242                           ; BSR set to: 0
  8243  003C0C  C046  F046         	movff	sqrtf@x,?_sqrtf
  8244  003C10  C047  F047         	movff	sqrtf@x+1,?_sqrtf+1
  8245  003C14  C048  F048         	movff	sqrtf@x+2,?_sqrtf+2
  8246  003C18  C049  F049         	movff	sqrtf@x+3,?_sqrtf+3
  8247  003C1C  EFE6  F01F         	goto	l1645
  8248  003C20                     l4383:
  8249                           
  8250                           ; BSR set to: 0
  8251  003C20  BF87               	btfsc	(sqrtf@ix+3)& (0+255),7,b
  8252  003C22  EF17  F01E         	goto	u3680
  8253  003C26  EF15  F01E         	goto	u3681
  8254  003C2A                     u3681:
  8255  003C2A  EF2B  F01E         	goto	l4391
  8256  003C2E                     u3680:
  8257  003C2E                     
  8258                           ; BSR set to: 0
  8259  003C2E  0E00               	movlw	0
  8260  003C30  6FB4               	movwf	(_errno+1)& (0+255),b
  8261  003C32  0E21               	movlw	33
  8262  003C34  6FB3               	movwf	_errno& (0+255),b
  8263  003C36                     
  8264                           ; BSR set to: 0
  8265  003C36  0EDA               	movlw	low (STR_7+8)
  8266  003C38  6E09               	movwf	nanf@s^0,c
  8267  003C3A  0E10               	movlw	high (STR_7+8)
  8268  003C3C  6E0A               	movwf	(nanf@s+1)^0,c
  8269  003C3E  EC60  F032         	call	_nanf	;wreg free
  8270  003C42  C009  F046         	movff	?_nanf,?_sqrtf
  8271  003C46  C00A  F047         	movff	?_nanf+1,?_sqrtf+1
  8272  003C4A  C00B  F048         	movff	?_nanf+2,?_sqrtf+2
  8273  003C4E  C00C  F049         	movff	?_nanf+3,?_sqrtf+3
  8274  003C52  EFE6  F01F         	goto	l1645
  8275  003C56                     l4391:
  8276                           
  8277                           ; BSR set to: 0
  8278  003C56  0E17               	movlw	23
  8279  003C58  6E4A               	movwf	??_sqrtf^0,c
  8280  003C5A  C084  F04B         	movff	sqrtf@ix,??_sqrtf+1
  8281  003C5E  C085  F04C         	movff	sqrtf@ix+1,??_sqrtf+2
  8282  003C62  C086  F04D         	movff	sqrtf@ix+2,??_sqrtf+3
  8283  003C66  C087  F04E         	movff	sqrtf@ix+3,??_sqrtf+4
  8284  003C6A                     u3695:
  8285  003C6A  664A               	tstfsz	??_sqrtf^0,c
  8286  003C6C  EF3A  F01E         	goto	u3696
  8287  003C70  EF42  F01E         	goto	u3697
  8288  003C74                     u3696:
  8289  003C74  344E               	rlcf	(??_sqrtf+4)^0,w,c
  8290  003C76  324E               	rrcf	(??_sqrtf+4)^0,f,c
  8291  003C78  324D               	rrcf	(??_sqrtf+3)^0,f,c
  8292  003C7A  324C               	rrcf	(??_sqrtf+2)^0,f,c
  8293  003C7C  324B               	rrcf	(??_sqrtf+1)^0,f,c
  8294  003C7E  2E4A               	decfsz	??_sqrtf^0,f,c
  8295  003C80  EF35  F01E         	goto	u3695
  8296  003C84                     u3697:
  8297  003C84  C04B  F07C         	movff	??_sqrtf+1,sqrtf@m
  8298  003C88  C04C  F07D         	movff	??_sqrtf+2,sqrtf@m+1
  8299  003C8C  C04D  F07E         	movff	??_sqrtf+3,sqrtf@m+2
  8300  003C90  C04E  F07F         	movff	??_sqrtf+4,sqrtf@m+3
  8301  003C94  0100               	movlb	0	; () banked
  8302  003C96  517C               	movf	sqrtf@m& (0+255),w,b
  8303  003C98  117D               	iorwf	(sqrtf@m+1)& (0+255),w,b
  8304  003C9A  117E               	iorwf	(sqrtf@m+2)& (0+255),w,b
  8305  003C9C  117F               	iorwf	(sqrtf@m+3)& (0+255),w,b
  8306  003C9E  A4D8               	btfss	status,2,c
  8307  003CA0  EF54  F01E         	goto	u3701
  8308  003CA4  EF56  F01E         	goto	u3700
  8309  003CA8                     u3701:
  8310  003CA8  EF86  F01E         	goto	l1649
  8311  003CAC                     u3700:
  8312  003CAC                     
  8313                           ; BSR set to: 0
  8314  003CAC  0E00               	movlw	0
  8315  003CAE  6F68               	movwf	sqrtf@i& (0+255),b
  8316  003CB0  0E00               	movlw	0
  8317  003CB2  6F69               	movwf	(sqrtf@i+1)& (0+255),b
  8318  003CB4  0E00               	movlw	0
  8319  003CB6  6F6A               	movwf	(sqrtf@i+2)& (0+255),b
  8320  003CB8  0E00               	movlw	0
  8321  003CBA  6F6B               	movwf	(sqrtf@i+3)& (0+255),b
  8322  003CBC  EF6B  F01E         	goto	l4399
  8323  003CC0                     l4395:
  8324                           
  8325                           ; BSR set to: 0
  8326  003CC0  90D8               	bcf	status,0,c
  8327  003CC2  3784               	rlcf	sqrtf@ix& (0+255),f,b
  8328  003CC4  3785               	rlcf	(sqrtf@ix+1)& (0+255),f,b
  8329  003CC6  3786               	rlcf	(sqrtf@ix+2)& (0+255),f,b
  8330  003CC8  3787               	rlcf	(sqrtf@ix+3)& (0+255),f,b
  8331  003CCA                     
  8332                           ; BSR set to: 0
  8333  003CCA  0E01               	movlw	1
  8334  003CCC  2768               	addwf	sqrtf@i& (0+255),f,b
  8335  003CCE  0E00               	movlw	0
  8336  003CD0  2369               	addwfc	(sqrtf@i+1)& (0+255),f,b
  8337  003CD2  236A               	addwfc	(sqrtf@i+2)& (0+255),f,b
  8338  003CD4  236B               	addwfc	(sqrtf@i+3)& (0+255),f,b
  8339  003CD6                     l4399:
  8340                           
  8341                           ; BSR set to: 0
  8342  003CD6  AF86               	btfss	(sqrtf@ix+2)& (0+255),7,b
  8343  003CD8  EF70  F01E         	goto	u3711
  8344  003CDC  EF72  F01E         	goto	u3710
  8345  003CE0                     u3711:
  8346  003CE0  EF60  F01E         	goto	l4395
  8347  003CE4                     u3710:
  8348  003CE4                     
  8349                           ; BSR set to: 0
  8350  003CE4  0EFF               	movlw	255
  8351  003CE6  2568               	addwf	sqrtf@i& (0+255),w,b
  8352  003CE8  6E4A               	movwf	??_sqrtf^0,c
  8353  003CEA  0EFF               	movlw	255
  8354  003CEC  2169               	addwfc	(sqrtf@i+1)& (0+255),w,b
  8355  003CEE  6E4B               	movwf	(??_sqrtf+1)^0,c
  8356  003CF0  0EFF               	movlw	255
  8357  003CF2  216A               	addwfc	(sqrtf@i+2)& (0+255),w,b
  8358  003CF4  6E4C               	movwf	(??_sqrtf+2)^0,c
  8359  003CF6  0EFF               	movlw	255
  8360  003CF8  216B               	addwfc	(sqrtf@i+3)& (0+255),w,b
  8361  003CFA  6E4D               	movwf	(??_sqrtf+3)^0,c
  8362  003CFC  504A               	movf	??_sqrtf^0,w,c
  8363  003CFE  5F7C               	subwf	sqrtf@m& (0+255),f,b
  8364  003D00  504B               	movf	(??_sqrtf+1)^0,w,c
  8365  003D02  5B7D               	subwfb	(sqrtf@m+1)& (0+255),f,b
  8366  003D04  504C               	movf	(??_sqrtf+2)^0,w,c
  8367  003D06  5B7E               	subwfb	(sqrtf@m+2)& (0+255),f,b
  8368  003D08  504D               	movf	(??_sqrtf+3)^0,w,c
  8369  003D0A  5B7F               	subwfb	(sqrtf@m+3)& (0+255),f,b
  8370  003D0C                     l1649:
  8371                           
  8372                           ; BSR set to: 0
  8373  003D0C  0E81               	movlw	129
  8374  003D0E  277C               	addwf	sqrtf@m& (0+255),f,b
  8375  003D10  0EFF               	movlw	255
  8376  003D12  237D               	addwfc	(sqrtf@m+1)& (0+255),f,b
  8377  003D14  0EFF               	movlw	255
  8378  003D16  237E               	addwfc	(sqrtf@m+2)& (0+255),f,b
  8379  003D18  0EFF               	movlw	255
  8380  003D1A  237F               	addwfc	(sqrtf@m+3)& (0+255),f,b
  8381  003D1C  0EFF               	movlw	255
  8382  003D1E  1584               	andwf	sqrtf@ix& (0+255),w,b
  8383  003D20  6E4A               	movwf	??_sqrtf^0,c
  8384  003D22  0EFF               	movlw	255
  8385  003D24  1585               	andwf	(sqrtf@ix+1)& (0+255),w,b
  8386  003D26  6E4B               	movwf	(??_sqrtf+1)^0,c
  8387  003D28  0E7F               	movlw	127
  8388  003D2A  1586               	andwf	(sqrtf@ix+2)& (0+255),w,b
  8389  003D2C  6E4C               	movwf	(??_sqrtf+2)^0,c
  8390  003D2E  0E00               	movlw	0
  8391  003D30  1587               	andwf	(sqrtf@ix+3)& (0+255),w,b
  8392  003D32  6E4D               	movwf	(??_sqrtf+3)^0,c
  8393  003D34  0E00               	movlw	0
  8394  003D36  104A               	iorwf	??_sqrtf^0,w,c
  8395  003D38  6F84               	movwf	sqrtf@ix& (0+255),b
  8396  003D3A  0E00               	movlw	0
  8397  003D3C  104B               	iorwf	(??_sqrtf+1)^0,w,c
  8398  003D3E  6F85               	movwf	(sqrtf@ix+1)& (0+255),b
  8399  003D40  0E80               	movlw	128
  8400  003D42  104C               	iorwf	(??_sqrtf+2)^0,w,c
  8401  003D44  6F86               	movwf	(sqrtf@ix+2)& (0+255),b
  8402  003D46  0E00               	movlw	0
  8403  003D48  104D               	iorwf	(??_sqrtf+3)^0,w,c
  8404  003D4A  6F87               	movwf	(sqrtf@ix+3)& (0+255),b
  8405  003D4C                     
  8406                           ; BSR set to: 0
  8407  003D4C  A17C               	btfss	sqrtf@m& (0+255),0,b
  8408  003D4E  EFAB  F01E         	goto	u3721
  8409  003D52  EFAD  F01E         	goto	u3720
  8410  003D56                     u3721:
  8411  003D56  EFB5  F01E         	goto	l1653
  8412  003D5A                     u3720:
  8413  003D5A                     
  8414                           ; BSR set to: 0
  8415  003D5A  5184               	movf	sqrtf@ix& (0+255),w,b
  8416  003D5C  2784               	addwf	sqrtf@ix& (0+255),f,b
  8417  003D5E  5185               	movf	(sqrtf@ix+1)& (0+255),w,b
  8418  003D60  2385               	addwfc	(sqrtf@ix+1)& (0+255),f,b
  8419  003D62  5186               	movf	(sqrtf@ix+2)& (0+255),w,b
  8420  003D64  2386               	addwfc	(sqrtf@ix+2)& (0+255),f,b
  8421  003D66  5187               	movf	(sqrtf@ix+3)& (0+255),w,b
  8422  003D68  2387               	addwfc	(sqrtf@ix+3)& (0+255),f,b
  8423  003D6A                     l1653:
  8424                           
  8425                           ; BSR set to: 0
  8426  003D6A  357F               	rlcf	(sqrtf@m+3)& (0+255),w,b
  8427  003D6C  337F               	rrcf	(sqrtf@m+3)& (0+255),f,b
  8428  003D6E  337E               	rrcf	(sqrtf@m+2)& (0+255),f,b
  8429  003D70  337D               	rrcf	(sqrtf@m+1)& (0+255),f,b
  8430  003D72  337C               	rrcf	sqrtf@m& (0+255),f,b
  8431  003D74  5184               	movf	sqrtf@ix& (0+255),w,b
  8432  003D76  2784               	addwf	sqrtf@ix& (0+255),f,b
  8433  003D78  5185               	movf	(sqrtf@ix+1)& (0+255),w,b
  8434  003D7A  2385               	addwfc	(sqrtf@ix+1)& (0+255),f,b
  8435  003D7C  5186               	movf	(sqrtf@ix+2)& (0+255),w,b
  8436  003D7E  2386               	addwfc	(sqrtf@ix+2)& (0+255),f,b
  8437  003D80  5187               	movf	(sqrtf@ix+3)& (0+255),w,b
  8438  003D82  2387               	addwfc	(sqrtf@ix+3)& (0+255),f,b
  8439  003D84                     
  8440                           ; BSR set to: 0
  8441  003D84  0E00               	movlw	0
  8442  003D86  6F64               	movwf	sqrtf@s& (0+255),b
  8443  003D88  0E00               	movlw	0
  8444  003D8A  6F65               	movwf	(sqrtf@s+1)& (0+255),b
  8445  003D8C  0E00               	movlw	0
  8446  003D8E  6F66               	movwf	(sqrtf@s+2)& (0+255),b
  8447  003D90  0E00               	movlw	0
  8448  003D92  6F67               	movwf	(sqrtf@s+3)& (0+255),b
  8449  003D94  C064  F070         	movff	sqrtf@s,sqrtf@q
  8450  003D98  C065  F071         	movff	sqrtf@s+1,sqrtf@q+1
  8451  003D9C  C066  F072         	movff	sqrtf@s+2,sqrtf@q+2
  8452  003DA0  C067  F073         	movff	sqrtf@s+3,sqrtf@q+3
  8453  003DA4                     
  8454                           ; BSR set to: 0
  8455  003DA4  0E00               	movlw	0
  8456  003DA6  6F80               	movwf	sqrtf@r& (0+255),b
  8457  003DA8  0E00               	movlw	0
  8458  003DAA  6F81               	movwf	(sqrtf@r+1)& (0+255),b
  8459  003DAC  0E00               	movlw	0
  8460  003DAE  6F82               	movwf	(sqrtf@r+2)& (0+255),b
  8461  003DB0  0E01               	movlw	1
  8462  003DB2  6F83               	movwf	(sqrtf@r+3)& (0+255),b
  8463  003DB4  EF24  F01F         	goto	l4417
  8464  003DB8                     l4411:
  8465                           
  8466                           ; BSR set to: 0
  8467  003DB8  5180               	movf	sqrtf@r& (0+255),w,b
  8468  003DBA  2564               	addwf	sqrtf@s& (0+255),w,b
  8469  003DBC  6F74               	movwf	sqrtf@t& (0+255),b
  8470  003DBE  5181               	movf	(sqrtf@r+1)& (0+255),w,b
  8471  003DC0  2165               	addwfc	(sqrtf@s+1)& (0+255),w,b
  8472  003DC2  6F75               	movwf	(sqrtf@t+1)& (0+255),b
  8473  003DC4  5182               	movf	(sqrtf@r+2)& (0+255),w,b
  8474  003DC6  2166               	addwfc	(sqrtf@s+2)& (0+255),w,b
  8475  003DC8  6F76               	movwf	(sqrtf@t+2)& (0+255),b
  8476  003DCA  5183               	movf	(sqrtf@r+3)& (0+255),w,b
  8477  003DCC  2167               	addwfc	(sqrtf@s+3)& (0+255),w,b
  8478  003DCE  6F77               	movwf	(sqrtf@t+3)& (0+255),b
  8479  003DD0  5174               	movf	sqrtf@t& (0+255),w,b
  8480  003DD2  5D84               	subwf	sqrtf@ix& (0+255),w,b
  8481  003DD4  5175               	movf	(sqrtf@t+1)& (0+255),w,b
  8482  003DD6  5985               	subwfb	(sqrtf@ix+1)& (0+255),w,b
  8483  003DD8  5176               	movf	(sqrtf@t+2)& (0+255),w,b
  8484  003DDA  5986               	subwfb	(sqrtf@ix+2)& (0+255),w,b
  8485  003DDC  5187               	movf	(sqrtf@ix+3)& (0+255),w,b
  8486  003DDE  0A80               	xorlw	128
  8487  003DE0  6E4A               	movwf	??_sqrtf^0,c
  8488  003DE2  5177               	movf	(sqrtf@t+3)& (0+255),w,b
  8489  003DE4  0A80               	xorlw	128
  8490  003DE6  584A               	subwfb	??_sqrtf^0,w,c
  8491  003DE8  A0D8               	btfss	status,0,c
  8492  003DEA  EFF9  F01E         	goto	u3731
  8493  003DEE  EFFB  F01E         	goto	u3730
  8494  003DF2                     u3731:
  8495  003DF2  EF17  F01F         	goto	l1656
  8496  003DF6                     u3730:
  8497  003DF6                     
  8498                           ; BSR set to: 0
  8499  003DF6  5180               	movf	sqrtf@r& (0+255),w,b
  8500  003DF8  2574               	addwf	sqrtf@t& (0+255),w,b
  8501  003DFA  6F64               	movwf	sqrtf@s& (0+255),b
  8502  003DFC  5181               	movf	(sqrtf@r+1)& (0+255),w,b
  8503  003DFE  2175               	addwfc	(sqrtf@t+1)& (0+255),w,b
  8504  003E00  6F65               	movwf	(sqrtf@s+1)& (0+255),b
  8505  003E02  5182               	movf	(sqrtf@r+2)& (0+255),w,b
  8506  003E04  2176               	addwfc	(sqrtf@t+2)& (0+255),w,b
  8507  003E06  6F66               	movwf	(sqrtf@s+2)& (0+255),b
  8508  003E08  5183               	movf	(sqrtf@r+3)& (0+255),w,b
  8509  003E0A  2177               	addwfc	(sqrtf@t+3)& (0+255),w,b
  8510  003E0C  6F67               	movwf	(sqrtf@s+3)& (0+255),b
  8511  003E0E  5174               	movf	sqrtf@t& (0+255),w,b
  8512  003E10  5F84               	subwf	sqrtf@ix& (0+255),f,b
  8513  003E12  5175               	movf	(sqrtf@t+1)& (0+255),w,b
  8514  003E14  5B85               	subwfb	(sqrtf@ix+1)& (0+255),f,b
  8515  003E16  5176               	movf	(sqrtf@t+2)& (0+255),w,b
  8516  003E18  5B86               	subwfb	(sqrtf@ix+2)& (0+255),f,b
  8517  003E1A  5177               	movf	(sqrtf@t+3)& (0+255),w,b
  8518  003E1C  5B87               	subwfb	(sqrtf@ix+3)& (0+255),f,b
  8519  003E1E  5180               	movf	sqrtf@r& (0+255),w,b
  8520  003E20  2770               	addwf	sqrtf@q& (0+255),f,b
  8521  003E22  5181               	movf	(sqrtf@r+1)& (0+255),w,b
  8522  003E24  2371               	addwfc	(sqrtf@q+1)& (0+255),f,b
  8523  003E26  5182               	movf	(sqrtf@r+2)& (0+255),w,b
  8524  003E28  2372               	addwfc	(sqrtf@q+2)& (0+255),f,b
  8525  003E2A  5183               	movf	(sqrtf@r+3)& (0+255),w,b
  8526  003E2C  2373               	addwfc	(sqrtf@q+3)& (0+255),f,b
  8527  003E2E                     l1656:
  8528                           
  8529                           ; BSR set to: 0
  8530  003E2E  5184               	movf	sqrtf@ix& (0+255),w,b
  8531  003E30  2784               	addwf	sqrtf@ix& (0+255),f,b
  8532  003E32  5185               	movf	(sqrtf@ix+1)& (0+255),w,b
  8533  003E34  2385               	addwfc	(sqrtf@ix+1)& (0+255),f,b
  8534  003E36  5186               	movf	(sqrtf@ix+2)& (0+255),w,b
  8535  003E38  2386               	addwfc	(sqrtf@ix+2)& (0+255),f,b
  8536  003E3A  5187               	movf	(sqrtf@ix+3)& (0+255),w,b
  8537  003E3C  2387               	addwfc	(sqrtf@ix+3)& (0+255),f,b
  8538  003E3E                     
  8539                           ; BSR set to: 0
  8540  003E3E  90D8               	bcf	status,0,c
  8541  003E40  3383               	rrcf	(sqrtf@r+3)& (0+255),f,b
  8542  003E42  3382               	rrcf	(sqrtf@r+2)& (0+255),f,b
  8543  003E44  3381               	rrcf	(sqrtf@r+1)& (0+255),f,b
  8544  003E46  3380               	rrcf	sqrtf@r& (0+255),f,b
  8545  003E48                     l4417:
  8546                           
  8547                           ; BSR set to: 0
  8548  003E48  5180               	movf	sqrtf@r& (0+255),w,b
  8549  003E4A  1181               	iorwf	(sqrtf@r+1)& (0+255),w,b
  8550  003E4C  1182               	iorwf	(sqrtf@r+2)& (0+255),w,b
  8551  003E4E  1183               	iorwf	(sqrtf@r+3)& (0+255),w,b
  8552  003E50  A4D8               	btfss	status,2,c
  8553  003E52  EF2D  F01F         	goto	u3741
  8554  003E56  EF2F  F01F         	goto	u3740
  8555  003E5A                     u3741:
  8556  003E5A  EFDC  F01E         	goto	l4411
  8557  003E5E                     u3740:
  8558  003E5E                     
  8559                           ; BSR set to: 0
  8560  003E5E  5184               	movf	sqrtf@ix& (0+255),w,b
  8561  003E60  1185               	iorwf	(sqrtf@ix+1)& (0+255),w,b
  8562  003E62  1186               	iorwf	(sqrtf@ix+2)& (0+255),w,b
  8563  003E64  1187               	iorwf	(sqrtf@ix+3)& (0+255),w,b
  8564  003E66  B4D8               	btfsc	status,2,c
  8565  003E68  EF38  F01F         	goto	u3751
  8566  003E6C  EF3A  F01F         	goto	u3750
  8567  003E70                     u3751:
  8568  003E70  EF9B  F01F         	goto	l1658
  8569  003E74                     u3750:
  8570  003E74                     
  8571                           ; BSR set to: 0
  8572  003E74  0E00               	movlw	0
  8573  003E76  6F78               	movwf	sqrtf@z& (0+255),b
  8574  003E78  0E00               	movlw	0
  8575  003E7A  6F79               	movwf	(sqrtf@z+1)& (0+255),b
  8576  003E7C  0E80               	movlw	128
  8577  003E7E  6F7A               	movwf	(sqrtf@z+2)& (0+255),b
  8578  003E80  0E3F               	movlw	63
  8579  003E82  6F7B               	movwf	(sqrtf@z+3)& (0+255),b
  8580  003E84                     
  8581                           ; BSR set to: 0
  8582  003E84  C078  F03A         	movff	sqrtf@z,___flge@ff1
  8583  003E88  C079  F03B         	movff	sqrtf@z+1,___flge@ff1+1
  8584  003E8C  C07A  F03C         	movff	sqrtf@z+2,___flge@ff1+2
  8585  003E90  C07B  F03D         	movff	sqrtf@z+3,___flge@ff1+3
  8586  003E94  0E00               	movlw	0
  8587  003E96  6E3E               	movwf	___flge@ff2^0,c
  8588  003E98  0E00               	movlw	0
  8589  003E9A  6E3F               	movwf	(___flge@ff2+1)^0,c
  8590  003E9C  0E80               	movlw	128
  8591  003E9E  6E40               	movwf	(___flge@ff2+2)^0,c
  8592  003EA0  0E3F               	movlw	63
  8593  003EA2  6E41               	movwf	(___flge@ff2+3)^0,c
  8594  003EA4  EC79  F02A         	call	___flge	;wreg free
  8595  003EA8  A0D8               	btfss	status,0,c
  8596  003EAA  EF59  F01F         	goto	u3761
  8597  003EAE  EF5B  F01F         	goto	u3760
  8598  003EB2                     u3761:
  8599  003EB2  EF9B  F01F         	goto	l1658
  8600  003EB6                     u3760:
  8601  003EB6  0E00               	movlw	0
  8602  003EB8  0100               	movlb	0	; () banked
  8603  003EBA  6F78               	movwf	sqrtf@z& (0+255),b
  8604  003EBC  0E00               	movlw	0
  8605  003EBE  6F79               	movwf	(sqrtf@z+1)& (0+255),b
  8606  003EC0  0E80               	movlw	128
  8607  003EC2  6F7A               	movwf	(sqrtf@z+2)& (0+255),b
  8608  003EC4  0E3F               	movlw	63
  8609  003EC6  6F7B               	movwf	(sqrtf@z+3)& (0+255),b
  8610  003EC8                     
  8611                           ; BSR set to: 0
  8612  003EC8  0E00               	movlw	0
  8613  003ECA  6E3A               	movwf	___flge@ff1^0,c
  8614  003ECC  0E00               	movlw	0
  8615  003ECE  6E3B               	movwf	(___flge@ff1+1)^0,c
  8616  003ED0  0E80               	movlw	128
  8617  003ED2  6E3C               	movwf	(___flge@ff1+2)^0,c
  8618  003ED4  0E3F               	movlw	63
  8619  003ED6  6E3D               	movwf	(___flge@ff1+3)^0,c
  8620  003ED8  C078  F03E         	movff	sqrtf@z,___flge@ff2
  8621  003EDC  C079  F03F         	movff	sqrtf@z+1,___flge@ff2+1
  8622  003EE0  C07A  F040         	movff	sqrtf@z+2,___flge@ff2+2
  8623  003EE4  C07B  F041         	movff	sqrtf@z+3,___flge@ff2+3
  8624  003EE8  EC79  F02A         	call	___flge	;wreg free
  8625  003EEC  B0D8               	btfsc	status,0,c
  8626  003EEE  EF7B  F01F         	goto	u3771
  8627  003EF2  EF7D  F01F         	goto	u3770
  8628  003EF6                     u3771:
  8629  003EF6  EF86  F01F         	goto	l4431
  8630  003EFA                     u3770:
  8631  003EFA  0E02               	movlw	2
  8632  003EFC  0100               	movlb	0	; () banked
  8633  003EFE  2770               	addwf	sqrtf@q& (0+255),f,b
  8634  003F00  0E00               	movlw	0
  8635  003F02  2371               	addwfc	(sqrtf@q+1)& (0+255),f,b
  8636  003F04  2372               	addwfc	(sqrtf@q+2)& (0+255),f,b
  8637  003F06  2373               	addwfc	(sqrtf@q+3)& (0+255),f,b
  8638  003F08  EF9B  F01F         	goto	l1658
  8639  003F0C                     l4431:
  8640  003F0C  0E01               	movlw	1
  8641  003F0E  0100               	movlb	0	; () banked
  8642  003F10  1570               	andwf	sqrtf@q& (0+255),w,b
  8643  003F12  6E4A               	movwf	??_sqrtf^0,c
  8644  003F14  0E00               	movlw	0
  8645  003F16  1571               	andwf	(sqrtf@q+1)& (0+255),w,b
  8646  003F18  6E4B               	movwf	(??_sqrtf+1)^0,c
  8647  003F1A  0E00               	movlw	0
  8648  003F1C  1572               	andwf	(sqrtf@q+2)& (0+255),w,b
  8649  003F1E  6E4C               	movwf	(??_sqrtf+2)^0,c
  8650  003F20  0E00               	movlw	0
  8651  003F22  1573               	andwf	(sqrtf@q+3)& (0+255),w,b
  8652  003F24  6E4D               	movwf	(??_sqrtf+3)^0,c
  8653  003F26  504A               	movf	??_sqrtf^0,w,c
  8654  003F28  2770               	addwf	sqrtf@q& (0+255),f,b
  8655  003F2A  504B               	movf	(??_sqrtf+1)^0,w,c
  8656  003F2C  2371               	addwfc	(sqrtf@q+1)& (0+255),f,b
  8657  003F2E  504C               	movf	(??_sqrtf+2)^0,w,c
  8658  003F30  2372               	addwfc	(sqrtf@q+2)& (0+255),f,b
  8659  003F32  504D               	movf	(??_sqrtf+3)^0,w,c
  8660  003F34  2373               	addwfc	(sqrtf@q+3)& (0+255),f,b
  8661  003F36                     l1658:
  8662  003F36  C070  F04A         	movff	sqrtf@q,??_sqrtf
  8663  003F3A  C071  F04B         	movff	sqrtf@q+1,??_sqrtf+1
  8664  003F3E  C072  F04C         	movff	sqrtf@q+2,??_sqrtf+2
  8665  003F42  C073  F04D         	movff	sqrtf@q+3,??_sqrtf+3
  8666  003F46  344D               	rlcf	(??_sqrtf+3)^0,w,c
  8667  003F48  324D               	rrcf	(??_sqrtf+3)^0,f,c
  8668  003F4A  324C               	rrcf	(??_sqrtf+2)^0,f,c
  8669  003F4C  324B               	rrcf	(??_sqrtf+1)^0,f,c
  8670  003F4E  324A               	rrcf	??_sqrtf^0,f,c
  8671  003F50  0E00               	movlw	0
  8672  003F52  244A               	addwf	??_sqrtf^0,w,c
  8673  003F54  0100               	movlb	0	; () banked
  8674  003F56  6F84               	movwf	sqrtf@ix& (0+255),b
  8675  003F58  0E00               	movlw	0
  8676  003F5A  204B               	addwfc	(??_sqrtf+1)^0,w,c
  8677  003F5C  6F85               	movwf	(sqrtf@ix+1)& (0+255),b
  8678  003F5E  0E00               	movlw	0
  8679  003F60  204C               	addwfc	(??_sqrtf+2)^0,w,c
  8680  003F62  6F86               	movwf	(sqrtf@ix+2)& (0+255),b
  8681  003F64  0E3F               	movlw	63
  8682  003F66  204D               	addwfc	(??_sqrtf+3)^0,w,c
  8683  003F68  6F87               	movwf	(sqrtf@ix+3)& (0+255),b
  8684  003F6A  C07C  F04A         	movff	sqrtf@m,??_sqrtf
  8685  003F6E  C07D  F04B         	movff	sqrtf@m+1,??_sqrtf+1
  8686  003F72  C07E  F04C         	movff	sqrtf@m+2,??_sqrtf+2
  8687  003F76  C07F  F04D         	movff	sqrtf@m+3,??_sqrtf+3
  8688  003F7A  0E17               	movlw	23
  8689  003F7C                     u3785:
  8690  003F7C  90D8               	bcf	status,0,c
  8691  003F7E  364A               	rlcf	??_sqrtf^0,f,c
  8692  003F80  364B               	rlcf	(??_sqrtf+1)^0,f,c
  8693  003F82  364C               	rlcf	(??_sqrtf+2)^0,f,c
  8694  003F84  364D               	rlcf	(??_sqrtf+3)^0,f,c
  8695  003F86  2EE8               	decfsz	wreg,f,c
  8696  003F88  EFBE  F01F         	goto	u3785
  8697  003F8C  504A               	movf	??_sqrtf^0,w,c
  8698  003F8E  2784               	addwf	sqrtf@ix& (0+255),f,b
  8699  003F90  504B               	movf	(??_sqrtf+1)^0,w,c
  8700  003F92  2385               	addwfc	(sqrtf@ix+1)& (0+255),f,b
  8701  003F94  504C               	movf	(??_sqrtf+2)^0,w,c
  8702  003F96  2386               	addwfc	(sqrtf@ix+2)& (0+255),f,b
  8703  003F98  504D               	movf	(??_sqrtf+3)^0,w,c
  8704  003F9A  2387               	addwfc	(sqrtf@ix+3)& (0+255),f,b
  8705  003F9C                     
  8706                           ; BSR set to: 0
  8707  003F9C  C084  F06C         	movff	sqrtf@ix,sqrtf@__xc8_float_word
  8708  003FA0  C085  F06D         	movff	sqrtf@ix+1,sqrtf@__xc8_float_word+1
  8709  003FA4  C086  F06E         	movff	sqrtf@ix+2,sqrtf@__xc8_float_word+2
  8710  003FA8  C087  F06F         	movff	sqrtf@ix+3,sqrtf@__xc8_float_word+3
  8711  003FAC                     
  8712                           ; BSR set to: 0
  8713  003FAC  C06C  F078         	movff	sqrtf@__xc8_float_word,sqrtf@z
  8714  003FB0  C06D  F079         	movff	sqrtf@__xc8_float_word+1,sqrtf@z+1
  8715  003FB4  C06E  F07A         	movff	sqrtf@__xc8_float_word+2,sqrtf@z+2
  8716  003FB8  C06F  F07B         	movff	sqrtf@__xc8_float_word+3,sqrtf@z+3
  8717  003FBC                     
  8718                           ; BSR set to: 0
  8719  003FBC  C078  F046         	movff	sqrtf@z,?_sqrtf
  8720  003FC0  C079  F047         	movff	sqrtf@z+1,?_sqrtf+1
  8721  003FC4  C07A  F048         	movff	sqrtf@z+2,?_sqrtf+2
  8722  003FC8  C07B  F049         	movff	sqrtf@z+3,?_sqrtf+3
  8723  003FCC                     l1645:
  8724  003FCC  0012               	return		;funcret
  8725  003FCE                     __end_of_sqrtf:
  8726                           	opt callstack 0
  8727                           
  8728 ;; *************** function _nanf *****************
  8729 ;; Defined at:
  8730 ;;		line 4 in file "C:\Program Files (x86)\Microchip\xc8\v2.10\pic\sources\c99\common\nanf.c"
  8731 ;; Parameters:    Size  Location     Type
  8732 ;;  s               2    8[COMRAM] PTR const unsigned char 
  8733 ;;		 -> STR_11(1), 
  8734 ;; Auto vars:     Size  Location     Type
  8735 ;;  u               4   12[COMRAM] struct .
  8736 ;; Return value:  Size  Location     Type
  8737 ;;                  4    8[COMRAM] float 
  8738 ;; Registers used:
  8739 ;;		wreg, status,2
  8740 ;; Tracked objects:
  8741 ;;		On entry : 0/0
  8742 ;;		On exit  : 0/0
  8743 ;;		Unchanged: 0/0
  8744 ;; Data sizes:     COMRAM   BANK0   BANK1   BANK2   BANK3   BANK4   BANK5   BANK6   BANK7   BANK8   BANK9  BANK10  BANK1
      +1  BANK12  BANK13  BANK14  BANK15
  8745 ;;      Params:         4       0       0       0       0       0       0       0       0       0       0       0       
      +0       0       0       0       0
  8746 ;;      Locals:         4       0       0       0       0       0       0       0       0       0       0       0       
      +0       0       0       0       0
  8747 ;;      Temps:          0       0       0       0       0       0       0       0       0       0       0       0       
      +0       0       0       0       0
  8748 ;;      Totals:         8       0       0       0       0       0       0       0       0       0       0       0       
      +0       0       0       0       0
  8749 ;;Total ram usage:        8 bytes
  8750 ;; Hardware stack levels used:    1
  8751 ;; Hardware stack levels required when called:    3
  8752 ;; This function calls:
  8753 ;;		Nothing
  8754 ;; This function is called by:
  8755 ;;		_sqrtf
  8756 ;; This function uses a non-reentrant model
  8757 ;;
  8758                           
  8759                           	psect	text24
  8760  0064C0                     __ptext24:
  8761                           	opt callstack 0
  8762  0064C0                     _nanf:
  8763                           	opt callstack 22
  8764  0064C0  0EFF               	movlw	255
  8765  0064C2  6E0D               	movwf	nanf@u^0,c
  8766  0064C4  0EFF               	movlw	255
  8767  0064C6  6E0E               	movwf	(nanf@u+1)^0,c
  8768  0064C8  0EFF               	movlw	255
  8769  0064CA  6E0F               	movwf	(nanf@u+2)^0,c
  8770  0064CC  0E7F               	movlw	127
  8771  0064CE  6E10               	movwf	(nanf@u+3)^0,c
  8772  0064D0  C00D  F009         	movff	nanf@u,?_nanf
  8773  0064D4  C00E  F00A         	movff	nanf@u+1,?_nanf+1
  8774  0064D8  C00F  F00B         	movff	nanf@u+2,?_nanf+2
  8775  0064DC  C010  F00C         	movff	nanf@u+3,?_nanf+3
  8776  0064E0  0012               	return		;funcret
  8777  0064E2                     __end_of_nanf:
  8778                           	opt callstack 0
  8779                           
  8780 ;; *************** function ___flge *****************
  8781 ;; Defined at:
  8782 ;;		line 4 in file "C:\Program Files (x86)\Microchip\xc8\v2.10\pic\sources\c99\common\flge.c"
  8783 ;; Parameters:    Size  Location     Type
  8784 ;;  ff1             4   57[COMRAM] float 
  8785 ;;  ff2             4   61[COMRAM] float 
  8786 ;; Auto vars:     Size  Location     Type
  8787 ;;		None
  8788 ;; Return value:  Size  Location     Type
  8789 ;;		None               void
  8790 ;; Registers used:
  8791 ;;		wreg, status,2, status,0
  8792 ;; Tracked objects:
  8793 ;;		On entry : 0/0
  8794 ;;		On exit  : 0/0
  8795 ;;		Unchanged: 0/0
  8796 ;; Data sizes:     COMRAM   BANK0   BANK1   BANK2   BANK3   BANK4   BANK5   BANK6   BANK7   BANK8   BANK9  BANK10  BANK1
      +1  BANK12  BANK13  BANK14  BANK15
  8797 ;;      Params:         8       0       0       0       0       0       0       0       0       0       0       0       
      +0       0       0       0       0
  8798 ;;      Locals:         0       0       0       0       0       0       0       0       0       0       0       0       
      +0       0       0       0       0
  8799 ;;      Temps:          4       0       0       0       0       0       0       0       0       0       0       0       
      +0       0       0       0       0
  8800 ;;      Totals:        12       0       0       0       0       0       0       0       0       0       0       0       
      +0       0       0       0       0
  8801 ;;Total ram usage:       12 bytes
  8802 ;; Hardware stack levels used:    1
  8803 ;; Hardware stack levels required when called:    3
  8804 ;; This function calls:
  8805 ;;		Nothing
  8806 ;; This function is called by:
  8807 ;;		_powf
  8808 ;;		_sqrtf
  8809 ;; This function uses a non-reentrant model
  8810 ;;
  8811                           
  8812                           	psect	text25
  8813  0054F2                     __ptext25:
  8814                           	opt callstack 0
  8815  0054F2                     ___flge:
  8816                           	opt callstack 22
  8817  0054F2  0E00               	movlw	0
  8818  0054F4  143A               	andwf	___flge@ff1^0,w,c
  8819  0054F6  6E42               	movwf	??___flge^0,c
  8820  0054F8  0E00               	movlw	0
  8821  0054FA  143B               	andwf	(___flge@ff1+1)^0,w,c
  8822  0054FC  6E43               	movwf	(??___flge+1)^0,c
  8823  0054FE  0E80               	movlw	128
  8824  005500  143C               	andwf	(___flge@ff1+2)^0,w,c
  8825  005502  6E44               	movwf	(??___flge+2)^0,c
  8826  005504  0E7F               	movlw	127
  8827  005506  143D               	andwf	(___flge@ff1+3)^0,w,c
  8828  005508  6E45               	movwf	(??___flge+3)^0,c
  8829  00550A  5042               	movf	??___flge^0,w,c
  8830  00550C  1043               	iorwf	(??___flge+1)^0,w,c
  8831  00550E  1044               	iorwf	(??___flge+2)^0,w,c
  8832  005510  1045               	iorwf	(??___flge+3)^0,w,c
  8833  005512  A4D8               	btfss	status,2,c
  8834  005514  EF8E  F02A         	goto	u3261
  8835  005518  EF90  F02A         	goto	u3260
  8836  00551C                     u3261:
  8837  00551C  EF98  F02A         	goto	l4111
  8838  005520                     u3260:
  8839  005520  0E00               	movlw	0
  8840  005522  6E3A               	movwf	___flge@ff1^0,c
  8841  005524  0E00               	movlw	0
  8842  005526  6E3B               	movwf	(___flge@ff1+1)^0,c
  8843  005528  0E00               	movlw	0
  8844  00552A  6E3C               	movwf	(___flge@ff1+2)^0,c
  8845  00552C  0E00               	movlw	0
  8846  00552E  6E3D               	movwf	(___flge@ff1+3)^0,c
  8847  005530                     l4111:
  8848  005530  0E00               	movlw	0
  8849  005532  143E               	andwf	___flge@ff2^0,w,c
  8850  005534  6E42               	movwf	??___flge^0,c
  8851  005536  0E00               	movlw	0
  8852  005538  143F               	andwf	(___flge@ff2+1)^0,w,c
  8853  00553A  6E43               	movwf	(??___flge+1)^0,c
  8854  00553C  0E80               	movlw	128
  8855  00553E  1440               	andwf	(___flge@ff2+2)^0,w,c
  8856  005540  6E44               	movwf	(??___flge+2)^0,c
  8857  005542  0E7F               	movlw	127
  8858  005544  1441               	andwf	(___flge@ff2+3)^0,w,c
  8859  005546  6E45               	movwf	(??___flge+3)^0,c
  8860  005548  5042               	movf	??___flge^0,w,c
  8861  00554A  1043               	iorwf	(??___flge+1)^0,w,c
  8862  00554C  1044               	iorwf	(??___flge+2)^0,w,c
  8863  00554E  1045               	iorwf	(??___flge+3)^0,w,c
  8864  005550  A4D8               	btfss	status,2,c
  8865  005552  EFAD  F02A         	goto	u3271
  8866  005556  EFAF  F02A         	goto	u3270
  8867  00555A                     u3271:
  8868  00555A  EFB7  F02A         	goto	l4115
  8869  00555E                     u3270:
  8870  00555E  0E00               	movlw	0
  8871  005560  6E3E               	movwf	___flge@ff2^0,c
  8872  005562  0E00               	movlw	0
  8873  005564  6E3F               	movwf	(___flge@ff2+1)^0,c
  8874  005566  0E00               	movlw	0
  8875  005568  6E40               	movwf	(___flge@ff2+2)^0,c
  8876  00556A  0E00               	movlw	0
  8877  00556C  6E41               	movwf	(___flge@ff2+3)^0,c
  8878  00556E                     l4115:
  8879  00556E  AE3D               	btfss	(___flge@ff1+3)^0,7,c
  8880  005570  EFBC  F02A         	goto	u3281
  8881  005574  EFBE  F02A         	goto	u3280
  8882  005578                     u3281:
  8883  005578  EFC7  F02A         	goto	l4119
  8884  00557C                     u3280:
  8885  00557C  6C3A               	negf	___flge@ff1^0,c
  8886  00557E  1E3B               	comf	(___flge@ff1+1)^0,f,c
  8887  005580  B0D8               	btfsc	status,0,c
  8888  005582  2A3B               	incf	(___flge@ff1+1)^0,f,c
  8889  005584  1E3C               	comf	(___flge@ff1+2)^0,f,c
  8890  005586  B0D8               	btfsc	status,0,c
  8891  005588  2A3C               	incf	(___flge@ff1+2)^0,f,c
  8892  00558A  0E80               	movlw	128
  8893  00558C  563D               	subfwb	(___flge@ff1+3)^0,f,c
  8894  00558E                     l4119:
  8895  00558E  AE41               	btfss	(___flge@ff2+3)^0,7,c
  8896  005590  EFCC  F02A         	goto	u3291
  8897  005594  EFCE  F02A         	goto	u3290
  8898  005598                     u3291:
  8899  005598  EFD7  F02A         	goto	l1036
  8900  00559C                     u3290:
  8901  00559C  6C3E               	negf	___flge@ff2^0,c
  8902  00559E  1E3F               	comf	(___flge@ff2+1)^0,f,c
  8903  0055A0  B0D8               	btfsc	status,0,c
  8904  0055A2  2A3F               	incf	(___flge@ff2+1)^0,f,c
  8905  0055A4  1E40               	comf	(___flge@ff2+2)^0,f,c
  8906  0055A6  B0D8               	btfsc	status,0,c
  8907  0055A8  2A40               	incf	(___flge@ff2+2)^0,f,c
  8908  0055AA  0E80               	movlw	128
  8909  0055AC  5641               	subfwb	(___flge@ff2+3)^0,f,c
  8910  0055AE                     l1036:
  8911  0055AE  0E00               	movlw	0
  8912  0055B0  1A3A               	xorwf	___flge@ff1^0,f,c
  8913  0055B2  0E00               	movlw	0
  8914  0055B4  1A3B               	xorwf	(___flge@ff1+1)^0,f,c
  8915  0055B6  0E00               	movlw	0
  8916  0055B8  1A3C               	xorwf	(___flge@ff1+2)^0,f,c
  8917  0055BA  0E80               	movlw	128
  8918  0055BC  1A3D               	xorwf	(___flge@ff1+3)^0,f,c
  8919  0055BE  0E00               	movlw	0
  8920  0055C0  1A3E               	xorwf	___flge@ff2^0,f,c
  8921  0055C2  0E00               	movlw	0
  8922  0055C4  1A3F               	xorwf	(___flge@ff2+1)^0,f,c
  8923  0055C6  0E00               	movlw	0
  8924  0055C8  1A40               	xorwf	(___flge@ff2+2)^0,f,c
  8925  0055CA  0E80               	movlw	128
  8926  0055CC  1A41               	xorwf	(___flge@ff2+3)^0,f,c
  8927  0055CE  503E               	movf	___flge@ff2^0,w,c
  8928  0055D0  5C3A               	subwf	___flge@ff1^0,w,c
  8929  0055D2  503F               	movf	(___flge@ff2+1)^0,w,c
  8930  0055D4  583B               	subwfb	(___flge@ff1+1)^0,w,c
  8931  0055D6  5040               	movf	(___flge@ff2+2)^0,w,c
  8932  0055D8  583C               	subwfb	(___flge@ff1+2)^0,w,c
  8933  0055DA  5041               	movf	(___flge@ff2+3)^0,w,c
  8934  0055DC  583D               	subwfb	(___flge@ff1+3)^0,w,c
  8935  0055DE  B0D8               	btfsc	status,0,c
  8936  0055E0  EFF4  F02A         	goto	u3301
  8937  0055E4  EFF6  F02A         	goto	u3300
  8938  0055E8                     u3301:
  8939  0055E8  EFF9  F02A         	goto	l4125
  8940  0055EC                     u3300:
  8941  0055EC  90D8               	bcf	status,0,c
  8942  0055EE  EFFA  F02A         	goto	l1041
  8943  0055F2                     l4125:
  8944  0055F2  80D8               	bsf	status,0,c
  8945  0055F4                     l1041:
  8946  0055F4  0012               	return		;funcret
  8947  0055F6                     __end_of___flge:
  8948                           	opt callstack 0
  8949                           
  8950 ;; *************** function _scalbnf *****************
  8951 ;; Defined at:
  8952 ;;		line 4 in file "C:\Program Files (x86)\Microchip\xc8\v2.10\pic\sources\c99\common\scalbnf.c"
  8953 ;; Parameters:    Size  Location     Type
  8954 ;;  x               4   49[COMRAM] float 
  8955 ;;  n               2   53[COMRAM] int 
  8956 ;; Auto vars:     Size  Location     Type
  8957 ;;  y               4   63[COMRAM] float 
  8958 ;;  u               4   59[COMRAM] struct .
  8959 ;; Return value:  Size  Location     Type
  8960 ;;                  4   49[COMRAM] float 
  8961 ;; Registers used:
  8962 ;;		wreg, status,2, status,0, prodl, prodh, cstack
  8963 ;; Tracked objects:
  8964 ;;		On entry : 0/0
  8965 ;;		On exit  : 0/0
  8966 ;;		Unchanged: 0/0
  8967 ;; Data sizes:     COMRAM   BANK0   BANK1   BANK2   BANK3   BANK4   BANK5   BANK6   BANK7   BANK8   BANK9  BANK10  BANK1
      +1  BANK12  BANK13  BANK14  BANK15
  8968 ;;      Params:         6       0       0       0       0       0       0       0       0       0       0       0       
      +0       0       0       0       0
  8969 ;;      Locals:         8       0       0       0       0       0       0       0       0       0       0       0       
      +0       0       0       0       0
  8970 ;;      Temps:          4       0       0       0       0       0       0       0       0       0       0       0       
      +0       0       0       0       0
  8971 ;;      Totals:        18       0       0       0       0       0       0       0       0       0       0       0       
      +0       0       0       0       0
  8972 ;;Total ram usage:       18 bytes
  8973 ;; Hardware stack levels used:    1
  8974 ;; Hardware stack levels required when called:    4
  8975 ;; This function calls:
  8976 ;;		___flmul
  8977 ;; This function is called by:
  8978 ;;		_powf
  8979 ;; This function uses a non-reentrant model
  8980 ;;
  8981                           
  8982                           	psect	text26
  8983  004ED8                     __ptext26:
  8984                           	opt callstack 0
  8985  004ED8                     _scalbnf:
  8986                           	opt callstack 22
  8987  004ED8  C032  F040         	movff	scalbnf@x,scalbnf@y
  8988  004EDC  C033  F041         	movff	scalbnf@x+1,scalbnf@y+1
  8989  004EE0  C034  F042         	movff	scalbnf@x+2,scalbnf@y+2
  8990  004EE4  C035  F043         	movff	scalbnf@x+3,scalbnf@y+3
  8991  004EE8  BE37               	btfsc	(scalbnf@n+1)^0,7,c
  8992  004EEA  EF80  F027         	goto	u3791
  8993  004EEE  5037               	movf	(scalbnf@n+1)^0,w,c
  8994  004EF0  E109               	bnz	u3790
  8995  004EF2  0E80               	movlw	128
  8996  004EF4  5C36               	subwf	scalbnf@n^0,w,c
  8997  004EF6  A0D8               	btfss	status,0,c
  8998  004EF8  EF80  F027         	goto	u3791
  8999  004EFC  EF82  F027         	goto	u3790
  9000  004F00                     u3791:
  9001  004F00  EFE0  F027         	goto	l4467
  9002  004F04                     u3790:
  9003  004F04  C040  F019         	movff	scalbnf@y,___flmul@b
  9004  004F08  C041  F01A         	movff	scalbnf@y+1,___flmul@b+1
  9005  004F0C  C042  F01B         	movff	scalbnf@y+2,___flmul@b+2
  9006  004F10  C043  F01C         	movff	scalbnf@y+3,___flmul@b+3
  9007  004F14  0E00               	movlw	0
  9008  004F16  6E1D               	movwf	___flmul@a^0,c
  9009  004F18  0E00               	movlw	0
  9010  004F1A  6E1E               	movwf	(___flmul@a+1)^0,c
  9011  004F1C  0E00               	movlw	0
  9012  004F1E  6E1F               	movwf	(___flmul@a+2)^0,c
  9013  004F20  0E7F               	movlw	127
  9014  004F22  6E20               	movwf	(___flmul@a+3)^0,c
  9015  004F24  EC47  F022         	call	___flmul	;wreg free
  9016  004F28  C019  F040         	movff	?___flmul,scalbnf@y
  9017  004F2C  C01A  F041         	movff	?___flmul+1,scalbnf@y+1
  9018  004F30  C01B  F042         	movff	?___flmul+2,scalbnf@y+2
  9019  004F34  C01C  F043         	movff	?___flmul+3,scalbnf@y+3
  9020  004F38  0E81               	movlw	129
  9021  004F3A  2636               	addwf	scalbnf@n^0,f,c
  9022  004F3C  0EFF               	movlw	255
  9023  004F3E  2237               	addwfc	(scalbnf@n+1)^0,f,c
  9024  004F40  BE37               	btfsc	(scalbnf@n+1)^0,7,c
  9025  004F42  EFAC  F027         	goto	u3801
  9026  004F46  5037               	movf	(scalbnf@n+1)^0,w,c
  9027  004F48  E109               	bnz	u3800
  9028  004F4A  0E80               	movlw	128
  9029  004F4C  5C36               	subwf	scalbnf@n^0,w,c
  9030  004F4E  A0D8               	btfss	status,0,c
  9031  004F50  EFAC  F027         	goto	u3801
  9032  004F54  EFAE  F027         	goto	u3800
  9033  004F58                     u3801:
  9034  004F58  EF4A  F028         	goto	l4483
  9035  004F5C                     u3800:
  9036  004F5C  C040  F019         	movff	scalbnf@y,___flmul@b
  9037  004F60  C041  F01A         	movff	scalbnf@y+1,___flmul@b+1
  9038  004F64  C042  F01B         	movff	scalbnf@y+2,___flmul@b+2
  9039  004F68  C043  F01C         	movff	scalbnf@y+3,___flmul@b+3
  9040  004F6C  0E00               	movlw	0
  9041  004F6E  6E1D               	movwf	___flmul@a^0,c
  9042  004F70  0E00               	movlw	0
  9043  004F72  6E1E               	movwf	(___flmul@a+1)^0,c
  9044  004F74  0E00               	movlw	0
  9045  004F76  6E1F               	movwf	(___flmul@a+2)^0,c
  9046  004F78  0E7F               	movlw	127
  9047  004F7A  6E20               	movwf	(___flmul@a+3)^0,c
  9048  004F7C  EC47  F022         	call	___flmul	;wreg free
  9049  004F80  C019  F040         	movff	?___flmul,scalbnf@y
  9050  004F84  C01A  F041         	movff	?___flmul+1,scalbnf@y+1
  9051  004F88  C01B  F042         	movff	?___flmul+2,scalbnf@y+2
  9052  004F8C  C01C  F043         	movff	?___flmul+3,scalbnf@y+3
  9053  004F90  0E81               	movlw	129
  9054  004F92  2636               	addwf	scalbnf@n^0,f,c
  9055  004F94  0EFF               	movlw	255
  9056  004F96  2237               	addwfc	(scalbnf@n+1)^0,f,c
  9057  004F98  BE37               	btfsc	(scalbnf@n+1)^0,7,c
  9058  004F9A  EFD8  F027         	goto	u3811
  9059  004F9E  5037               	movf	(scalbnf@n+1)^0,w,c
  9060  004FA0  E109               	bnz	u3810
  9061  004FA2  0E80               	movlw	128
  9062  004FA4  5C36               	subwf	scalbnf@n^0,w,c
  9063  004FA6  A0D8               	btfss	status,0,c
  9064  004FA8  EFD8  F027         	goto	u3811
  9065  004FAC  EFDA  F027         	goto	u3810
  9066  004FB0                     u3811:
  9067  004FB0  EF4A  F028         	goto	l4483
  9068  004FB4                     u3810:
  9069  004FB4  0E00               	movlw	0
  9070  004FB6  6E37               	movwf	(scalbnf@n+1)^0,c
  9071  004FB8  0E7F               	movlw	127
  9072  004FBA  6E36               	movwf	scalbnf@n^0,c
  9073  004FBC  EF4A  F028         	goto	l4483
  9074  004FC0                     l4467:
  9075  004FC0  AE37               	btfss	(scalbnf@n+1)^0,7,c
  9076  004FC2  EFEC  F027         	goto	u3821
  9077  004FC6  0E82               	movlw	130
  9078  004FC8  5C36               	subwf	scalbnf@n^0,w,c
  9079  004FCA  0EFF               	movlw	255
  9080  004FCC  5837               	subwfb	(scalbnf@n+1)^0,w,c
  9081  004FCE  B0D8               	btfsc	status,0,c
  9082  004FD0  EFEC  F027         	goto	u3821
  9083  004FD4  EFEE  F027         	goto	u3820
  9084  004FD8                     u3821:
  9085  004FD8  EF4A  F028         	goto	l4483
  9086  004FDC                     u3820:
  9087  004FDC  C040  F019         	movff	scalbnf@y,___flmul@b
  9088  004FE0  C041  F01A         	movff	scalbnf@y+1,___flmul@b+1
  9089  004FE4  C042  F01B         	movff	scalbnf@y+2,___flmul@b+2
  9090  004FE8  C043  F01C         	movff	scalbnf@y+3,___flmul@b+3
  9091  004FEC  0E00               	movlw	0
  9092  004FEE  6E1D               	movwf	___flmul@a^0,c
  9093  004FF0  0E00               	movlw	0
  9094  004FF2  6E1E               	movwf	(___flmul@a+1)^0,c
  9095  004FF4  0E80               	movlw	128
  9096  004FF6  6E1F               	movwf	(___flmul@a+2)^0,c
  9097  004FF8  0E0C               	movlw	12
  9098  004FFA  6E20               	movwf	(___flmul@a+3)^0,c
  9099  004FFC  EC47  F022         	call	___flmul	;wreg free
  9100  005000  C019  F040         	movff	?___flmul,scalbnf@y
  9101  005004  C01A  F041         	movff	?___flmul+1,scalbnf@y+1
  9102  005008  C01B  F042         	movff	?___flmul+2,scalbnf@y+2
  9103  00500C  C01C  F043         	movff	?___flmul+3,scalbnf@y+3
  9104  005010  0E66               	movlw	102
  9105  005012  2636               	addwf	scalbnf@n^0,f,c
  9106  005014  0E00               	movlw	0
  9107  005016  2237               	addwfc	(scalbnf@n+1)^0,f,c
  9108  005018  AE37               	btfss	(scalbnf@n+1)^0,7,c
  9109  00501A  EF18  F028         	goto	u3831
  9110  00501E  0E82               	movlw	130
  9111  005020  5C36               	subwf	scalbnf@n^0,w,c
  9112  005022  0EFF               	movlw	255
  9113  005024  5837               	subwfb	(scalbnf@n+1)^0,w,c
  9114  005026  B0D8               	btfsc	status,0,c
  9115  005028  EF18  F028         	goto	u3831
  9116  00502C  EF1A  F028         	goto	u3830
  9117  005030                     u3831:
  9118  005030  EF4A  F028         	goto	l4483
  9119  005034                     u3830:
  9120  005034  C040  F019         	movff	scalbnf@y,___flmul@b
  9121  005038  C041  F01A         	movff	scalbnf@y+1,___flmul@b+1
  9122  00503C  C042  F01B         	movff	scalbnf@y+2,___flmul@b+2
  9123  005040  C043  F01C         	movff	scalbnf@y+3,___flmul@b+3
  9124  005044  0E00               	movlw	0
  9125  005046  6E1D               	movwf	___flmul@a^0,c
  9126  005048  0E00               	movlw	0
  9127  00504A  6E1E               	movwf	(___flmul@a+1)^0,c
  9128  00504C  0E80               	movlw	128
  9129  00504E  6E1F               	movwf	(___flmul@a+2)^0,c
  9130  005050  0E0C               	movlw	12
  9131  005052  6E20               	movwf	(___flmul@a+3)^0,c
  9132  005054  EC47  F022         	call	___flmul	;wreg free
  9133  005058  C019  F040         	movff	?___flmul,scalbnf@y
  9134  00505C  C01A  F041         	movff	?___flmul+1,scalbnf@y+1
  9135  005060  C01B  F042         	movff	?___flmul+2,scalbnf@y+2
  9136  005064  C01C  F043         	movff	?___flmul+3,scalbnf@y+3
  9137  005068  0E66               	movlw	102
  9138  00506A  2636               	addwf	scalbnf@n^0,f,c
  9139  00506C  0E00               	movlw	0
  9140  00506E  2237               	addwfc	(scalbnf@n+1)^0,f,c
  9141  005070  AE37               	btfss	(scalbnf@n+1)^0,7,c
  9142  005072  EF44  F028         	goto	u3841
  9143  005076  0E82               	movlw	130
  9144  005078  5C36               	subwf	scalbnf@n^0,w,c
  9145  00507A  0EFF               	movlw	255
  9146  00507C  5837               	subwfb	(scalbnf@n+1)^0,w,c
  9147  00507E  B0D8               	btfsc	status,0,c
  9148  005080  EF44  F028         	goto	u3841
  9149  005084  EF46  F028         	goto	u3840
  9150  005088                     u3841:
  9151  005088  EF4A  F028         	goto	l4483
  9152  00508C                     u3840:
  9153  00508C  0EFF               	movlw	255
  9154  00508E  6E37               	movwf	(scalbnf@n+1)^0,c
  9155  005090  0E82               	movlw	130
  9156  005092  6E36               	movwf	scalbnf@n^0,c
  9157  005094                     l4483:
  9158  005094  0E7F               	movlw	127
  9159  005096  2436               	addwf	scalbnf@n^0,w,c
  9160  005098  6E38               	movwf	??_scalbnf^0,c
  9161  00509A  0E00               	movlw	0
  9162  00509C  2037               	addwfc	(scalbnf@n+1)^0,w,c
  9163  00509E  6E39               	movwf	(??_scalbnf+1)^0,c
  9164  0050A0  6A3A               	clrf	(??_scalbnf+2)^0,c
  9165  0050A2  6A3B               	clrf	(??_scalbnf+3)^0,c
  9166  0050A4  0E17               	movlw	23
  9167  0050A6                     u3855:
  9168  0050A6  90D8               	bcf	status,0,c
  9169  0050A8  3638               	rlcf	??_scalbnf^0,f,c
  9170  0050AA  3639               	rlcf	(??_scalbnf+1)^0,f,c
  9171  0050AC  363A               	rlcf	(??_scalbnf+2)^0,f,c
  9172  0050AE  363B               	rlcf	(??_scalbnf+3)^0,f,c
  9173  0050B0  2EE8               	decfsz	wreg,f,c
  9174  0050B2  EF53  F028         	goto	u3855
  9175  0050B6  C038  F03C         	movff	??_scalbnf,scalbnf@u
  9176  0050BA  C039  F03D         	movff	??_scalbnf+1,scalbnf@u+1
  9177  0050BE  C03A  F03E         	movff	??_scalbnf+2,scalbnf@u+2
  9178  0050C2  C03B  F03F         	movff	??_scalbnf+3,scalbnf@u+3
  9179  0050C6  C03C  F019         	movff	scalbnf@u,___flmul@b
  9180  0050CA  C03D  F01A         	movff	scalbnf@u+1,___flmul@b+1
  9181  0050CE  C03E  F01B         	movff	scalbnf@u+2,___flmul@b+2
  9182  0050D2  C03F  F01C         	movff	scalbnf@u+3,___flmul@b+3
  9183  0050D6  C040  F01D         	movff	scalbnf@y,___flmul@a
  9184  0050DA  C041  F01E         	movff	scalbnf@y+1,___flmul@a+1
  9185  0050DE  C042  F01F         	movff	scalbnf@y+2,___flmul@a+2
  9186  0050E2  C043  F020         	movff	scalbnf@y+3,___flmul@a+3
  9187  0050E6  EC47  F022         	call	___flmul	;wreg free
  9188  0050EA  C019  F032         	movff	?___flmul,scalbnf@x
  9189  0050EE  C01A  F033         	movff	?___flmul+1,scalbnf@x+1
  9190  0050F2  C01B  F034         	movff	?___flmul+2,scalbnf@x+2
  9191  0050F6  C01C  F035         	movff	?___flmul+3,scalbnf@x+3
  9192  0050FA  C032  F032         	movff	scalbnf@x,?_scalbnf
  9193  0050FE  C033  F033         	movff	scalbnf@x+1,?_scalbnf+1
  9194  005102  C034  F034         	movff	scalbnf@x+2,?_scalbnf+2
  9195  005106  C035  F035         	movff	scalbnf@x+3,?_scalbnf+3
  9196  00510A  0012               	return		;funcret
  9197  00510C                     __end_of_scalbnf:
  9198                           	opt callstack 0
  9199                           
  9200 ;; *************** function ___flmul *****************
  9201 ;; Defined at:
  9202 ;;		line 8 in file "C:\Program Files (x86)\Microchip\xc8\v2.10\pic\sources\c99\common\sprcmul.c"
  9203 ;; Parameters:    Size  Location     Type
  9204 ;;  b               4   24[COMRAM] float 
  9205 ;;  a               4   28[COMRAM] float 
  9206 ;; Auto vars:     Size  Location     Type
  9207 ;;  prod            4   43[COMRAM] struct .
  9208 ;;  grs             4   37[COMRAM] unsigned long 
  9209 ;;  temp            2   47[COMRAM] struct .
  9210 ;;  bexp            1   42[COMRAM] unsigned char 
  9211 ;;  aexp            1   41[COMRAM] unsigned char 
  9212 ;;  sign            1   36[COMRAM] unsigned char 
  9213 ;; Return value:  Size  Location     Type
  9214 ;;                  4   24[COMRAM] unsigned char 
  9215 ;; Registers used:
  9216 ;;		wreg, status,2, status,0, prodl, prodh
  9217 ;; Tracked objects:
  9218 ;;		On entry : 0/0
  9219 ;;		On exit  : 0/0
  9220 ;;		Unchanged: 0/0
  9221 ;; Data sizes:     COMRAM   BANK0   BANK1   BANK2   BANK3   BANK4   BANK5   BANK6   BANK7   BANK8   BANK9  BANK10  BANK1
      +1  BANK12  BANK13  BANK14  BANK15
  9222 ;;      Params:         8       0       0       0       0       0       0       0       0       0       0       0       
      +0       0       0       0       0
  9223 ;;      Locals:        13       0       0       0       0       0       0       0       0       0       0       0       
      +0       0       0       0       0
  9224 ;;      Temps:          4       0       0       0       0       0       0       0       0       0       0       0       
      +0       0       0       0       0
  9225 ;;      Totals:        25       0       0       0       0       0       0       0       0       0       0       0       
      +0       0       0       0       0
  9226 ;;Total ram usage:       25 bytes
  9227 ;; Hardware stack levels used:    1
  9228 ;; Hardware stack levels required when called:    3
  9229 ;; This function calls:
  9230 ;;		Nothing
  9231 ;; This function is called by:
  9232 ;;		_preCalculate
  9233 ;;		_powf
  9234 ;;		_scalbnf
  9235 ;;		_sqrtf
  9236 ;; This function uses a non-reentrant model
  9237 ;;
  9238                           
  9239                           	psect	text27
  9240  00448E                     __ptext27:
  9241                           	opt callstack 0
  9242  00448E                     ___flmul:
  9243                           	opt callstack 22
  9244  00448E  501C               	movf	(___flmul@b+3)^0,w,c
  9245  004490  0B80               	andlw	128
  9246  004492  6E25               	movwf	___flmul@sign^0,c
  9247  004494  501C               	movf	(___flmul@b+3)^0,w,c
  9248  004496  241C               	addwf	(___flmul@b+3)^0,w,c
  9249  004498  6E2B               	movwf	___flmul@bexp^0,c
  9250  00449A  AE1B               	btfss	(___flmul@b+2)^0,7,c
  9251  00449C  EF52  F022         	goto	u3071
  9252  0044A0  EF54  F022         	goto	u3070
  9253  0044A4                     u3071:
  9254  0044A4  EF55  F022         	goto	l3983
  9255  0044A8                     u3070:
  9256  0044A8  802B               	bsf	___flmul@bexp^0,0,c
  9257  0044AA                     l3983:
  9258  0044AA  502B               	movf	___flmul@bexp^0,w,c
  9259  0044AC  B4D8               	btfsc	status,2,c
  9260  0044AE  EF5B  F022         	goto	u3081
  9261  0044B2  EF5D  F022         	goto	u3080
  9262  0044B6                     u3081:
  9263  0044B6  EF70  F022         	goto	l3991
  9264  0044BA                     u3080:
  9265  0044BA  282B               	incf	___flmul@bexp^0,w,c
  9266  0044BC  A4D8               	btfss	status,2,c
  9267  0044BE  EF63  F022         	goto	u3091
  9268  0044C2  EF65  F022         	goto	u3090
  9269  0044C6                     u3091:
  9270  0044C6  EF6D  F022         	goto	l3989
  9271  0044CA                     u3090:
  9272  0044CA  0E00               	movlw	0
  9273  0044CC  6E19               	movwf	___flmul@b^0,c
  9274  0044CE  0E00               	movlw	0
  9275  0044D0  6E1A               	movwf	(___flmul@b+1)^0,c
  9276  0044D2  0E00               	movlw	0
  9277  0044D4  6E1B               	movwf	(___flmul@b+2)^0,c
  9278  0044D6  0E00               	movlw	0
  9279  0044D8  6E1C               	movwf	(___flmul@b+3)^0,c
  9280  0044DA                     l3989:
  9281  0044DA  8E1B               	bsf	(___flmul@b+2)^0,7,c
  9282  0044DC  EF78  F022         	goto	l3993
  9283  0044E0                     l3991:
  9284  0044E0  0E00               	movlw	0
  9285  0044E2  6E19               	movwf	___flmul@b^0,c
  9286  0044E4  0E00               	movlw	0
  9287  0044E6  6E1A               	movwf	(___flmul@b+1)^0,c
  9288  0044E8  0E00               	movlw	0
  9289  0044EA  6E1B               	movwf	(___flmul@b+2)^0,c
  9290  0044EC  0E00               	movlw	0
  9291  0044EE  6E1C               	movwf	(___flmul@b+3)^0,c
  9292  0044F0                     l3993:
  9293  0044F0  5020               	movf	(___flmul@a+3)^0,w,c
  9294  0044F2  0B80               	andlw	128
  9295  0044F4  1A25               	xorwf	___flmul@sign^0,f,c
  9296  0044F6  5020               	movf	(___flmul@a+3)^0,w,c
  9297  0044F8  2420               	addwf	(___flmul@a+3)^0,w,c
  9298  0044FA  6E2A               	movwf	___flmul@aexp^0,c
  9299  0044FC  AE1F               	btfss	(___flmul@a+2)^0,7,c
  9300  0044FE  EF83  F022         	goto	u3101
  9301  004502  EF85  F022         	goto	u3100
  9302  004506                     u3101:
  9303  004506  EF86  F022         	goto	l4001
  9304  00450A                     u3100:
  9305  00450A  802A               	bsf	___flmul@aexp^0,0,c
  9306  00450C                     l4001:
  9307  00450C  502A               	movf	___flmul@aexp^0,w,c
  9308  00450E  B4D8               	btfsc	status,2,c
  9309  004510  EF8C  F022         	goto	u3111
  9310  004514  EF8E  F022         	goto	u3110
  9311  004518                     u3111:
  9312  004518  EFA1  F022         	goto	l4009
  9313  00451C                     u3110:
  9314  00451C  282A               	incf	___flmul@aexp^0,w,c
  9315  00451E  A4D8               	btfss	status,2,c
  9316  004520  EF94  F022         	goto	u3121
  9317  004524  EF96  F022         	goto	u3120
  9318  004528                     u3121:
  9319  004528  EF9E  F022         	goto	l4007
  9320  00452C                     u3120:
  9321  00452C  0E00               	movlw	0
  9322  00452E  6E1D               	movwf	___flmul@a^0,c
  9323  004530  0E00               	movlw	0
  9324  004532  6E1E               	movwf	(___flmul@a+1)^0,c
  9325  004534  0E00               	movlw	0
  9326  004536  6E1F               	movwf	(___flmul@a+2)^0,c
  9327  004538  0E00               	movlw	0
  9328  00453A  6E20               	movwf	(___flmul@a+3)^0,c
  9329  00453C                     l4007:
  9330  00453C  8E1F               	bsf	(___flmul@a+2)^0,7,c
  9331  00453E  EFA9  F022         	goto	l1385
  9332  004542                     l4009:
  9333  004542  0E00               	movlw	0
  9334  004544  6E1D               	movwf	___flmul@a^0,c
  9335  004546  0E00               	movlw	0
  9336  004548  6E1E               	movwf	(___flmul@a+1)^0,c
  9337  00454A  0E00               	movlw	0
  9338  00454C  6E1F               	movwf	(___flmul@a+2)^0,c
  9339  00454E  0E00               	movlw	0
  9340  004550  6E20               	movwf	(___flmul@a+3)^0,c
  9341  004552                     l1385:
  9342  004552  502A               	movf	___flmul@aexp^0,w,c
  9343  004554  B4D8               	btfsc	status,2,c
  9344  004556  EFAF  F022         	goto	u3131
  9345  00455A  EFB1  F022         	goto	u3130
  9346  00455E                     u3131:
  9347  00455E  EFB9  F022         	goto	l4013
  9348  004562                     u3130:
  9349  004562  502B               	movf	___flmul@bexp^0,w,c
  9350  004564  A4D8               	btfss	status,2,c
  9351  004566  EFB7  F022         	goto	u3141
  9352  00456A  EFB9  F022         	goto	u3140
  9353  00456E                     u3141:
  9354  00456E  EFC3  F022         	goto	l4017
  9355  004572                     u3140:
  9356  004572                     l4013:
  9357  004572  0E00               	movlw	0
  9358  004574  6E19               	movwf	?___flmul^0,c
  9359  004576  0E00               	movlw	0
  9360  004578  6E1A               	movwf	(?___flmul+1)^0,c
  9361  00457A  0E00               	movlw	0
  9362  00457C  6E1B               	movwf	(?___flmul+2)^0,c
  9363  00457E  0E00               	movlw	0
  9364  004580  6E1C               	movwf	(?___flmul+3)^0,c
  9365  004582  EF5B  F024         	goto	l1389
  9366  004586                     l4017:
  9367  004586  501F               	movf	(___flmul@a+2)^0,w,c
  9368  004588  0219               	mulwf	___flmul@b^0,c
  9369  00458A  CFF3 F030          	movff	prodl,___flmul@temp
  9370  00458E  CFF4 F031          	movff	prodh,___flmul@temp+1
  9371  004592  5030               	movf	___flmul@temp^0,w,c
  9372  004594  6E26               	movwf	___flmul@grs^0,c
  9373  004596  6A27               	clrf	(___flmul@grs+1)^0,c
  9374  004598  6A28               	clrf	(___flmul@grs+2)^0,c
  9375  00459A  6A29               	clrf	(___flmul@grs+3)^0,c
  9376  00459C  5031               	movf	(___flmul@temp+1)^0,w,c
  9377  00459E  6E2C               	movwf	___flmul@prod^0,c
  9378  0045A0  6A2D               	clrf	(___flmul@prod+1)^0,c
  9379  0045A2  6A2E               	clrf	(___flmul@prod+2)^0,c
  9380  0045A4  6A2F               	clrf	(___flmul@prod+3)^0,c
  9381  0045A6  501E               	movf	(___flmul@a+1)^0,w,c
  9382  0045A8  021A               	mulwf	(___flmul@b+1)^0,c
  9383  0045AA  CFF3 F030          	movff	prodl,___flmul@temp
  9384  0045AE  CFF4 F031          	movff	prodh,___flmul@temp+1
  9385  0045B2  5030               	movf	___flmul@temp^0,w,c
  9386  0045B4  2626               	addwf	___flmul@grs^0,f,c
  9387  0045B6  0E00               	movlw	0
  9388  0045B8  2227               	addwfc	(___flmul@grs+1)^0,f,c
  9389  0045BA  2228               	addwfc	(___flmul@grs+2)^0,f,c
  9390  0045BC  2229               	addwfc	(___flmul@grs+3)^0,f,c
  9391  0045BE  5031               	movf	(___flmul@temp+1)^0,w,c
  9392  0045C0  262C               	addwf	___flmul@prod^0,f,c
  9393  0045C2  0E00               	movlw	0
  9394  0045C4  222D               	addwfc	(___flmul@prod+1)^0,f,c
  9395  0045C6  222E               	addwfc	(___flmul@prod+2)^0,f,c
  9396  0045C8  222F               	addwfc	(___flmul@prod+3)^0,f,c
  9397  0045CA  501D               	movf	___flmul@a^0,w,c
  9398  0045CC  021B               	mulwf	(___flmul@b+2)^0,c
  9399  0045CE  CFF3 F030          	movff	prodl,___flmul@temp
  9400  0045D2  CFF4 F031          	movff	prodh,___flmul@temp+1
  9401  0045D6  5030               	movf	___flmul@temp^0,w,c
  9402  0045D8  2626               	addwf	___flmul@grs^0,f,c
  9403  0045DA  0E00               	movlw	0
  9404  0045DC  2227               	addwfc	(___flmul@grs+1)^0,f,c
  9405  0045DE  2228               	addwfc	(___flmul@grs+2)^0,f,c
  9406  0045E0  2229               	addwfc	(___flmul@grs+3)^0,f,c
  9407  0045E2  5031               	movf	(___flmul@temp+1)^0,w,c
  9408  0045E4  262C               	addwf	___flmul@prod^0,f,c
  9409  0045E6  0E00               	movlw	0
  9410  0045E8  222D               	addwfc	(___flmul@prod+1)^0,f,c
  9411  0045EA  222E               	addwfc	(___flmul@prod+2)^0,f,c
  9412  0045EC  222F               	addwfc	(___flmul@prod+3)^0,f,c
  9413  0045EE  C028  F029         	movff	___flmul@grs+2,___flmul@grs+3
  9414  0045F2  C027  F028         	movff	___flmul@grs+1,___flmul@grs+2
  9415  0045F6  C026  F027         	movff	___flmul@grs,___flmul@grs+1
  9416  0045FA  6A26               	clrf	___flmul@grs^0,c
  9417  0045FC  501D               	movf	___flmul@a^0,w,c
  9418  0045FE  021A               	mulwf	(___flmul@b+1)^0,c
  9419  004600  CFF3 F030          	movff	prodl,___flmul@temp
  9420  004604  CFF4 F031          	movff	prodh,___flmul@temp+1
  9421  004608  5030               	movf	___flmul@temp^0,w,c
  9422  00460A  2626               	addwf	___flmul@grs^0,f,c
  9423  00460C  5031               	movf	(___flmul@temp+1)^0,w,c
  9424  00460E  2227               	addwfc	(___flmul@grs+1)^0,f,c
  9425  004610  0E00               	movlw	0
  9426  004612  2228               	addwfc	(___flmul@grs+2)^0,f,c
  9427  004614  0E00               	movlw	0
  9428  004616  2229               	addwfc	(___flmul@grs+3)^0,f,c
  9429  004618  501E               	movf	(___flmul@a+1)^0,w,c
  9430  00461A  0219               	mulwf	___flmul@b^0,c
  9431  00461C  CFF3 F030          	movff	prodl,___flmul@temp
  9432  004620  CFF4 F031          	movff	prodh,___flmul@temp+1
  9433  004624  5030               	movf	___flmul@temp^0,w,c
  9434  004626  2626               	addwf	___flmul@grs^0,f,c
  9435  004628  5031               	movf	(___flmul@temp+1)^0,w,c
  9436  00462A  2227               	addwfc	(___flmul@grs+1)^0,f,c
  9437  00462C  0E00               	movlw	0
  9438  00462E  2228               	addwfc	(___flmul@grs+2)^0,f,c
  9439  004630  0E00               	movlw	0
  9440  004632  2229               	addwfc	(___flmul@grs+3)^0,f,c
  9441  004634  C028  F029         	movff	___flmul@grs+2,___flmul@grs+3
  9442  004638  C027  F028         	movff	___flmul@grs+1,___flmul@grs+2
  9443  00463C  C026  F027         	movff	___flmul@grs,___flmul@grs+1
  9444  004640  6A26               	clrf	___flmul@grs^0,c
  9445  004642  501D               	movf	___flmul@a^0,w,c
  9446  004644  0219               	mulwf	___flmul@b^0,c
  9447  004646  CFF3 F030          	movff	prodl,___flmul@temp
  9448  00464A  CFF4 F031          	movff	prodh,___flmul@temp+1
  9449  00464E  5030               	movf	___flmul@temp^0,w,c
  9450  004650  2626               	addwf	___flmul@grs^0,f,c
  9451  004652  5031               	movf	(___flmul@temp+1)^0,w,c
  9452  004654  2227               	addwfc	(___flmul@grs+1)^0,f,c
  9453  004656  0E00               	movlw	0
  9454  004658  2228               	addwfc	(___flmul@grs+2)^0,f,c
  9455  00465A  0E00               	movlw	0
  9456  00465C  2229               	addwfc	(___flmul@grs+3)^0,f,c
  9457  00465E  501F               	movf	(___flmul@a+2)^0,w,c
  9458  004660  021A               	mulwf	(___flmul@b+1)^0,c
  9459  004662  CFF3 F030          	movff	prodl,___flmul@temp
  9460  004666  CFF4 F031          	movff	prodh,___flmul@temp+1
  9461  00466A  5030               	movf	___flmul@temp^0,w,c
  9462  00466C  262C               	addwf	___flmul@prod^0,f,c
  9463  00466E  5031               	movf	(___flmul@temp+1)^0,w,c
  9464  004670  222D               	addwfc	(___flmul@prod+1)^0,f,c
  9465  004672  0E00               	movlw	0
  9466  004674  222E               	addwfc	(___flmul@prod+2)^0,f,c
  9467  004676  0E00               	movlw	0
  9468  004678  222F               	addwfc	(___flmul@prod+3)^0,f,c
  9469  00467A  501E               	movf	(___flmul@a+1)^0,w,c
  9470  00467C  021B               	mulwf	(___flmul@b+2)^0,c
  9471  00467E  CFF3 F030          	movff	prodl,___flmul@temp
  9472  004682  CFF4 F031          	movff	prodh,___flmul@temp+1
  9473  004686  5030               	movf	___flmul@temp^0,w,c
  9474  004688  262C               	addwf	___flmul@prod^0,f,c
  9475  00468A  5031               	movf	(___flmul@temp+1)^0,w,c
  9476  00468C  222D               	addwfc	(___flmul@prod+1)^0,f,c
  9477  00468E  0E00               	movlw	0
  9478  004690  222E               	addwfc	(___flmul@prod+2)^0,f,c
  9479  004692  0E00               	movlw	0
  9480  004694  222F               	addwfc	(___flmul@prod+3)^0,f,c
  9481  004696  501F               	movf	(___flmul@a+2)^0,w,c
  9482  004698  021B               	mulwf	(___flmul@b+2)^0,c
  9483  00469A  CFF3 F030          	movff	prodl,___flmul@temp
  9484  00469E  CFF4 F031          	movff	prodh,___flmul@temp+1
  9485  0046A2  5030               	movf	___flmul@temp^0,w,c
  9486  0046A4  6E21               	movwf	??___flmul^0,c
  9487  0046A6  5031               	movf	(___flmul@temp+1)^0,w,c
  9488  0046A8  6E22               	movwf	(??___flmul+1)^0,c
  9489  0046AA  6A23               	clrf	(??___flmul+2)^0,c
  9490  0046AC  6A24               	clrf	(??___flmul+3)^0,c
  9491  0046AE  C023  F024         	movff	??___flmul+2,??___flmul+3
  9492  0046B2  C022  F023         	movff	??___flmul+1,??___flmul+2
  9493  0046B6  C021  F022         	movff	??___flmul,??___flmul+1
  9494  0046BA  6A21               	clrf	??___flmul^0,c
  9495  0046BC  5021               	movf	??___flmul^0,w,c
  9496  0046BE  262C               	addwf	___flmul@prod^0,f,c
  9497  0046C0  5022               	movf	(??___flmul+1)^0,w,c
  9498  0046C2  222D               	addwfc	(___flmul@prod+1)^0,f,c
  9499  0046C4  5023               	movf	(??___flmul+2)^0,w,c
  9500  0046C6  222E               	addwfc	(___flmul@prod+2)^0,f,c
  9501  0046C8  5024               	movf	(??___flmul+3)^0,w,c
  9502  0046CA  222F               	addwfc	(___flmul@prod+3)^0,f,c
  9503  0046CC  C026  F021         	movff	___flmul@grs,??___flmul
  9504  0046D0  C027  F022         	movff	___flmul@grs+1,??___flmul+1
  9505  0046D4  C028  F023         	movff	___flmul@grs+2,??___flmul+2
  9506  0046D8  C029  F024         	movff	___flmul@grs+3,??___flmul+3
  9507  0046DC  0E19               	movlw	25
  9508  0046DE  EF76  F023         	goto	u3150
  9509  0046E2                     u3155:
  9510  0046E2  90D8               	bcf	status,0,c
  9511  0046E4  3224               	rrcf	(??___flmul+3)^0,f,c
  9512  0046E6  3223               	rrcf	(??___flmul+2)^0,f,c
  9513  0046E8  3222               	rrcf	(??___flmul+1)^0,f,c
  9514  0046EA  3221               	rrcf	??___flmul^0,f,c
  9515  0046EC                     u3150:
  9516  0046EC  2EE8               	decfsz	wreg,f,c
  9517  0046EE  EF71  F023         	goto	u3155
  9518  0046F2  5021               	movf	??___flmul^0,w,c
  9519  0046F4  262C               	addwf	___flmul@prod^0,f,c
  9520  0046F6  5022               	movf	(??___flmul+1)^0,w,c
  9521  0046F8  222D               	addwfc	(___flmul@prod+1)^0,f,c
  9522  0046FA  5023               	movf	(??___flmul+2)^0,w,c
  9523  0046FC  222E               	addwfc	(___flmul@prod+2)^0,f,c
  9524  0046FE  5024               	movf	(??___flmul+3)^0,w,c
  9525  004700  222F               	addwfc	(___flmul@prod+3)^0,f,c
  9526  004702  C028  F029         	movff	___flmul@grs+2,___flmul@grs+3
  9527  004706  C027  F028         	movff	___flmul@grs+1,___flmul@grs+2
  9528  00470A  C026  F027         	movff	___flmul@grs,___flmul@grs+1
  9529  00470E  6A26               	clrf	___flmul@grs^0,c
  9530  004710  502A               	movf	___flmul@aexp^0,w,c
  9531  004712  C02B  F021         	movff	___flmul@bexp,??___flmul
  9532  004716  6A22               	clrf	(??___flmul+1)^0,c
  9533  004718  2621               	addwf	??___flmul^0,f,c
  9534  00471A  0E00               	movlw	0
  9535  00471C  2222               	addwfc	(??___flmul+1)^0,f,c
  9536  00471E  0E82               	movlw	130
  9537  004720  2421               	addwf	??___flmul^0,w,c
  9538  004722  6E30               	movwf	___flmul@temp^0,c
  9539  004724  0EFF               	movlw	255
  9540  004726  2022               	addwfc	(??___flmul+1)^0,w,c
  9541  004728  6E31               	movwf	(___flmul@temp+1)^0,c
  9542  00472A  EFAC  F023         	goto	l4065
  9543  00472E                     l4059:
  9544  00472E  90D8               	bcf	status,0,c
  9545  004730  362C               	rlcf	___flmul@prod^0,f,c
  9546  004732  362D               	rlcf	(___flmul@prod+1)^0,f,c
  9547  004734  362E               	rlcf	(___flmul@prod+2)^0,f,c
  9548  004736  362F               	rlcf	(___flmul@prod+3)^0,f,c
  9549  004738  AE29               	btfss	(___flmul@grs+3)^0,7,c
  9550  00473A  EFA1  F023         	goto	u3161
  9551  00473E  EFA3  F023         	goto	u3160
  9552  004742                     u3161:
  9553  004742  EFA4  F023         	goto	l1392
  9554  004746                     u3160:
  9555  004746  802C               	bsf	___flmul@prod^0,0,c
  9556  004748                     l1392:
  9557  004748  90D8               	bcf	status,0,c
  9558  00474A  3626               	rlcf	___flmul@grs^0,f,c
  9559  00474C  3627               	rlcf	(___flmul@grs+1)^0,f,c
  9560  00474E  3628               	rlcf	(___flmul@grs+2)^0,f,c
  9561  004750  3629               	rlcf	(___flmul@grs+3)^0,f,c
  9562  004752  0630               	decf	___flmul@temp^0,f,c
  9563  004754  A0D8               	btfss	status,0,c
  9564  004756  0631               	decf	(___flmul@temp+1)^0,f,c
  9565  004758                     l4065:
  9566  004758  AE2E               	btfss	(___flmul@prod+2)^0,7,c
  9567  00475A  EFB1  F023         	goto	u3171
  9568  00475E  EFB3  F023         	goto	u3170
  9569  004762                     u3171:
  9570  004762  EF97  F023         	goto	l4059
  9571  004766                     u3170:
  9572  004766  0E00               	movlw	0
  9573  004768  6E2A               	movwf	___flmul@aexp^0,c
  9574  00476A  AE29               	btfss	(___flmul@grs+3)^0,7,c
  9575  00476C  EFBA  F023         	goto	u3181
  9576  004770  EFBC  F023         	goto	u3180
  9577  004774                     u3181:
  9578  004774  EFE0  F023         	goto	l1394
  9579  004778                     u3180:
  9580  004778  0EFF               	movlw	255
  9581  00477A  1426               	andwf	___flmul@grs^0,w,c
  9582  00477C  6E21               	movwf	??___flmul^0,c
  9583  00477E  0EFF               	movlw	255
  9584  004780  1427               	andwf	(___flmul@grs+1)^0,w,c
  9585  004782  6E22               	movwf	(??___flmul+1)^0,c
  9586  004784  0EFF               	movlw	255
  9587  004786  1428               	andwf	(___flmul@grs+2)^0,w,c
  9588  004788  6E23               	movwf	(??___flmul+2)^0,c
  9589  00478A  0E7F               	movlw	127
  9590  00478C  1429               	andwf	(___flmul@grs+3)^0,w,c
  9591  00478E  6E24               	movwf	(??___flmul+3)^0,c
  9592  004790  5021               	movf	??___flmul^0,w,c
  9593  004792  1022               	iorwf	(??___flmul+1)^0,w,c
  9594  004794  1023               	iorwf	(??___flmul+2)^0,w,c
  9595  004796  1024               	iorwf	(??___flmul+3)^0,w,c
  9596  004798  B4D8               	btfsc	status,2,c
  9597  00479A  EFD1  F023         	goto	u3191
  9598  00479E  EFD3  F023         	goto	u3190
  9599  0047A2                     u3191:
  9600  0047A2  EFD7  F023         	goto	l1395
  9601  0047A6                     u3190:
  9602  0047A6                     l4073:
  9603  0047A6  0E01               	movlw	1
  9604  0047A8  6E2A               	movwf	___flmul@aexp^0,c
  9605  0047AA  EFE0  F023         	goto	l1394
  9606  0047AE                     l1395:
  9607  0047AE  A02C               	btfss	___flmul@prod^0,0,c
  9608  0047B0  EFDC  F023         	goto	u3201
  9609  0047B4  EFDE  F023         	goto	u3200
  9610  0047B8                     u3201:
  9611  0047B8  EFE0  F023         	goto	l1394
  9612  0047BC                     u3200:
  9613  0047BC  EFD3  F023         	goto	l4073
  9614  0047C0                     l1394:
  9615  0047C0  502A               	movf	___flmul@aexp^0,w,c
  9616  0047C2  B4D8               	btfsc	status,2,c
  9617  0047C4  EFE6  F023         	goto	u3211
  9618  0047C8  EFE8  F023         	goto	u3210
  9619  0047CC                     u3211:
  9620  0047CC  EF0C  F024         	goto	l4085
  9621  0047D0                     u3210:
  9622  0047D0  0E01               	movlw	1
  9623  0047D2  262C               	addwf	___flmul@prod^0,f,c
  9624  0047D4  0E00               	movlw	0
  9625  0047D6  222D               	addwfc	(___flmul@prod+1)^0,f,c
  9626  0047D8  222E               	addwfc	(___flmul@prod+2)^0,f,c
  9627  0047DA  222F               	addwfc	(___flmul@prod+3)^0,f,c
  9628  0047DC  A02F               	btfss	(___flmul@prod+3)^0,0,c
  9629  0047DE  EFF3  F023         	goto	u3221
  9630  0047E2  EFF5  F023         	goto	u3220
  9631  0047E6                     u3221:
  9632  0047E6  EF0C  F024         	goto	l4085
  9633  0047EA                     u3220:
  9634  0047EA  C02C  F021         	movff	___flmul@prod,??___flmul
  9635  0047EE  C02D  F022         	movff	___flmul@prod+1,??___flmul+1
  9636  0047F2  C02E  F023         	movff	___flmul@prod+2,??___flmul+2
  9637  0047F6  C02F  F024         	movff	___flmul@prod+3,??___flmul+3
  9638  0047FA  3424               	rlcf	(??___flmul+3)^0,w,c
  9639  0047FC  3224               	rrcf	(??___flmul+3)^0,f,c
  9640  0047FE  3223               	rrcf	(??___flmul+2)^0,f,c
  9641  004800  3222               	rrcf	(??___flmul+1)^0,f,c
  9642  004802  3221               	rrcf	??___flmul^0,f,c
  9643  004804  C021  F02C         	movff	??___flmul,___flmul@prod
  9644  004808  C022  F02D         	movff	??___flmul+1,___flmul@prod+1
  9645  00480C  C023  F02E         	movff	??___flmul+2,___flmul@prod+2
  9646  004810  C024  F02F         	movff	??___flmul+3,___flmul@prod+3
  9647  004814  4A30               	infsnz	___flmul@temp^0,f,c
  9648  004816  2A31               	incf	(___flmul@temp+1)^0,f,c
  9649  004818                     l4085:
  9650  004818  BE31               	btfsc	(___flmul@temp+1)^0,7,c
  9651  00481A  EF17  F024         	goto	u3231
  9652  00481E  5031               	movf	(___flmul@temp+1)^0,w,c
  9653  004820  E108               	bnz	u3230
  9654  004822  2830               	incf	___flmul@temp^0,w,c
  9655  004824  A0D8               	btfss	status,0,c
  9656  004826  EF17  F024         	goto	u3231
  9657  00482A  EF19  F024         	goto	u3230
  9658  00482E                     u3231:
  9659  00482E  EF23  F024         	goto	l4089
  9660  004832                     u3230:
  9661  004832  0E00               	movlw	0
  9662  004834  6E2C               	movwf	___flmul@prod^0,c
  9663  004836  0E00               	movlw	0
  9664  004838  6E2D               	movwf	(___flmul@prod+1)^0,c
  9665  00483A  0E80               	movlw	128
  9666  00483C  6E2E               	movwf	(___flmul@prod+2)^0,c
  9667  00483E  0E7F               	movlw	127
  9668  004840  6E2F               	movwf	(___flmul@prod+3)^0,c
  9669  004842  EF51  F024         	goto	l4101
  9670  004846                     l4089:
  9671  004846  BE31               	btfsc	(___flmul@temp+1)^0,7,c
  9672  004848  EF30  F024         	goto	u3240
  9673  00484C  5031               	movf	(___flmul@temp+1)^0,w,c
  9674  00484E  E106               	bnz	u3241
  9675  004850  0430               	decf	___flmul@temp^0,w,c
  9676  004852  B0D8               	btfsc	status,0,c
  9677  004854  EF2E  F024         	goto	u3241
  9678  004858  EF30  F024         	goto	u3240
  9679  00485C                     u3241:
  9680  00485C  EF3C  F024         	goto	l1402
  9681  004860                     u3240:
  9682  004860  0E00               	movlw	0
  9683  004862  6E2C               	movwf	___flmul@prod^0,c
  9684  004864  0E00               	movlw	0
  9685  004866  6E2D               	movwf	(___flmul@prod+1)^0,c
  9686  004868  0E00               	movlw	0
  9687  00486A  6E2E               	movwf	(___flmul@prod+2)^0,c
  9688  00486C  0E00               	movlw	0
  9689  00486E  6E2F               	movwf	(___flmul@prod+3)^0,c
  9690  004870  0E00               	movlw	0
  9691  004872  6E25               	movwf	___flmul@sign^0,c
  9692  004874  EF51  F024         	goto	l4101
  9693  004878                     l1402:
  9694  004878  C030  F02B         	movff	___flmul@temp,___flmul@bexp
  9695  00487C  0EFF               	movlw	255
  9696  00487E  162C               	andwf	___flmul@prod^0,f,c
  9697  004880  0EFF               	movlw	255
  9698  004882  162D               	andwf	(___flmul@prod+1)^0,f,c
  9699  004884  0E7F               	movlw	127
  9700  004886  162E               	andwf	(___flmul@prod+2)^0,f,c
  9701  004888  0E00               	movlw	0
  9702  00488A  162F               	andwf	(___flmul@prod+3)^0,f,c
  9703  00488C  A02B               	btfss	___flmul@bexp^0,0,c
  9704  00488E  EF4B  F024         	goto	u3251
  9705  004892  EF4D  F024         	goto	u3250
  9706  004896                     u3251:
  9707  004896  EF4E  F024         	goto	l4099
  9708  00489A                     u3250:
  9709  00489A  8E2E               	bsf	(___flmul@prod+2)^0,7,c
  9710  00489C                     l4099:
  9711  00489C  90D8               	bcf	status,0,c
  9712  00489E  302B               	rrcf	___flmul@bexp^0,w,c
  9713  0048A0  6E2F               	movwf	(___flmul@prod+3)^0,c
  9714  0048A2                     l4101:
  9715  0048A2  5025               	movf	___flmul@sign^0,w,c
  9716  0048A4  122F               	iorwf	(___flmul@prod+3)^0,f,c
  9717  0048A6  C02C  F019         	movff	___flmul@prod,?___flmul
  9718  0048AA  C02D  F01A         	movff	___flmul@prod+1,?___flmul+1
  9719  0048AE  C02E  F01B         	movff	___flmul@prod+2,?___flmul+2
  9720  0048B2  C02F  F01C         	movff	___flmul@prod+3,?___flmul+3
  9721  0048B6                     l1389:
  9722  0048B6  0012               	return		;funcret
  9723  0048B8                     __end_of___flmul:
  9724                           	opt callstack 0
  9725                           
  9726 ;; *************** function _fabsf *****************
  9727 ;; Defined at:
  9728 ;;		line 4 in file "C:\Program Files (x86)\Microchip\xc8\v2.10\pic\sources\c99\common\fabsf.c"
  9729 ;; Parameters:    Size  Location     Type
  9730 ;;  x               4    8[COMRAM] float 
  9731 ;; Auto vars:     Size  Location     Type
  9732 ;;  u               4   12[COMRAM] struct .
  9733 ;; Return value:  Size  Location     Type
  9734 ;;                  4    8[COMRAM] float 
  9735 ;; Registers used:
  9736 ;;		status,2, status,0
  9737 ;; Tracked objects:
  9738 ;;		On entry : 0/0
  9739 ;;		On exit  : 0/0
  9740 ;;		Unchanged: 0/0
  9741 ;; Data sizes:     COMRAM   BANK0   BANK1   BANK2   BANK3   BANK4   BANK5   BANK6   BANK7   BANK8   BANK9  BANK10  BANK1
      +1  BANK12  BANK13  BANK14  BANK15
  9742 ;;      Params:         4       0       0       0       0       0       0       0       0       0       0       0       
      +0       0       0       0       0
  9743 ;;      Locals:         4       0       0       0       0       0       0       0       0       0       0       0       
      +0       0       0       0       0
  9744 ;;      Temps:          0       0       0       0       0       0       0       0       0       0       0       0       
      +0       0       0       0       0
  9745 ;;      Totals:         8       0       0       0       0       0       0       0       0       0       0       0       
      +0       0       0       0       0
  9746 ;;Total ram usage:        8 bytes
  9747 ;; Hardware stack levels used:    1
  9748 ;; Hardware stack levels required when called:    3
  9749 ;; This function calls:
  9750 ;;		Nothing
  9751 ;; This function is called by:
  9752 ;;		_powf
  9753 ;; This function uses a non-reentrant model
  9754 ;;
  9755                           
  9756                           	psect	text28
  9757  006468                     __ptext28:
  9758                           	opt callstack 0
  9759  006468                     _fabsf:
  9760                           	opt callstack 23
  9761  006468  C0AF  F00D         	movff	fabsf@F463,fabsf@u
  9762  00646C  C0B0  F00E         	movff	fabsf@F463+1,fabsf@u+1
  9763  006470  C0B1  F00F         	movff	fabsf@F463+2,fabsf@u+2
  9764  006474  C0B2  F010         	movff	fabsf@F463+3,fabsf@u+3
  9765  006478  C009  F00D         	movff	fabsf@x,fabsf@u
  9766  00647C  C00A  F00E         	movff	fabsf@x+1,fabsf@u+1
  9767  006480  C00B  F00F         	movff	fabsf@x+2,fabsf@u+2
  9768  006484  C00C  F010         	movff	fabsf@x+3,fabsf@u+3
  9769  006488  9E10               	bcf	(fabsf@u+3)^0,7,c
  9770  00648A  C00D  F009         	movff	fabsf@u,?_fabsf
  9771  00648E  C00E  F00A         	movff	fabsf@u+1,?_fabsf+1
  9772  006492  C00F  F00B         	movff	fabsf@u+2,?_fabsf+2
  9773  006496  C010  F00C         	movff	fabsf@u+3,?_fabsf+3
  9774  00649A  0012               	return		;funcret
  9775  00649C                     __end_of_fabsf:
  9776                           	opt callstack 0
  9777                           
  9778 ;; *************** function ___xxtofl *****************
  9779 ;; Defined at:
  9780 ;;		line 10 in file "C:\Program Files (x86)\Microchip\xc8\v2.10\pic\sources\c99\common\xxtofl.c"
  9781 ;; Parameters:    Size  Location     Type
  9782 ;;  sign            1    wreg     unsigned char 
  9783 ;;  val             4    8[COMRAM] long 
  9784 ;; Auto vars:     Size  Location     Type
  9785 ;;  sign            1   16[COMRAM] unsigned char 
  9786 ;;  arg             4   18[COMRAM] unsigned long 
  9787 ;;  exp             1   17[COMRAM] unsigned char 
  9788 ;; Return value:  Size  Location     Type
  9789 ;;                  4    8[COMRAM] unsigned char 
  9790 ;; Registers used:
  9791 ;;		wreg, status,2, status,0
  9792 ;; Tracked objects:
  9793 ;;		On entry : 0/0
  9794 ;;		On exit  : 0/0
  9795 ;;		Unchanged: 0/0
  9796 ;; Data sizes:     COMRAM   BANK0   BANK1   BANK2   BANK3   BANK4   BANK5   BANK6   BANK7   BANK8   BANK9  BANK10  BANK1
      +1  BANK12  BANK13  BANK14  BANK15
  9797 ;;      Params:         4       0       0       0       0       0       0       0       0       0       0       0       
      +0       0       0       0       0
  9798 ;;      Locals:         6       0       0       0       0       0       0       0       0       0       0       0       
      +0       0       0       0       0
  9799 ;;      Temps:          4       0       0       0       0       0       0       0       0       0       0       0       
      +0       0       0       0       0
  9800 ;;      Totals:        14       0       0       0       0       0       0       0       0       0       0       0       
      +0       0       0       0       0
  9801 ;;Total ram usage:       14 bytes
  9802 ;; Hardware stack levels used:    1
  9803 ;; Hardware stack levels required when called:    3
  9804 ;; This function calls:
  9805 ;;		Nothing
  9806 ;; This function is called by:
  9807 ;;		_powf
  9808 ;; This function uses a non-reentrant model
  9809 ;;
  9810                           
  9811                           	psect	text29
  9812  00510C                     __ptext29:
  9813                           	opt callstack 0
  9814  00510C                     ___xxtofl:
  9815                           	opt callstack 23
  9816                           
  9817                           ;incstack = 0
  9818                           ;___xxtofl@sign stored from wreg
  9819  00510C  6E11               	movwf	___xxtofl@sign^0,c
  9820  00510E  5011               	movf	___xxtofl@sign^0,w,c
  9821  005110  B4D8               	btfsc	status,2,c
  9822  005112  EF8D  F028         	goto	u3551
  9823  005116  EF8F  F028         	goto	u3550
  9824  00511A                     u3551:
  9825  00511A  EFB1  F028         	goto	l1426
  9826  00511E                     u3550:
  9827  00511E  BE0C               	btfsc	(___xxtofl@val+3)^0,7,c
  9828  005120  EF96  F028         	goto	u3560
  9829  005124  EF94  F028         	goto	u3561
  9830  005128                     u3561:
  9831  005128  EFB1  F028         	goto	l1426
  9832  00512C                     u3560:
  9833  00512C  C009  F00D         	movff	___xxtofl@val,??___xxtofl
  9834  005130  C00A  F00E         	movff	___xxtofl@val+1,??___xxtofl+1
  9835  005134  C00B  F00F         	movff	___xxtofl@val+2,??___xxtofl+2
  9836  005138  C00C  F010         	movff	___xxtofl@val+3,??___xxtofl+3
  9837  00513C  1E0D               	comf	??___xxtofl^0,f,c
  9838  00513E  1E0E               	comf	(??___xxtofl+1)^0,f,c
  9839  005140  1E0F               	comf	(??___xxtofl+2)^0,f,c
  9840  005142  1E10               	comf	(??___xxtofl+3)^0,f,c
  9841  005144  2A0D               	incf	??___xxtofl^0,f,c
  9842  005146  0E00               	movlw	0
  9843  005148  220E               	addwfc	(??___xxtofl+1)^0,f,c
  9844  00514A  220F               	addwfc	(??___xxtofl+2)^0,f,c
  9845  00514C  2210               	addwfc	(??___xxtofl+3)^0,f,c
  9846  00514E  C00D  F013         	movff	??___xxtofl,___xxtofl@arg
  9847  005152  C00E  F014         	movff	??___xxtofl+1,___xxtofl@arg+1
  9848  005156  C00F  F015         	movff	??___xxtofl+2,___xxtofl@arg+2
  9849  00515A  C010  F016         	movff	??___xxtofl+3,___xxtofl@arg+3
  9850  00515E  EFB9  F028         	goto	l4325
  9851  005162                     l1426:
  9852  005162  C009  F013         	movff	___xxtofl@val,___xxtofl@arg
  9853  005166  C00A  F014         	movff	___xxtofl@val+1,___xxtofl@arg+1
  9854  00516A  C00B  F015         	movff	___xxtofl@val+2,___xxtofl@arg+2
  9855  00516E  C00C  F016         	movff	___xxtofl@val+3,___xxtofl@arg+3
  9856  005172                     l4325:
  9857  005172  5009               	movf	___xxtofl@val^0,w,c
  9858  005174  100A               	iorwf	(___xxtofl@val+1)^0,w,c
  9859  005176  100B               	iorwf	(___xxtofl@val+2)^0,w,c
  9860  005178  100C               	iorwf	(___xxtofl@val+3)^0,w,c
  9861  00517A  A4D8               	btfss	status,2,c
  9862  00517C  EFC2  F028         	goto	u3571
  9863  005180  EFC4  F028         	goto	u3570
  9864  005184                     u3571:
  9865  005184  EFCE  F028         	goto	l4331
  9866  005188                     u3570:
  9867  005188  0E00               	movlw	0
  9868  00518A  6E09               	movwf	?___xxtofl^0,c
  9869  00518C  0E00               	movlw	0
  9870  00518E  6E0A               	movwf	(?___xxtofl+1)^0,c
  9871  005190  0E00               	movlw	0
  9872  005192  6E0B               	movwf	(?___xxtofl+2)^0,c
  9873  005194  0E00               	movlw	0
  9874  005196  6E0C               	movwf	(?___xxtofl+3)^0,c
  9875  005198  EF5F  F029         	goto	l1429
  9876  00519C                     l4331:
  9877  00519C  0E96               	movlw	150
  9878  00519E  6E12               	movwf	___xxtofl@exp^0,c
  9879  0051A0  EFD8  F028         	goto	l4335
  9880  0051A4                     l4333:
  9881  0051A4  2A12               	incf	___xxtofl@exp^0,f,c
  9882  0051A6  90D8               	bcf	status,0,c
  9883  0051A8  3216               	rrcf	(___xxtofl@arg+3)^0,f,c
  9884  0051AA  3215               	rrcf	(___xxtofl@arg+2)^0,f,c
  9885  0051AC  3214               	rrcf	(___xxtofl@arg+1)^0,f,c
  9886  0051AE  3213               	rrcf	___xxtofl@arg^0,f,c
  9887  0051B0                     l4335:
  9888  0051B0  0E00               	movlw	0
  9889  0051B2  1413               	andwf	___xxtofl@arg^0,w,c
  9890  0051B4  6E0D               	movwf	??___xxtofl^0,c
  9891  0051B6  0E00               	movlw	0
  9892  0051B8  1414               	andwf	(___xxtofl@arg+1)^0,w,c
  9893  0051BA  6E0E               	movwf	(??___xxtofl+1)^0,c
  9894  0051BC  0E00               	movlw	0
  9895  0051BE  1415               	andwf	(___xxtofl@arg+2)^0,w,c
  9896  0051C0  6E0F               	movwf	(??___xxtofl+2)^0,c
  9897  0051C2  0EFE               	movlw	254
  9898  0051C4  1416               	andwf	(___xxtofl@arg+3)^0,w,c
  9899  0051C6  6E10               	movwf	(??___xxtofl+3)^0,c
  9900  0051C8  500D               	movf	??___xxtofl^0,w,c
  9901  0051CA  100E               	iorwf	(??___xxtofl+1)^0,w,c
  9902  0051CC  100F               	iorwf	(??___xxtofl+2)^0,w,c
  9903  0051CE  1010               	iorwf	(??___xxtofl+3)^0,w,c
  9904  0051D0  A4D8               	btfss	status,2,c
  9905  0051D2  EFED  F028         	goto	u3581
  9906  0051D6  EFEF  F028         	goto	u3580
  9907  0051DA                     u3581:
  9908  0051DA  EFD2  F028         	goto	l4333
  9909  0051DE                     u3580:
  9910  0051DE  EFFD  F028         	goto	l1433
  9911  0051E2                     l4337:
  9912  0051E2  2A12               	incf	___xxtofl@exp^0,f,c
  9913  0051E4  0E01               	movlw	1
  9914  0051E6  2613               	addwf	___xxtofl@arg^0,f,c
  9915  0051E8  0E00               	movlw	0
  9916  0051EA  2214               	addwfc	(___xxtofl@arg+1)^0,f,c
  9917  0051EC  2215               	addwfc	(___xxtofl@arg+2)^0,f,c
  9918  0051EE  2216               	addwfc	(___xxtofl@arg+3)^0,f,c
  9919  0051F0  90D8               	bcf	status,0,c
  9920  0051F2  3216               	rrcf	(___xxtofl@arg+3)^0,f,c
  9921  0051F4  3215               	rrcf	(___xxtofl@arg+2)^0,f,c
  9922  0051F6  3214               	rrcf	(___xxtofl@arg+1)^0,f,c
  9923  0051F8  3213               	rrcf	___xxtofl@arg^0,f,c
  9924  0051FA                     l1433:
  9925  0051FA  0E00               	movlw	0
  9926  0051FC  1413               	andwf	___xxtofl@arg^0,w,c
  9927  0051FE  6E0D               	movwf	??___xxtofl^0,c
  9928  005200  0E00               	movlw	0
  9929  005202  1414               	andwf	(___xxtofl@arg+1)^0,w,c
  9930  005204  6E0E               	movwf	(??___xxtofl+1)^0,c
  9931  005206  0E00               	movlw	0
  9932  005208  1415               	andwf	(___xxtofl@arg+2)^0,w,c
  9933  00520A  6E0F               	movwf	(??___xxtofl+2)^0,c
  9934  00520C  0EFF               	movlw	255
  9935  00520E  1416               	andwf	(___xxtofl@arg+3)^0,w,c
  9936  005210  6E10               	movwf	(??___xxtofl+3)^0,c
  9937  005212  500D               	movf	??___xxtofl^0,w,c
  9938  005214  100E               	iorwf	(??___xxtofl+1)^0,w,c
  9939  005216  100F               	iorwf	(??___xxtofl+2)^0,w,c
  9940  005218  1010               	iorwf	(??___xxtofl+3)^0,w,c
  9941  00521A  A4D8               	btfss	status,2,c
  9942  00521C  EF12  F029         	goto	u3591
  9943  005220  EF14  F029         	goto	u3590
  9944  005224                     u3591:
  9945  005224  EFF1  F028         	goto	l4337
  9946  005228                     u3590:
  9947  005228  EF1C  F029         	goto	l4345
  9948  00522C                     l4343:
  9949  00522C  0612               	decf	___xxtofl@exp^0,f,c
  9950  00522E  90D8               	bcf	status,0,c
  9951  005230  3613               	rlcf	___xxtofl@arg^0,f,c
  9952  005232  3614               	rlcf	(___xxtofl@arg+1)^0,f,c
  9953  005234  3615               	rlcf	(___xxtofl@arg+2)^0,f,c
  9954  005236  3616               	rlcf	(___xxtofl@arg+3)^0,f,c
  9955  005238                     l4345:
  9956  005238  BE15               	btfsc	(___xxtofl@arg+2)^0,7,c
  9957  00523A  EF21  F029         	goto	u3601
  9958  00523E  EF23  F029         	goto	u3600
  9959  005242                     u3601:
  9960  005242  EF2B  F029         	goto	l1440
  9961  005246                     u3600:
  9962  005246  0E02               	movlw	2
  9963  005248  6012               	cpfslt	___xxtofl@exp^0,c
  9964  00524A  EF29  F029         	goto	u3611
  9965  00524E  EF2B  F029         	goto	u3610
  9966  005252                     u3611:
  9967  005252  EF16  F029         	goto	l4343
  9968  005256                     u3610:
  9969  005256                     l1440:
  9970  005256  B012               	btfsc	___xxtofl@exp^0,0,c
  9971  005258  EF30  F029         	goto	u3621
  9972  00525C  EF32  F029         	goto	u3620
  9973  005260                     u3621:
  9974  005260  EF33  F029         	goto	l4351
  9975  005264                     u3620:
  9976  005264  9E15               	bcf	(___xxtofl@arg+2)^0,7,c
  9977  005266                     l4351:
  9978  005266  90D8               	bcf	status,0,c
  9979  005268  3212               	rrcf	___xxtofl@exp^0,f,c
  9980  00526A  C012  F00D         	movff	___xxtofl@exp,??___xxtofl
  9981  00526E  6A0E               	clrf	(??___xxtofl+1)^0,c
  9982  005270  6A0F               	clrf	(??___xxtofl+2)^0,c
  9983  005272  6A10               	clrf	(??___xxtofl+3)^0,c
  9984  005274  C00D  F010         	movff	??___xxtofl,??___xxtofl+3
  9985  005278  6A0F               	clrf	(??___xxtofl+2)^0,c
  9986  00527A  6A0E               	clrf	(??___xxtofl+1)^0,c
  9987  00527C  6A0D               	clrf	??___xxtofl^0,c
  9988  00527E  500D               	movf	??___xxtofl^0,w,c
  9989  005280  1213               	iorwf	___xxtofl@arg^0,f,c
  9990  005282  500E               	movf	(??___xxtofl+1)^0,w,c
  9991  005284  1214               	iorwf	(___xxtofl@arg+1)^0,f,c
  9992  005286  500F               	movf	(??___xxtofl+2)^0,w,c
  9993  005288  1215               	iorwf	(___xxtofl@arg+2)^0,f,c
  9994  00528A  5010               	movf	(??___xxtofl+3)^0,w,c
  9995  00528C  1216               	iorwf	(___xxtofl@arg+3)^0,f,c
  9996  00528E  5011               	movf	___xxtofl@sign^0,w,c
  9997  005290  B4D8               	btfsc	status,2,c
  9998  005292  EF4D  F029         	goto	u3631
  9999  005296  EF4F  F029         	goto	u3630
 10000  00529A                     u3631:
 10001  00529A  EF57  F029         	goto	l4361
 10002  00529E                     u3630:
 10003  00529E  BE0C               	btfsc	(___xxtofl@val+3)^0,7,c
 10004  0052A0  EF56  F029         	goto	u3640
 10005  0052A4  EF54  F029         	goto	u3641
 10006  0052A8                     u3641:
 10007  0052A8  EF57  F029         	goto	l4361
 10008  0052AC                     u3640:
 10009  0052AC  8E16               	bsf	(___xxtofl@arg+3)^0,7,c
 10010  0052AE                     l4361:
 10011  0052AE  C013  F009         	movff	___xxtofl@arg,?___xxtofl
 10012  0052B2  C014  F00A         	movff	___xxtofl@arg+1,?___xxtofl+1
 10013  0052B6  C015  F00B         	movff	___xxtofl@arg+2,?___xxtofl+2
 10014  0052BA  C016  F00C         	movff	___xxtofl@arg+3,?___xxtofl+3
 10015  0052BE                     l1429:
 10016  0052BE  0012               	return		;funcret
 10017  0052C0                     __end_of___xxtofl:
 10018                           	opt callstack 0
 10019                           
 10020 ;; *************** function ___flsub *****************
 10021 ;; Defined at:
 10022 ;;		line 245 in file "C:\Program Files (x86)\Microchip\xc8\v2.10\pic\sources\c99\common\sprcadd.c"
 10023 ;; Parameters:    Size  Location     Type
 10024 ;;  b               4   49[COMRAM] unsigned char 
 10025 ;;  a               4   53[COMRAM] unsigned char 
 10026 ;; Auto vars:     Size  Location     Type
 10027 ;;		None
 10028 ;; Return value:  Size  Location     Type
 10029 ;;                  4   49[COMRAM] unsigned char 
 10030 ;; Registers used:
 10031 ;;		wreg, status,2, status,0, cstack
 10032 ;; Tracked objects:
 10033 ;;		On entry : 0/0
 10034 ;;		On exit  : 0/0
 10035 ;;		Unchanged: 0/0
 10036 ;; Data sizes:     COMRAM   BANK0   BANK1   BANK2   BANK3   BANK4   BANK5   BANK6   BANK7   BANK8   BANK9  BANK10  BANK1
      +1  BANK12  BANK13  BANK14  BANK15
 10037 ;;      Params:         8       0       0       0       0       0       0       0       0       0       0       0       
      +0       0       0       0       0
 10038 ;;      Locals:         0       0       0       0       0       0       0       0       0       0       0       0       
      +0       0       0       0       0
 10039 ;;      Temps:          0       0       0       0       0       0       0       0       0       0       0       0       
      +0       0       0       0       0
 10040 ;;      Totals:         8       0       0       0       0       0       0       0       0       0       0       0       
      +0       0       0       0       0
 10041 ;;Total ram usage:        8 bytes
 10042 ;; Hardware stack levels used:    1
 10043 ;; Hardware stack levels required when called:    4
 10044 ;; This function calls:
 10045 ;;		___fladd
 10046 ;; This function is called by:
 10047 ;;		_powf
 10048 ;; This function uses a non-reentrant model
 10049 ;;
 10050                           
 10051                           	psect	text30
 10052  0062F2                     __ptext30:
 10053                           	opt callstack 0
 10054  0062F2                     ___flsub:
 10055                           	opt callstack 22
 10056  0062F2  0E00               	movlw	0
 10057  0062F4  1A36               	xorwf	___flsub@a^0,f,c
 10058  0062F6  0E00               	movlw	0
 10059  0062F8  1A37               	xorwf	(___flsub@a+1)^0,f,c
 10060  0062FA  0E00               	movlw	0
 10061  0062FC  1A38               	xorwf	(___flsub@a+2)^0,f,c
 10062  0062FE  0E80               	movlw	128
 10063  006300  1A39               	xorwf	(___flsub@a+3)^0,f,c
 10064  006302  C032  F009         	movff	___flsub@b,___fladd@b
 10065  006306  C033  F00A         	movff	___flsub@b+1,___fladd@b+1
 10066  00630A  C034  F00B         	movff	___flsub@b+2,___fladd@b+2
 10067  00630E  C035  F00C         	movff	___flsub@b+3,___fladd@b+3
 10068  006312  C036  F00D         	movff	___flsub@a,___fladd@a
 10069  006316  C037  F00E         	movff	___flsub@a+1,___fladd@a+1
 10070  00631A  C038  F00F         	movff	___flsub@a+2,___fladd@a+2
 10071  00631E  C039  F010         	movff	___flsub@a+3,___fladd@a+3
 10072  006322  ECE7  F01F         	call	___fladd	;wreg free
 10073  006326  C009  F032         	movff	?___fladd,?___flsub
 10074  00632A  C00A  F033         	movff	?___fladd+1,?___flsub+1
 10075  00632E  C00B  F034         	movff	?___fladd+2,?___flsub+2
 10076  006332  C00C  F035         	movff	?___fladd+3,?___flsub+3
 10077  006336  0012               	return		;funcret
 10078  006338                     __end_of___flsub:
 10079                           	opt callstack 0
 10080                           
 10081 ;; *************** function ___fladd *****************
 10082 ;; Defined at:
 10083 ;;		line 10 in file "C:\Program Files (x86)\Microchip\xc8\v2.10\pic\sources\c99\common\sprcadd.c"
 10084 ;; Parameters:    Size  Location     Type
 10085 ;;  b               4    8[COMRAM] unsigned char 
 10086 ;;  a               4   12[COMRAM] unsigned char 
 10087 ;; Auto vars:     Size  Location     Type
 10088 ;;  grs             1   23[COMRAM] unsigned char 
 10089 ;;  bexp            1   22[COMRAM] unsigned char 
 10090 ;;  aexp            1   21[COMRAM] unsigned char 
 10091 ;;  signs           1   20[COMRAM] unsigned char 
 10092 ;; Return value:  Size  Location     Type
 10093 ;;                  4    8[COMRAM] unsigned char 
 10094 ;; Registers used:
 10095 ;;		wreg, status,2, status,0
 10096 ;; Tracked objects:
 10097 ;;		On entry : 0/0
 10098 ;;		On exit  : 0/0
 10099 ;;		Unchanged: 0/0
 10100 ;; Data sizes:     COMRAM   BANK0   BANK1   BANK2   BANK3   BANK4   BANK5   BANK6   BANK7   BANK8   BANK9  BANK10  BANK1
      +1  BANK12  BANK13  BANK14  BANK15
 10101 ;;      Params:         8       0       0       0       0       0       0       0       0       0       0       0       
      +0       0       0       0       0
 10102 ;;      Locals:         4       0       0       0       0       0       0       0       0       0       0       0       
      +0       0       0       0       0
 10103 ;;      Temps:          4       0       0       0       0       0       0       0       0       0       0       0       
      +0       0       0       0       0
 10104 ;;      Totals:        16       0       0       0       0       0       0       0       0       0       0       0       
      +0       0       0       0       0
 10105 ;;Total ram usage:       16 bytes
 10106 ;; Hardware stack levels used:    1
 10107 ;; Hardware stack levels required when called:    3
 10108 ;; This function calls:
 10109 ;;		Nothing
 10110 ;; This function is called by:
 10111 ;;		___flsub
 10112 ;;		_powf
 10113 ;;		_sqrtf
 10114 ;; This function uses a non-reentrant model
 10115 ;;
 10116                           
 10117                           	psect	text31
 10118  003FCE                     __ptext31:
 10119                           	opt callstack 0
 10120  003FCE                     ___fladd:
 10121                           	opt callstack 22
 10122  003FCE  500C               	movf	(___fladd@b+3)^0,w,c
 10123  003FD0  0B80               	andlw	128
 10124  003FD2  6E15               	movwf	___fladd@signs^0,c
 10125  003FD4  500C               	movf	(___fladd@b+3)^0,w,c
 10126  003FD6  240C               	addwf	(___fladd@b+3)^0,w,c
 10127  003FD8  6E17               	movwf	___fladd@bexp^0,c
 10128  003FDA  AE0B               	btfss	(___fladd@b+2)^0,7,c
 10129  003FDC  EFF2  F01F         	goto	u2681
 10130  003FE0  EFF4  F01F         	goto	u2680
 10131  003FE4                     u2681:
 10132  003FE4  EFF5  F01F         	goto	l3781
 10133  003FE8                     u2680:
 10134  003FE8  8017               	bsf	___fladd@bexp^0,0,c
 10135  003FEA                     l3781:
 10136  003FEA  5017               	movf	___fladd@bexp^0,w,c
 10137  003FEC  B4D8               	btfsc	status,2,c
 10138  003FEE  EFFB  F01F         	goto	u2691
 10139  003FF2  EFFD  F01F         	goto	u2690
 10140  003FF6                     u2691:
 10141  003FF6  EF12  F020         	goto	l3791
 10142  003FFA                     u2690:
 10143  003FFA  2817               	incf	___fladd@bexp^0,w,c
 10144  003FFC  A4D8               	btfss	status,2,c
 10145  003FFE  EF03  F020         	goto	u2701
 10146  004002  EF05  F020         	goto	u2700
 10147  004006                     u2701:
 10148  004006  EF0D  F020         	goto	l3787
 10149  00400A                     u2700:
 10150  00400A  0E00               	movlw	0
 10151  00400C  6E09               	movwf	___fladd@b^0,c
 10152  00400E  0E00               	movlw	0
 10153  004010  6E0A               	movwf	(___fladd@b+1)^0,c
 10154  004012  0E00               	movlw	0
 10155  004014  6E0B               	movwf	(___fladd@b+2)^0,c
 10156  004016  0E00               	movlw	0
 10157  004018  6E0C               	movwf	(___fladd@b+3)^0,c
 10158  00401A                     l3787:
 10159  00401A  8E0B               	bsf	(___fladd@b+2)^0,7,c
 10160  00401C  0E00               	movlw	0
 10161  00401E  6E0C               	movwf	(___fladd@b+3)^0,c
 10162  004020  EF1A  F020         	goto	l3793
 10163  004024                     l3791:
 10164  004024  0E00               	movlw	0
 10165  004026  6E09               	movwf	___fladd@b^0,c
 10166  004028  0E00               	movlw	0
 10167  00402A  6E0A               	movwf	(___fladd@b+1)^0,c
 10168  00402C  0E00               	movlw	0
 10169  00402E  6E0B               	movwf	(___fladd@b+2)^0,c
 10170  004030  0E00               	movlw	0
 10171  004032  6E0C               	movwf	(___fladd@b+3)^0,c
 10172  004034                     l3793:
 10173  004034  5010               	movf	(___fladd@a+3)^0,w,c
 10174  004036  0B80               	andlw	128
 10175  004038  6E16               	movwf	___fladd@aexp^0,c
 10176  00403A  5015               	movf	___fladd@signs^0,w,c
 10177  00403C  1816               	xorwf	___fladd@aexp^0,w,c
 10178  00403E  B4D8               	btfsc	status,2,c
 10179  004040  EF24  F020         	goto	u2711
 10180  004044  EF26  F020         	goto	u2710
 10181  004048                     u2711:
 10182  004048  EF27  F020         	goto	l3799
 10183  00404C                     u2710:
 10184  00404C  8C15               	bsf	___fladd@signs^0,6,c
 10185  00404E                     l3799:
 10186  00404E  5010               	movf	(___fladd@a+3)^0,w,c
 10187  004050  2410               	addwf	(___fladd@a+3)^0,w,c
 10188  004052  6E16               	movwf	___fladd@aexp^0,c
 10189  004054  AE0F               	btfss	(___fladd@a+2)^0,7,c
 10190  004056  EF2F  F020         	goto	u2721
 10191  00405A  EF31  F020         	goto	u2720
 10192  00405E                     u2721:
 10193  00405E  EF32  F020         	goto	l3805
 10194  004062                     u2720:
 10195  004062  8016               	bsf	___fladd@aexp^0,0,c
 10196  004064                     l3805:
 10197  004064  5016               	movf	___fladd@aexp^0,w,c
 10198  004066  B4D8               	btfsc	status,2,c
 10199  004068  EF38  F020         	goto	u2731
 10200  00406C  EF3A  F020         	goto	u2730
 10201  004070                     u2731:
 10202  004070  EF4F  F020         	goto	l3815
 10203  004074                     u2730:
 10204  004074  2816               	incf	___fladd@aexp^0,w,c
 10205  004076  A4D8               	btfss	status,2,c
 10206  004078  EF40  F020         	goto	u2741
 10207  00407C  EF42  F020         	goto	u2740
 10208  004080                     u2741:
 10209  004080  EF4A  F020         	goto	l3811
 10210  004084                     u2740:
 10211  004084  0E00               	movlw	0
 10212  004086  6E0D               	movwf	___fladd@a^0,c
 10213  004088  0E00               	movlw	0
 10214  00408A  6E0E               	movwf	(___fladd@a+1)^0,c
 10215  00408C  0E00               	movlw	0
 10216  00408E  6E0F               	movwf	(___fladd@a+2)^0,c
 10217  004090  0E00               	movlw	0
 10218  004092  6E10               	movwf	(___fladd@a+3)^0,c
 10219  004094                     l3811:
 10220  004094  8E0F               	bsf	(___fladd@a+2)^0,7,c
 10221  004096  0E00               	movlw	0
 10222  004098  6E10               	movwf	(___fladd@a+3)^0,c
 10223  00409A  EF57  F020         	goto	l3817
 10224  00409E                     l3815:
 10225  00409E  0E00               	movlw	0
 10226  0040A0  6E0D               	movwf	___fladd@a^0,c
 10227  0040A2  0E00               	movlw	0
 10228  0040A4  6E0E               	movwf	(___fladd@a+1)^0,c
 10229  0040A6  0E00               	movlw	0
 10230  0040A8  6E0F               	movwf	(___fladd@a+2)^0,c
 10231  0040AA  0E00               	movlw	0
 10232  0040AC  6E10               	movwf	(___fladd@a+3)^0,c
 10233  0040AE                     l3817:
 10234  0040AE  5017               	movf	___fladd@bexp^0,w,c
 10235  0040B0  5C16               	subwf	___fladd@aexp^0,w,c
 10236  0040B2  B0D8               	btfsc	status,0,c
 10237  0040B4  EF5E  F020         	goto	u2751
 10238  0040B8  EF60  F020         	goto	u2750
 10239  0040BC                     u2751:
 10240  0040BC  EF87  F020         	goto	l3853
 10241  0040C0                     u2750:
 10242  0040C0  AC15               	btfss	___fladd@signs^0,6,c
 10243  0040C2  EF65  F020         	goto	u2761
 10244  0040C6  EF67  F020         	goto	u2760
 10245  0040CA                     u2761:
 10246  0040CA  EF69  F020         	goto	l3823
 10247  0040CE                     u2760:
 10248  0040CE  0E80               	movlw	128
 10249  0040D0  1A15               	xorwf	___fladd@signs^0,f,c
 10250  0040D2                     l3823:
 10251  0040D2  C017  F018         	movff	___fladd@bexp,___fladd@grs
 10252  0040D6  C016  F017         	movff	___fladd@aexp,___fladd@bexp
 10253  0040DA  C018  F016         	movff	___fladd@grs,___fladd@aexp
 10254  0040DE  C009  F018         	movff	___fladd@b,___fladd@grs
 10255  0040E2  C00D  F009         	movff	___fladd@a,___fladd@b
 10256  0040E6  C018  F00D         	movff	___fladd@grs,___fladd@a
 10257  0040EA  C00A  F018         	movff	___fladd@b+1,___fladd@grs
 10258  0040EE  C00E  F00A         	movff	___fladd@a+1,___fladd@b+1
 10259  0040F2  C018  F00E         	movff	___fladd@grs,___fladd@a+1
 10260  0040F6  C00B  F018         	movff	___fladd@b+2,___fladd@grs
 10261  0040FA  C00F  F00B         	movff	___fladd@a+2,___fladd@b+2
 10262  0040FE  C018  F00F         	movff	___fladd@grs,___fladd@a+2
 10263  004102  C00C  F018         	movff	___fladd@b+3,___fladd@grs
 10264  004106  C010  F00C         	movff	___fladd@a+3,___fladd@b+3
 10265  00410A  C018  F010         	movff	___fladd@grs,___fladd@a+3
 10266  00410E                     l3853:
 10267  00410E  0E00               	movlw	0
 10268  004110  6E18               	movwf	___fladd@grs^0,c
 10269  004112  5017               	movf	___fladd@bexp^0,w,c
 10270  004114  C016  F011         	movff	___fladd@aexp,??___fladd
 10271  004118  6A12               	clrf	(??___fladd+1)^0,c
 10272  00411A  5E11               	subwf	??___fladd^0,f,c
 10273  00411C  0E00               	movlw	0
 10274  00411E  5A12               	subwfb	(??___fladd+1)^0,f,c
 10275  004120  BE12               	btfsc	(??___fladd+1)^0,7,c
 10276  004122  EF9C  F020         	goto	u2771
 10277  004126  5012               	movf	(??___fladd+1)^0,w,c
 10278  004128  E109               	bnz	u2770
 10279  00412A  0E1A               	movlw	26
 10280  00412C  5C11               	subwf	??___fladd^0,w,c
 10281  00412E  A0D8               	btfss	status,0,c
 10282  004130  EF9C  F020         	goto	u2771
 10283  004134  EF9E  F020         	goto	u2770
 10284  004138                     u2771:
 10285  004138  EFD5  F020         	goto	l1300
 10286  00413C                     u2770:
 10287  00413C  5009               	movf	___fladd@b^0,w,c
 10288  00413E  100A               	iorwf	(___fladd@b+1)^0,w,c
 10289  004140  100B               	iorwf	(___fladd@b+2)^0,w,c
 10290  004142  100C               	iorwf	(___fladd@b+3)^0,w,c
 10291  004144  A4D8               	btfss	status,2,c
 10292  004146  EFA7  F020         	goto	u2781
 10293  00414A  EFAA  F020         	goto	u2780
 10294  00414E                     u2781:
 10295  00414E  0E01               	movlw	1
 10296  004150  EFAB  F020         	goto	u2790
 10297  004154                     u2780:
 10298  004154  0E00               	movlw	0
 10299  004156                     u2790:
 10300  004156  6E18               	movwf	___fladd@grs^0,c
 10301  004158  0E00               	movlw	0
 10302  00415A  6E09               	movwf	___fladd@b^0,c
 10303  00415C  0E00               	movlw	0
 10304  00415E  6E0A               	movwf	(___fladd@b+1)^0,c
 10305  004160  0E00               	movlw	0
 10306  004162  6E0B               	movwf	(___fladd@b+2)^0,c
 10307  004164  0E00               	movlw	0
 10308  004166  6E0C               	movwf	(___fladd@b+3)^0,c
 10309  004168  C016  F017         	movff	___fladd@aexp,___fladd@bexp
 10310  00416C  EFDE  F020         	goto	l1299
 10311  004170                     l1301:
 10312  004170  A018               	btfss	___fladd@grs^0,0,c
 10313  004172  EFBD  F020         	goto	u2801
 10314  004176  EFBF  F020         	goto	u2800
 10315  00417A                     u2801:
 10316  00417A  EFC5  F020         	goto	l3865
 10317  00417E                     u2800:
 10318  00417E  90D8               	bcf	status,0,c
 10319  004180  3018               	rrcf	___fladd@grs^0,w,c
 10320  004182  0901               	iorlw	1
 10321  004184  6E18               	movwf	___fladd@grs^0,c
 10322  004186  EFC7  F020         	goto	l3867
 10323  00418A                     l3865:
 10324  00418A  90D8               	bcf	status,0,c
 10325  00418C  3218               	rrcf	___fladd@grs^0,f,c
 10326  00418E                     l3867:
 10327  00418E  A009               	btfss	___fladd@b^0,0,c
 10328  004190  EFCC  F020         	goto	u2811
 10329  004194  EFCE  F020         	goto	u2810
 10330  004198                     u2811:
 10331  004198  EFCF  F020         	goto	l3871
 10332  00419C                     u2810:
 10333  00419C  8E18               	bsf	___fladd@grs^0,7,c
 10334  00419E                     l3871:
 10335  00419E  340C               	rlcf	(___fladd@b+3)^0,w,c
 10336  0041A0  320C               	rrcf	(___fladd@b+3)^0,f,c
 10337  0041A2  320B               	rrcf	(___fladd@b+2)^0,f,c
 10338  0041A4  320A               	rrcf	(___fladd@b+1)^0,f,c
 10339  0041A6  3209               	rrcf	___fladd@b^0,f,c
 10340  0041A8  2A17               	incf	___fladd@bexp^0,f,c
 10341  0041AA                     l1300:
 10342  0041AA  5016               	movf	___fladd@aexp^0,w,c
 10343  0041AC  5C17               	subwf	___fladd@bexp^0,w,c
 10344  0041AE  A0D8               	btfss	status,0,c
 10345  0041B0  EFDC  F020         	goto	u2821
 10346  0041B4  EFDE  F020         	goto	u2820
 10347  0041B8                     u2821:
 10348  0041B8  EFB8  F020         	goto	l1301
 10349  0041BC                     u2820:
 10350  0041BC                     l1299:
 10351  0041BC  BC15               	btfsc	___fladd@signs^0,6,c
 10352  0041BE  EFE3  F020         	goto	u2831
 10353  0041C2  EFE5  F020         	goto	u2830
 10354  0041C6                     u2831:
 10355  0041C6  EF25  F021         	goto	l3899
 10356  0041CA                     u2830:
 10357  0041CA  5017               	movf	___fladd@bexp^0,w,c
 10358  0041CC  A4D8               	btfss	status,2,c
 10359  0041CE  EFEB  F020         	goto	u2841
 10360  0041D2  EFED  F020         	goto	u2840
 10361  0041D6                     u2841:
 10362  0041D6  EFF7  F020         	goto	l3881
 10363  0041DA                     u2840:
 10364  0041DA  0E00               	movlw	0
 10365  0041DC  6E09               	movwf	?___fladd^0,c
 10366  0041DE  0E00               	movlw	0
 10367  0041E0  6E0A               	movwf	(?___fladd+1)^0,c
 10368  0041E2  0E00               	movlw	0
 10369  0041E4  6E0B               	movwf	(?___fladd+2)^0,c
 10370  0041E6  0E00               	movlw	0
 10371  0041E8  6E0C               	movwf	(?___fladd+3)^0,c
 10372  0041EA  EF46  F022         	goto	l1308
 10373  0041EE                     l3881:
 10374  0041EE  500D               	movf	___fladd@a^0,w,c
 10375  0041F0  2609               	addwf	___fladd@b^0,f,c
 10376  0041F2  500E               	movf	(___fladd@a+1)^0,w,c
 10377  0041F4  220A               	addwfc	(___fladd@b+1)^0,f,c
 10378  0041F6  500F               	movf	(___fladd@a+2)^0,w,c
 10379  0041F8  220B               	addwfc	(___fladd@b+2)^0,f,c
 10380  0041FA  5010               	movf	(___fladd@a+3)^0,w,c
 10381  0041FC  220C               	addwfc	(___fladd@b+3)^0,f,c
 10382  0041FE  A00C               	btfss	(___fladd@b+3)^0,0,c
 10383  004200  EF04  F021         	goto	u2851
 10384  004204  EF06  F021         	goto	u2850
 10385  004208                     u2851:
 10386  004208  EFB2  F021         	goto	l3935
 10387  00420C                     u2850:
 10388  00420C  A018               	btfss	___fladd@grs^0,0,c
 10389  00420E  EF0B  F021         	goto	u2861
 10390  004212  EF0D  F021         	goto	u2860
 10391  004216                     u2861:
 10392  004216  EF13  F021         	goto	l3889
 10393  00421A                     u2860:
 10394  00421A  90D8               	bcf	status,0,c
 10395  00421C  3018               	rrcf	___fladd@grs^0,w,c
 10396  00421E  0901               	iorlw	1
 10397  004220  6E18               	movwf	___fladd@grs^0,c
 10398  004222  EF15  F021         	goto	l3891
 10399  004226                     l3889:
 10400  004226  90D8               	bcf	status,0,c
 10401  004228  3218               	rrcf	___fladd@grs^0,f,c
 10402  00422A                     l3891:
 10403  00422A  A009               	btfss	___fladd@b^0,0,c
 10404  00422C  EF1A  F021         	goto	u2871
 10405  004230  EF1C  F021         	goto	u2870
 10406  004234                     u2871:
 10407  004234  EF1D  F021         	goto	l3895
 10408  004238                     u2870:
 10409  004238  8E18               	bsf	___fladd@grs^0,7,c
 10410  00423A                     l3895:
 10411  00423A  340C               	rlcf	(___fladd@b+3)^0,w,c
 10412  00423C  320C               	rrcf	(___fladd@b+3)^0,f,c
 10413  00423E  320B               	rrcf	(___fladd@b+2)^0,f,c
 10414  004240  320A               	rrcf	(___fladd@b+1)^0,f,c
 10415  004242  3209               	rrcf	___fladd@b^0,f,c
 10416  004244  2A17               	incf	___fladd@bexp^0,f,c
 10417  004246  EFB2  F021         	goto	l3935
 10418  00424A                     l3899:
 10419  00424A  500D               	movf	___fladd@a^0,w,c
 10420  00424C  5C09               	subwf	___fladd@b^0,w,c
 10421  00424E  500E               	movf	(___fladd@a+1)^0,w,c
 10422  004250  580A               	subwfb	(___fladd@b+1)^0,w,c
 10423  004252  500F               	movf	(___fladd@a+2)^0,w,c
 10424  004254  580B               	subwfb	(___fladd@b+2)^0,w,c
 10425  004256  500C               	movf	(___fladd@b+3)^0,w,c
 10426  004258  0A80               	xorlw	128
 10427  00425A  6E11               	movwf	??___fladd^0,c
 10428  00425C  5010               	movf	(___fladd@a+3)^0,w,c
 10429  00425E  0A80               	xorlw	128
 10430  004260  5811               	subwfb	??___fladd^0,w,c
 10431  004262  B0D8               	btfsc	status,0,c
 10432  004264  EF36  F021         	goto	u2881
 10433  004268  EF38  F021         	goto	u2880
 10434  00426C                     u2881:
 10435  00426C  EF63  F021         	goto	l3909
 10436  004270                     u2880:
 10437  004270  5009               	movf	___fladd@b^0,w,c
 10438  004272  5C0D               	subwf	___fladd@a^0,w,c
 10439  004274  6E11               	movwf	??___fladd^0,c
 10440  004276  500A               	movf	(___fladd@b+1)^0,w,c
 10441  004278  580E               	subwfb	(___fladd@a+1)^0,w,c
 10442  00427A  6E12               	movwf	(??___fladd+1)^0,c
 10443  00427C  500B               	movf	(___fladd@b+2)^0,w,c
 10444  00427E  580F               	subwfb	(___fladd@a+2)^0,w,c
 10445  004280  6E13               	movwf	(??___fladd+2)^0,c
 10446  004282  500C               	movf	(___fladd@b+3)^0,w,c
 10447  004284  5810               	subwfb	(___fladd@a+3)^0,w,c
 10448  004286  6E14               	movwf	(??___fladd+3)^0,c
 10449  004288  0EFF               	movlw	255
 10450  00428A  2411               	addwf	??___fladd^0,w,c
 10451  00428C  6E09               	movwf	___fladd@b^0,c
 10452  00428E  0EFF               	movlw	255
 10453  004290  2012               	addwfc	(??___fladd+1)^0,w,c
 10454  004292  6E0A               	movwf	(___fladd@b+1)^0,c
 10455  004294  0EFF               	movlw	255
 10456  004296  2013               	addwfc	(??___fladd+2)^0,w,c
 10457  004298  6E0B               	movwf	(___fladd@b+2)^0,c
 10458  00429A  0EFF               	movlw	255
 10459  00429C  2014               	addwfc	(??___fladd+3)^0,w,c
 10460  00429E  6E0C               	movwf	(___fladd@b+3)^0,c
 10461  0042A0  0E80               	movlw	128
 10462  0042A2  1A15               	xorwf	___fladd@signs^0,f,c
 10463  0042A4  6C18               	negf	___fladd@grs^0,c
 10464  0042A6  5018               	movf	___fladd@grs^0,w,c
 10465  0042A8  A4D8               	btfss	status,2,c
 10466  0042AA  EF59  F021         	goto	u2891
 10467  0042AE  EF5B  F021         	goto	u2890
 10468  0042B2                     u2891:
 10469  0042B2  EF6B  F021         	goto	l1316
 10470  0042B6                     u2890:
 10471  0042B6  0E01               	movlw	1
 10472  0042B8  2609               	addwf	___fladd@b^0,f,c
 10473  0042BA  0E00               	movlw	0
 10474  0042BC  220A               	addwfc	(___fladd@b+1)^0,f,c
 10475  0042BE  220B               	addwfc	(___fladd@b+2)^0,f,c
 10476  0042C0  220C               	addwfc	(___fladd@b+3)^0,f,c
 10477  0042C2  EF6B  F021         	goto	l1316
 10478  0042C6                     l3909:
 10479  0042C6  500D               	movf	___fladd@a^0,w,c
 10480  0042C8  5E09               	subwf	___fladd@b^0,f,c
 10481  0042CA  500E               	movf	(___fladd@a+1)^0,w,c
 10482  0042CC  5A0A               	subwfb	(___fladd@b+1)^0,f,c
 10483  0042CE  500F               	movf	(___fladd@a+2)^0,w,c
 10484  0042D0  5A0B               	subwfb	(___fladd@b+2)^0,f,c
 10485  0042D2  5010               	movf	(___fladd@a+3)^0,w,c
 10486  0042D4  5A0C               	subwfb	(___fladd@b+3)^0,f,c
 10487  0042D6                     l1316:
 10488  0042D6  5009               	movf	___fladd@b^0,w,c
 10489  0042D8  100A               	iorwf	(___fladd@b+1)^0,w,c
 10490  0042DA  100B               	iorwf	(___fladd@b+2)^0,w,c
 10491  0042DC  100C               	iorwf	(___fladd@b+3)^0,w,c
 10492  0042DE  A4D8               	btfss	status,2,c
 10493  0042E0  EF74  F021         	goto	u2901
 10494  0042E4  EF76  F021         	goto	u2900
 10495  0042E8                     u2901:
 10496  0042E8  EFAB  F021         	goto	l3933
 10497  0042EC                     u2900:
 10498  0042EC  5018               	movf	___fladd@grs^0,w,c
 10499  0042EE  A4D8               	btfss	status,2,c
 10500  0042F0  EF7C  F021         	goto	u2911
 10501  0042F4  EF7E  F021         	goto	u2910
 10502  0042F8                     u2911:
 10503  0042F8  EFAB  F021         	goto	l3933
 10504  0042FC                     u2910:
 10505  0042FC  0E00               	movlw	0
 10506  0042FE  6E09               	movwf	?___fladd^0,c
 10507  004300  0E00               	movlw	0
 10508  004302  6E0A               	movwf	(?___fladd+1)^0,c
 10509  004304  0E00               	movlw	0
 10510  004306  6E0B               	movwf	(?___fladd+2)^0,c
 10511  004308  0E00               	movlw	0
 10512  00430A  6E0C               	movwf	(?___fladd+3)^0,c
 10513  00430C  EF46  F022         	goto	l1308
 10514  004310                     l3917:
 10515  004310  90D8               	bcf	status,0,c
 10516  004312  3609               	rlcf	___fladd@b^0,f,c
 10517  004314  360A               	rlcf	(___fladd@b+1)^0,f,c
 10518  004316  360B               	rlcf	(___fladd@b+2)^0,f,c
 10519  004318  360C               	rlcf	(___fladd@b+3)^0,f,c
 10520  00431A  AE18               	btfss	___fladd@grs^0,7,c
 10521  00431C  EF92  F021         	goto	u2921
 10522  004320  EF94  F021         	goto	u2920
 10523  004324                     u2921:
 10524  004324  EF95  F021         	goto	l3923
 10525  004328                     u2920:
 10526  004328  8009               	bsf	___fladd@b^0,0,c
 10527  00432A                     l3923:
 10528  00432A  A018               	btfss	___fladd@grs^0,0,c
 10529  00432C  EF9A  F021         	goto	u2931
 10530  004330  EF9C  F021         	goto	u2930
 10531  004334                     u2931:
 10532  004334  EFA0  F021         	goto	l3927
 10533  004338                     u2930:
 10534  004338  80D8               	bsf	status,0,c
 10535  00433A  3618               	rlcf	___fladd@grs^0,f,c
 10536  00433C  EFA2  F021         	goto	l3929
 10537  004340                     l3927:
 10538  004340  90D8               	bcf	status,0,c
 10539  004342  3618               	rlcf	___fladd@grs^0,f,c
 10540  004344                     l3929:
 10541  004344  5017               	movf	___fladd@bexp^0,w,c
 10542  004346  B4D8               	btfsc	status,2,c
 10543  004348  EFA8  F021         	goto	u2941
 10544  00434C  EFAA  F021         	goto	u2940
 10545  004350                     u2941:
 10546  004350  EFAB  F021         	goto	l3933
 10547  004354                     u2940:
 10548  004354  0617               	decf	___fladd@bexp^0,f,c
 10549  004356                     l3933:
 10550  004356  AE0B               	btfss	(___fladd@b+2)^0,7,c
 10551  004358  EFB0  F021         	goto	u2951
 10552  00435C  EFB2  F021         	goto	u2950
 10553  004360                     u2951:
 10554  004360  EF88  F021         	goto	l3917
 10555  004364                     u2950:
 10556  004364                     l3935:
 10557  004364  0E00               	movlw	0
 10558  004366  6E16               	movwf	___fladd@aexp^0,c
 10559  004368  AE18               	btfss	___fladd@grs^0,7,c
 10560  00436A  EFB9  F021         	goto	u2961
 10561  00436E  EFBB  F021         	goto	u2960
 10562  004372                     u2961:
 10563  004372  EFD3  F021         	goto	l1325
 10564  004376                     u2960:
 10565  004376  C018  F011         	movff	___fladd@grs,??___fladd
 10566  00437A  0E7F               	movlw	127
 10567  00437C  1611               	andwf	??___fladd^0,f,c
 10568  00437E  B4D8               	btfsc	status,2,c
 10569  004380  EFC4  F021         	goto	u2971
 10570  004384  EFC6  F021         	goto	u2970
 10571  004388                     u2971:
 10572  004388  EFCA  F021         	goto	l1326
 10573  00438C                     u2970:
 10574  00438C                     l3941:
 10575  00438C  0E01               	movlw	1
 10576  00438E  6E16               	movwf	___fladd@aexp^0,c
 10577  004390  EFD3  F021         	goto	l1325
 10578  004394                     l1326:
 10579  004394  A009               	btfss	___fladd@b^0,0,c
 10580  004396  EFCF  F021         	goto	u2981
 10581  00439A  EFD1  F021         	goto	u2980
 10582  00439E                     u2981:
 10583  00439E  EFD3  F021         	goto	l1325
 10584  0043A2                     u2980:
 10585  0043A2  EFC6  F021         	goto	l3941
 10586  0043A6                     l1325:
 10587  0043A6  5016               	movf	___fladd@aexp^0,w,c
 10588  0043A8  B4D8               	btfsc	status,2,c
 10589  0043AA  EFD9  F021         	goto	u2991
 10590  0043AE  EFDB  F021         	goto	u2990
 10591  0043B2                     u2991:
 10592  0043B2  EF06  F022         	goto	l3953
 10593  0043B6                     u2990:
 10594  0043B6  0E01               	movlw	1
 10595  0043B8  2609               	addwf	___fladd@b^0,f,c
 10596  0043BA  0E00               	movlw	0
 10597  0043BC  220A               	addwfc	(___fladd@b+1)^0,f,c
 10598  0043BE  220B               	addwfc	(___fladd@b+2)^0,f,c
 10599  0043C0  220C               	addwfc	(___fladd@b+3)^0,f,c
 10600  0043C2  A00C               	btfss	(___fladd@b+3)^0,0,c
 10601  0043C4  EFE6  F021         	goto	u3001
 10602  0043C8  EFE8  F021         	goto	u3000
 10603  0043CC                     u3001:
 10604  0043CC  EF06  F022         	goto	l3953
 10605  0043D0                     u3000:
 10606  0043D0  C009  F011         	movff	___fladd@b,??___fladd
 10607  0043D4  C00A  F012         	movff	___fladd@b+1,??___fladd+1
 10608  0043D8  C00B  F013         	movff	___fladd@b+2,??___fladd+2
 10609  0043DC  C00C  F014         	movff	___fladd@b+3,??___fladd+3
 10610  0043E0  3414               	rlcf	(??___fladd+3)^0,w,c
 10611  0043E2  3214               	rrcf	(??___fladd+3)^0,f,c
 10612  0043E4  3213               	rrcf	(??___fladd+2)^0,f,c
 10613  0043E6  3212               	rrcf	(??___fladd+1)^0,f,c
 10614  0043E8  3211               	rrcf	??___fladd^0,f,c
 10615  0043EA  C011  F009         	movff	??___fladd,___fladd@b
 10616  0043EE  C012  F00A         	movff	??___fladd+1,___fladd@b+1
 10617  0043F2  C013  F00B         	movff	??___fladd+2,___fladd@b+2
 10618  0043F6  C014  F00C         	movff	??___fladd+3,___fladd@b+3
 10619  0043FA  2817               	incf	___fladd@bexp^0,w,c
 10620  0043FC  B4D8               	btfsc	status,2,c
 10621  0043FE  EF03  F022         	goto	u3011
 10622  004402  EF05  F022         	goto	u3010
 10623  004406                     u3011:
 10624  004406  EF06  F022         	goto	l3953
 10625  00440A                     u3010:
 10626  00440A  2A17               	incf	___fladd@bexp^0,f,c
 10627  00440C                     l3953:
 10628  00440C  2817               	incf	___fladd@bexp^0,w,c
 10629  00440E  B4D8               	btfsc	status,2,c
 10630  004410  EF0C  F022         	goto	u3021
 10631  004414  EF0E  F022         	goto	u3020
 10632  004418                     u3021:
 10633  004418  EF16  F022         	goto	l3957
 10634  00441C                     u3020:
 10635  00441C  5017               	movf	___fladd@bexp^0,w,c
 10636  00441E  A4D8               	btfss	status,2,c
 10637  004420  EF14  F022         	goto	u3031
 10638  004424  EF16  F022         	goto	u3030
 10639  004428                     u3031:
 10640  004428  EF28  F022         	goto	l3961
 10641  00442C                     u3030:
 10642  00442C                     l3957:
 10643  00442C  0E00               	movlw	0
 10644  00442E  6E09               	movwf	___fladd@b^0,c
 10645  004430  0E00               	movlw	0
 10646  004432  6E0A               	movwf	(___fladd@b+1)^0,c
 10647  004434  0E00               	movlw	0
 10648  004436  6E0B               	movwf	(___fladd@b+2)^0,c
 10649  004438  0E00               	movlw	0
 10650  00443A  6E0C               	movwf	(___fladd@b+3)^0,c
 10651  00443C  5017               	movf	___fladd@bexp^0,w,c
 10652  00443E  A4D8               	btfss	status,2,c
 10653  004440  EF24  F022         	goto	u3041
 10654  004444  EF26  F022         	goto	u3040
 10655  004448                     u3041:
 10656  004448  EF28  F022         	goto	l3961
 10657  00444C                     u3040:
 10658  00444C  0E00               	movlw	0
 10659  00444E  6E15               	movwf	___fladd@signs^0,c
 10660  004450                     l3961:
 10661  004450  A017               	btfss	___fladd@bexp^0,0,c
 10662  004452  EF2D  F022         	goto	u3051
 10663  004456  EF2F  F022         	goto	u3050
 10664  00445A                     u3051:
 10665  00445A  EF32  F022         	goto	l3965
 10666  00445E                     u3050:
 10667  00445E  8E0B               	bsf	(___fladd@b+2)^0,7,c
 10668  004460  EF33  F022         	goto	l3967
 10669  004464                     l3965:
 10670  004464  9E0B               	bcf	(___fladd@b+2)^0,7,c
 10671  004466                     l3967:
 10672  004466  90D8               	bcf	status,0,c
 10673  004468  3017               	rrcf	___fladd@bexp^0,w,c
 10674  00446A  6E0C               	movwf	(___fladd@b+3)^0,c
 10675  00446C  AE15               	btfss	___fladd@signs^0,7,c
 10676  00446E  EF3B  F022         	goto	u3061
 10677  004472  EF3D  F022         	goto	u3060
 10678  004476                     u3061:
 10679  004476  EF3E  F022         	goto	l3973
 10680  00447A                     u3060:
 10681  00447A  8E0C               	bsf	(___fladd@b+3)^0,7,c
 10682  00447C                     l3973:
 10683  00447C  C009  F009         	movff	___fladd@b,?___fladd
 10684  004480  C00A  F00A         	movff	___fladd@b+1,?___fladd+1
 10685  004484  C00B  F00B         	movff	___fladd@b+2,?___fladd+2
 10686  004488  C00C  F00C         	movff	___fladd@b+3,?___fladd+3
 10687  00448C                     l1308:
 10688  00448C  0012               	return		;funcret
 10689  00448E                     __end_of___fladd:
 10690                           	opt callstack 0
 10691                           
 10692 ;; *************** function ___flneg *****************
 10693 ;; Defined at:
 10694 ;;		line 15 in file "C:\Program Files (x86)\Microchip\xc8\v2.10\pic\sources\c99\common\flneg.c"
 10695 ;; Parameters:    Size  Location     Type
 10696 ;;  f1              4    8[COMRAM] unsigned char 
 10697 ;; Auto vars:     Size  Location     Type
 10698 ;;		None
 10699 ;; Return value:  Size  Location     Type
 10700 ;;                  4    8[COMRAM] unsigned char 
 10701 ;; Registers used:
 10702 ;;		wreg, status,2, status,0
 10703 ;; Tracked objects:
 10704 ;;		On entry : 0/0
 10705 ;;		On exit  : 0/0
 10706 ;;		Unchanged: 0/0
 10707 ;; Data sizes:     COMRAM   BANK0   BANK1   BANK2   BANK3   BANK4   BANK5   BANK6   BANK7   BANK8   BANK9  BANK10  BANK1
      +1  BANK12  BANK13  BANK14  BANK15
 10708 ;;      Params:         4       0       0       0       0       0       0       0       0       0       0       0       
      +0       0       0       0       0
 10709 ;;      Locals:         0       0       0       0       0       0       0       0       0       0       0       0       
      +0       0       0       0       0
 10710 ;;      Temps:          0       0       0       0       0       0       0       0       0       0       0       0       
      +0       0       0       0       0
 10711 ;;      Totals:         4       0       0       0       0       0       0       0       0       0       0       0       
      +0       0       0       0       0
 10712 ;;Total ram usage:        4 bytes
 10713 ;; Hardware stack levels used:    1
 10714 ;; Hardware stack levels required when called:    3
 10715 ;; This function calls:
 10716 ;;		Nothing
 10717 ;; This function is called by:
 10718 ;;		_powf
 10719 ;; This function uses a non-reentrant model
 10720 ;;
 10721                           
 10722                           	psect	text32
 10723  006430                     __ptext32:
 10724                           	opt callstack 0
 10725  006430                     ___flneg:
 10726                           	opt callstack 23
 10727  006430  5009               	movf	___flneg@f1^0,w,c
 10728  006432  100A               	iorwf	(___flneg@f1+1)^0,w,c
 10729  006434  100B               	iorwf	(___flneg@f1+2)^0,w,c
 10730  006436  100C               	iorwf	(___flneg@f1+3)^0,w,c
 10731  006438  B4D8               	btfsc	status,2,c
 10732  00643A  EF21  F032         	goto	u3541
 10733  00643E  EF23  F032         	goto	u3540
 10734  006442                     u3541:
 10735  006442  EF2B  F032         	goto	l4315
 10736  006446                     u3540:
 10737  006446  0E00               	movlw	0
 10738  006448  1A09               	xorwf	___flneg@f1^0,f,c
 10739  00644A  0E00               	movlw	0
 10740  00644C  1A0A               	xorwf	(___flneg@f1+1)^0,f,c
 10741  00644E  0E00               	movlw	0
 10742  006450  1A0B               	xorwf	(___flneg@f1+2)^0,f,c
 10743  006452  0E80               	movlw	128
 10744  006454  1A0C               	xorwf	(___flneg@f1+3)^0,f,c
 10745  006456                     l4315:
 10746  006456  C009  F009         	movff	___flneg@f1,?___flneg
 10747  00645A  C00A  F00A         	movff	___flneg@f1+1,?___flneg+1
 10748  00645E  C00B  F00B         	movff	___flneg@f1+2,?___flneg+2
 10749  006462  C00C  F00C         	movff	___flneg@f1+3,?___flneg+3
 10750  006466  0012               	return		;funcret
 10751  006468                     __end_of___flneg:
 10752                           	opt callstack 0
 10753                           
 10754 ;; *************** function ___fldiv *****************
 10755 ;; Defined at:
 10756 ;;		line 11 in file "C:\Program Files (x86)\Microchip\xc8\v2.10\pic\sources\c99\common\sprcdiv.c"
 10757 ;; Parameters:    Size  Location     Type
 10758 ;;  b               4   57[COMRAM] unsigned char 
 10759 ;;  a               4   61[COMRAM] unsigned char 
 10760 ;; Auto vars:     Size  Location     Type
 10761 ;;  grs             4    7[BANK0 ] unsigned long 
 10762 ;;  rem             4    0[BANK0 ] unsigned long 
 10763 ;;  new_exp         2    5[BANK0 ] short 
 10764 ;;  aexp            1   12[BANK0 ] unsigned char 
 10765 ;;  bexp            1   11[BANK0 ] unsigned char 
 10766 ;;  sign            1    4[BANK0 ] unsigned char 
 10767 ;; Return value:  Size  Location     Type
 10768 ;;                  4   57[COMRAM] unsigned char 
 10769 ;; Registers used:
 10770 ;;		wreg, status,2, status,0
 10771 ;; Tracked objects:
 10772 ;;		On entry : 0/0
 10773 ;;		On exit  : 0/0
 10774 ;;		Unchanged: 0/0
 10775 ;; Data sizes:     COMRAM   BANK0   BANK1   BANK2   BANK3   BANK4   BANK5   BANK6   BANK7   BANK8   BANK9  BANK10  BANK1
      +1  BANK12  BANK13  BANK14  BANK15
 10776 ;;      Params:         8       0       0       0       0       0       0       0       0       0       0       0       
      +0       0       0       0       0
 10777 ;;      Locals:         0      13       0       0       0       0       0       0       0       0       0       0       
      +0       0       0       0       0
 10778 ;;      Temps:          4       0       0       0       0       0       0       0       0       0       0       0       
      +0       0       0       0       0
 10779 ;;      Totals:        12      13       0       0       0       0       0       0       0       0       0       0       
      +0       0       0       0       0
 10780 ;;Total ram usage:       25 bytes
 10781 ;; Hardware stack levels used:    1
 10782 ;; Hardware stack levels required when called:    3
 10783 ;; This function calls:
 10784 ;;		Nothing
 10785 ;; This function is called by:
 10786 ;;		_powf
 10787 ;; This function uses a non-reentrant model
 10788 ;;
 10789                           
 10790                           	psect	text33
 10791  0048B8                     __ptext33:
 10792                           	opt callstack 0
 10793  0048B8                     ___fldiv:
 10794                           	opt callstack 23
 10795  0048B8  503D               	movf	(___fldiv@b+3)^0,w,c
 10796  0048BA  0B80               	andlw	128
 10797  0048BC  0100               	movlb	0	; () banked
 10798  0048BE  6F64               	movwf	___fldiv@sign& (0+255),b
 10799  0048C0  503D               	movf	(___fldiv@b+3)^0,w,c
 10800  0048C2  243D               	addwf	(___fldiv@b+3)^0,w,c
 10801  0048C4  6F6B               	movwf	___fldiv@bexp& (0+255),b
 10802  0048C6                     
 10803                           ; BSR set to: 0
 10804  0048C6  AE3C               	btfss	(___fldiv@b+2)^0,7,c
 10805  0048C8  EF68  F024         	goto	u5291
 10806  0048CC  EF6A  F024         	goto	u5290
 10807  0048D0                     u5291:
 10808  0048D0  EF6B  F024         	goto	l5801
 10809  0048D4                     u5290:
 10810  0048D4                     
 10811                           ; BSR set to: 0
 10812  0048D4  816B               	bsf	___fldiv@bexp& (0+255),0,b
 10813  0048D6                     l5801:
 10814                           
 10815                           ; BSR set to: 0
 10816  0048D6  516B               	movf	___fldiv@bexp& (0+255),w,b
 10817  0048D8  B4D8               	btfsc	status,2,c
 10818  0048DA  EF71  F024         	goto	u5301
 10819  0048DE  EF73  F024         	goto	u5300
 10820  0048E2                     u5301:
 10821  0048E2  EF88  F024         	goto	l5811
 10822  0048E6                     u5300:
 10823  0048E6                     
 10824                           ; BSR set to: 0
 10825  0048E6  296B               	incf	___fldiv@bexp& (0+255),w,b
 10826  0048E8  A4D8               	btfss	status,2,c
 10827  0048EA  EF79  F024         	goto	u5311
 10828  0048EE  EF7B  F024         	goto	u5310
 10829  0048F2                     u5311:
 10830  0048F2  EF83  F024         	goto	l5807
 10831  0048F6                     u5310:
 10832  0048F6                     
 10833                           ; BSR set to: 0
 10834  0048F6  0E00               	movlw	0
 10835  0048F8  6E3A               	movwf	___fldiv@b^0,c
 10836  0048FA  0E00               	movlw	0
 10837  0048FC  6E3B               	movwf	(___fldiv@b+1)^0,c
 10838  0048FE  0E00               	movlw	0
 10839  004900  6E3C               	movwf	(___fldiv@b+2)^0,c
 10840  004902  0E00               	movlw	0
 10841  004904  6E3D               	movwf	(___fldiv@b+3)^0,c
 10842  004906                     l5807:
 10843                           
 10844                           ; BSR set to: 0
 10845  004906  8E3C               	bsf	(___fldiv@b+2)^0,7,c
 10846  004908                     
 10847                           ; BSR set to: 0
 10848  004908  0E00               	movlw	0
 10849  00490A  6E3D               	movwf	(___fldiv@b+3)^0,c
 10850  00490C  EF90  F024         	goto	l5813
 10851  004910                     l5811:
 10852                           
 10853                           ; BSR set to: 0
 10854  004910  0E00               	movlw	0
 10855  004912  6E3A               	movwf	___fldiv@b^0,c
 10856  004914  0E00               	movlw	0
 10857  004916  6E3B               	movwf	(___fldiv@b+1)^0,c
 10858  004918  0E00               	movlw	0
 10859  00491A  6E3C               	movwf	(___fldiv@b+2)^0,c
 10860  00491C  0E00               	movlw	0
 10861  00491E  6E3D               	movwf	(___fldiv@b+3)^0,c
 10862  004920                     l5813:
 10863                           
 10864                           ; BSR set to: 0
 10865  004920  5041               	movf	(___fldiv@a+3)^0,w,c
 10866  004922  0B80               	andlw	128
 10867  004924  1B64               	xorwf	___fldiv@sign& (0+255),f,b
 10868  004926                     
 10869                           ; BSR set to: 0
 10870  004926  5041               	movf	(___fldiv@a+3)^0,w,c
 10871  004928  2441               	addwf	(___fldiv@a+3)^0,w,c
 10872  00492A  6F6C               	movwf	___fldiv@aexp& (0+255),b
 10873  00492C                     
 10874                           ; BSR set to: 0
 10875  00492C  AE40               	btfss	(___fldiv@a+2)^0,7,c
 10876  00492E  EF9B  F024         	goto	u5321
 10877  004932  EF9D  F024         	goto	u5320
 10878  004936                     u5321:
 10879  004936  EF9E  F024         	goto	l5821
 10880  00493A                     u5320:
 10881  00493A                     
 10882                           ; BSR set to: 0
 10883  00493A  816C               	bsf	___fldiv@aexp& (0+255),0,b
 10884  00493C                     l5821:
 10885                           
 10886                           ; BSR set to: 0
 10887  00493C  516C               	movf	___fldiv@aexp& (0+255),w,b
 10888  00493E  B4D8               	btfsc	status,2,c
 10889  004940  EFA4  F024         	goto	u5331
 10890  004944  EFA6  F024         	goto	u5330
 10891  004948                     u5331:
 10892  004948  EFBB  F024         	goto	l5831
 10893  00494C                     u5330:
 10894  00494C                     
 10895                           ; BSR set to: 0
 10896  00494C  296C               	incf	___fldiv@aexp& (0+255),w,b
 10897  00494E  A4D8               	btfss	status,2,c
 10898  004950  EFAC  F024         	goto	u5341
 10899  004954  EFAE  F024         	goto	u5340
 10900  004958                     u5341:
 10901  004958  EFB6  F024         	goto	l5827
 10902  00495C                     u5340:
 10903  00495C                     
 10904                           ; BSR set to: 0
 10905  00495C  0E00               	movlw	0
 10906  00495E  6E3E               	movwf	___fldiv@a^0,c
 10907  004960  0E00               	movlw	0
 10908  004962  6E3F               	movwf	(___fldiv@a+1)^0,c
 10909  004964  0E00               	movlw	0
 10910  004966  6E40               	movwf	(___fldiv@a+2)^0,c
 10911  004968  0E00               	movlw	0
 10912  00496A  6E41               	movwf	(___fldiv@a+3)^0,c
 10913  00496C                     l5827:
 10914                           
 10915                           ; BSR set to: 0
 10916  00496C  8E40               	bsf	(___fldiv@a+2)^0,7,c
 10917  00496E                     
 10918                           ; BSR set to: 0
 10919  00496E  0E00               	movlw	0
 10920  004970  6E41               	movwf	(___fldiv@a+3)^0,c
 10921  004972  EFC3  F024         	goto	l5833
 10922  004976                     l5831:
 10923                           
 10924                           ; BSR set to: 0
 10925  004976  0E00               	movlw	0
 10926  004978  6E3E               	movwf	___fldiv@a^0,c
 10927  00497A  0E00               	movlw	0
 10928  00497C  6E3F               	movwf	(___fldiv@a+1)^0,c
 10929  00497E  0E00               	movlw	0
 10930  004980  6E40               	movwf	(___fldiv@a+2)^0,c
 10931  004982  0E00               	movlw	0
 10932  004984  6E41               	movwf	(___fldiv@a+3)^0,c
 10933  004986                     l5833:
 10934                           
 10935                           ; BSR set to: 0
 10936  004986  503E               	movf	___fldiv@a^0,w,c
 10937  004988  103F               	iorwf	(___fldiv@a+1)^0,w,c
 10938  00498A  1040               	iorwf	(___fldiv@a+2)^0,w,c
 10939  00498C  1041               	iorwf	(___fldiv@a+3)^0,w,c
 10940  00498E  A4D8               	btfss	status,2,c
 10941  004990  EFCC  F024         	goto	u5351
 10942  004994  EFCE  F024         	goto	u5350
 10943  004998                     u5351:
 10944  004998  EFE6  F024         	goto	l5845
 10945  00499C                     u5350:
 10946  00499C                     
 10947                           ; BSR set to: 0
 10948  00499C  0E00               	movlw	0
 10949  00499E  6E3A               	movwf	___fldiv@b^0,c
 10950  0049A0  0E00               	movlw	0
 10951  0049A2  6E3B               	movwf	(___fldiv@b+1)^0,c
 10952  0049A4  0E00               	movlw	0
 10953  0049A6  6E3C               	movwf	(___fldiv@b+2)^0,c
 10954  0049A8  0E00               	movlw	0
 10955  0049AA  6E3D               	movwf	(___fldiv@b+3)^0,c
 10956  0049AC                     
 10957                           ; BSR set to: 0
 10958  0049AC  0E80               	movlw	128
 10959  0049AE  123C               	iorwf	(___fldiv@b+2)^0,f,c
 10960  0049B0  0E7F               	movlw	127
 10961  0049B2  123D               	iorwf	(___fldiv@b+3)^0,f,c
 10962  0049B4                     l5839:
 10963                           
 10964                           ; BSR set to: 0
 10965  0049B4  5164               	movf	___fldiv@sign& (0+255),w,b
 10966  0049B6  123D               	iorwf	(___fldiv@b+3)^0,f,c
 10967  0049B8                     
 10968                           ; BSR set to: 0
 10969  0049B8  C03A  F03A         	movff	___fldiv@b,?___fldiv
 10970  0049BC  C03B  F03B         	movff	___fldiv@b+1,?___fldiv+1
 10971  0049C0  C03C  F03C         	movff	___fldiv@b+2,?___fldiv+2
 10972  0049C4  C03D  F03D         	movff	___fldiv@b+3,?___fldiv+3
 10973  0049C8  EF29  F026         	goto	l1353
 10974  0049CC                     l5845:
 10975                           
 10976                           ; BSR set to: 0
 10977  0049CC  516B               	movf	___fldiv@bexp& (0+255),w,b
 10978  0049CE  A4D8               	btfss	status,2,c
 10979  0049D0  EFEC  F024         	goto	u5361
 10980  0049D4  EFEE  F024         	goto	u5360
 10981  0049D8                     u5361:
 10982  0049D8  EFF8  F024         	goto	l5853
 10983  0049DC                     u5360:
 10984  0049DC                     
 10985                           ; BSR set to: 0
 10986  0049DC  0E00               	movlw	0
 10987  0049DE  6E3A               	movwf	?___fldiv^0,c
 10988  0049E0  0E00               	movlw	0
 10989  0049E2  6E3B               	movwf	(?___fldiv+1)^0,c
 10990  0049E4  0E00               	movlw	0
 10991  0049E6  6E3C               	movwf	(?___fldiv+2)^0,c
 10992  0049E8  0E00               	movlw	0
 10993  0049EA  6E3D               	movwf	(?___fldiv+3)^0,c
 10994  0049EC  EF29  F026         	goto	l1353
 10995  0049F0                     l5853:
 10996                           
 10997                           ; BSR set to: 0
 10998  0049F0  516C               	movf	___fldiv@aexp& (0+255),w,b
 10999  0049F2  C06B  F042         	movff	___fldiv@bexp,??___fldiv
 11000  0049F6  6A43               	clrf	(??___fldiv+1)^0,c
 11001  0049F8  5E42               	subwf	??___fldiv^0,f,c
 11002  0049FA  0E00               	movlw	0
 11003  0049FC  5A43               	subwfb	(??___fldiv+1)^0,f,c
 11004  0049FE  0E7F               	movlw	127
 11005  004A00  2442               	addwf	??___fldiv^0,w,c
 11006  004A02  6F65               	movwf	___fldiv@new_exp& (0+255),b
 11007  004A04  0E00               	movlw	0
 11008  004A06  2043               	addwfc	(??___fldiv+1)^0,w,c
 11009  004A08  6F66               	movwf	(___fldiv@new_exp+1)& (0+255),b
 11010  004A0A                     
 11011                           ; BSR set to: 0
 11012  004A0A  C03A  F060         	movff	___fldiv@b,___fldiv@rem
 11013  004A0E  C03B  F061         	movff	___fldiv@b+1,___fldiv@rem+1
 11014  004A12  C03C  F062         	movff	___fldiv@b+2,___fldiv@rem+2
 11015  004A16  C03D  F063         	movff	___fldiv@b+3,___fldiv@rem+3
 11016  004A1A                     
 11017                           ; BSR set to: 0
 11018  004A1A  0E00               	movlw	0
 11019  004A1C  6E3A               	movwf	___fldiv@b^0,c
 11020  004A1E  0E00               	movlw	0
 11021  004A20  6E3B               	movwf	(___fldiv@b+1)^0,c
 11022  004A22  0E00               	movlw	0
 11023  004A24  6E3C               	movwf	(___fldiv@b+2)^0,c
 11024  004A26  0E00               	movlw	0
 11025  004A28  6E3D               	movwf	(___fldiv@b+3)^0,c
 11026  004A2A                     
 11027                           ; BSR set to: 0
 11028  004A2A  0E00               	movlw	0
 11029  004A2C  6F67               	movwf	___fldiv@grs& (0+255),b
 11030  004A2E  0E00               	movlw	0
 11031  004A30  6F68               	movwf	(___fldiv@grs+1)& (0+255),b
 11032  004A32  0E00               	movlw	0
 11033  004A34  6F69               	movwf	(___fldiv@grs+2)& (0+255),b
 11034  004A36  0E00               	movlw	0
 11035  004A38  6F6A               	movwf	(___fldiv@grs+3)& (0+255),b
 11036  004A3A                     
 11037                           ; BSR set to: 0
 11038  004A3A  0E00               	movlw	0
 11039  004A3C  6F6C               	movwf	___fldiv@aexp& (0+255),b
 11040  004A3E  EF59  F025         	goto	l1355
 11041  004A42                     l5863:
 11042                           
 11043                           ; BSR set to: 0
 11044  004A42  516C               	movf	___fldiv@aexp& (0+255),w,b
 11045  004A44  B4D8               	btfsc	status,2,c
 11046  004A46  EF27  F025         	goto	u5371
 11047  004A4A  EF29  F025         	goto	u5370
 11048  004A4E                     u5371:
 11049  004A4E  EF40  F025         	goto	l5871
 11050  004A52                     u5370:
 11051  004A52                     
 11052                           ; BSR set to: 0
 11053  004A52  90D8               	bcf	status,0,c
 11054  004A54  3760               	rlcf	___fldiv@rem& (0+255),f,b
 11055  004A56  3761               	rlcf	(___fldiv@rem+1)& (0+255),f,b
 11056  004A58  3762               	rlcf	(___fldiv@rem+2)& (0+255),f,b
 11057  004A5A  3763               	rlcf	(___fldiv@rem+3)& (0+255),f,b
 11058  004A5C  90D8               	bcf	status,0,c
 11059  004A5E  363A               	rlcf	___fldiv@b^0,f,c
 11060  004A60  363B               	rlcf	(___fldiv@b+1)^0,f,c
 11061  004A62  363C               	rlcf	(___fldiv@b+2)^0,f,c
 11062  004A64  363D               	rlcf	(___fldiv@b+3)^0,f,c
 11063  004A66                     
 11064                           ; BSR set to: 0
 11065  004A66  AF6A               	btfss	(___fldiv@grs+3)& (0+255),7,b
 11066  004A68  EF38  F025         	goto	u5381
 11067  004A6C  EF3A  F025         	goto	u5380
 11068  004A70                     u5381:
 11069  004A70  EF3B  F025         	goto	l1358
 11070  004A74                     u5380:
 11071  004A74                     
 11072                           ; BSR set to: 0
 11073  004A74  803A               	bsf	___fldiv@b^0,0,c
 11074  004A76                     l1358:
 11075                           
 11076                           ; BSR set to: 0
 11077  004A76  90D8               	bcf	status,0,c
 11078  004A78  3767               	rlcf	___fldiv@grs& (0+255),f,b
 11079  004A7A  3768               	rlcf	(___fldiv@grs+1)& (0+255),f,b
 11080  004A7C  3769               	rlcf	(___fldiv@grs+2)& (0+255),f,b
 11081  004A7E  376A               	rlcf	(___fldiv@grs+3)& (0+255),f,b
 11082  004A80                     l5871:
 11083                           
 11084                           ; BSR set to: 0
 11085  004A80  503E               	movf	___fldiv@a^0,w,c
 11086  004A82  5D60               	subwf	___fldiv@rem& (0+255),w,b
 11087  004A84  503F               	movf	(___fldiv@a+1)^0,w,c
 11088  004A86  5961               	subwfb	(___fldiv@rem+1)& (0+255),w,b
 11089  004A88  5040               	movf	(___fldiv@a+2)^0,w,c
 11090  004A8A  5962               	subwfb	(___fldiv@rem+2)& (0+255),w,b
 11091  004A8C  5041               	movf	(___fldiv@a+3)^0,w,c
 11092  004A8E  5963               	subwfb	(___fldiv@rem+3)& (0+255),w,b
 11093  004A90  A0D8               	btfss	status,0,c
 11094  004A92  EF4D  F025         	goto	u5391
 11095  004A96  EF4F  F025         	goto	u5390
 11096  004A9A                     u5391:
 11097  004A9A  EF58  F025         	goto	l5877
 11098  004A9E                     u5390:
 11099  004A9E                     
 11100                           ; BSR set to: 0
 11101  004A9E  8D6A               	bsf	(___fldiv@grs+3)& (0+255),6,b
 11102  004AA0                     
 11103                           ; BSR set to: 0
 11104  004AA0  503E               	movf	___fldiv@a^0,w,c
 11105  004AA2  5F60               	subwf	___fldiv@rem& (0+255),f,b
 11106  004AA4  503F               	movf	(___fldiv@a+1)^0,w,c
 11107  004AA6  5B61               	subwfb	(___fldiv@rem+1)& (0+255),f,b
 11108  004AA8  5040               	movf	(___fldiv@a+2)^0,w,c
 11109  004AAA  5B62               	subwfb	(___fldiv@rem+2)& (0+255),f,b
 11110  004AAC  5041               	movf	(___fldiv@a+3)^0,w,c
 11111  004AAE  5B63               	subwfb	(___fldiv@rem+3)& (0+255),f,b
 11112  004AB0                     l5877:
 11113                           
 11114                           ; BSR set to: 0
 11115  004AB0  2B6C               	incf	___fldiv@aexp& (0+255),f,b
 11116  004AB2                     l1355:
 11117                           
 11118                           ; BSR set to: 0
 11119  004AB2  0E19               	movlw	25
 11120  004AB4  656C               	cpfsgt	___fldiv@aexp& (0+255),b
 11121  004AB6  EF5F  F025         	goto	u5401
 11122  004ABA  EF61  F025         	goto	u5400
 11123  004ABE                     u5401:
 11124  004ABE  EF21  F025         	goto	l5863
 11125  004AC2                     u5400:
 11126  004AC2                     
 11127                           ; BSR set to: 0
 11128  004AC2  5160               	movf	___fldiv@rem& (0+255),w,b
 11129  004AC4  1161               	iorwf	(___fldiv@rem+1)& (0+255),w,b
 11130  004AC6  1162               	iorwf	(___fldiv@rem+2)& (0+255),w,b
 11131  004AC8  1163               	iorwf	(___fldiv@rem+3)& (0+255),w,b
 11132  004ACA  B4D8               	btfsc	status,2,c
 11133  004ACC  EF6A  F025         	goto	u5411
 11134  004AD0  EF6C  F025         	goto	u5410
 11135  004AD4                     u5411:
 11136  004AD4  EF84  F025         	goto	l5889
 11137  004AD8                     u5410:
 11138  004AD8                     
 11139                           ; BSR set to: 0
 11140  004AD8  8167               	bsf	___fldiv@grs& (0+255),0,b
 11141  004ADA  EF84  F025         	goto	l5889
 11142  004ADE                     l5883:
 11143                           
 11144                           ; BSR set to: 0
 11145  004ADE  90D8               	bcf	status,0,c
 11146  004AE0  363A               	rlcf	___fldiv@b^0,f,c
 11147  004AE2  363B               	rlcf	(___fldiv@b+1)^0,f,c
 11148  004AE4  363C               	rlcf	(___fldiv@b+2)^0,f,c
 11149  004AE6  363D               	rlcf	(___fldiv@b+3)^0,f,c
 11150  004AE8                     
 11151                           ; BSR set to: 0
 11152  004AE8  AF6A               	btfss	(___fldiv@grs+3)& (0+255),7,b
 11153  004AEA  EF79  F025         	goto	u5421
 11154  004AEE  EF7B  F025         	goto	u5420
 11155  004AF2                     u5421:
 11156  004AF2  EF7C  F025         	goto	l1364
 11157  004AF6                     u5420:
 11158  004AF6                     
 11159                           ; BSR set to: 0
 11160  004AF6  803A               	bsf	___fldiv@b^0,0,c
 11161  004AF8                     l1364:
 11162                           
 11163                           ; BSR set to: 0
 11164  004AF8  90D8               	bcf	status,0,c
 11165  004AFA  3767               	rlcf	___fldiv@grs& (0+255),f,b
 11166  004AFC  3768               	rlcf	(___fldiv@grs+1)& (0+255),f,b
 11167  004AFE  3769               	rlcf	(___fldiv@grs+2)& (0+255),f,b
 11168  004B00  376A               	rlcf	(___fldiv@grs+3)& (0+255),f,b
 11169  004B02  0765               	decf	___fldiv@new_exp& (0+255),f,b
 11170  004B04  A0D8               	btfss	status,0,c
 11171  004B06  0766               	decf	(___fldiv@new_exp+1)& (0+255),f,b
 11172  004B08                     l5889:
 11173                           
 11174                           ; BSR set to: 0
 11175  004B08  AE3C               	btfss	(___fldiv@b+2)^0,7,c
 11176  004B0A  EF89  F025         	goto	u5431
 11177  004B0E  EF8B  F025         	goto	u5430
 11178  004B12                     u5431:
 11179  004B12  EF6F  F025         	goto	l5883
 11180  004B16                     u5430:
 11181  004B16                     
 11182                           ; BSR set to: 0
 11183  004B16  0E00               	movlw	0
 11184  004B18  6F6C               	movwf	___fldiv@aexp& (0+255),b
 11185  004B1A                     
 11186                           ; BSR set to: 0
 11187  004B1A  AF6A               	btfss	(___fldiv@grs+3)& (0+255),7,b
 11188  004B1C  EF92  F025         	goto	u5441
 11189  004B20  EF94  F025         	goto	u5440
 11190  004B24                     u5441:
 11191  004B24  EFB8  F025         	goto	l1366
 11192  004B28                     u5440:
 11193  004B28                     
 11194                           ; BSR set to: 0
 11195  004B28  0EFF               	movlw	255
 11196  004B2A  1567               	andwf	___fldiv@grs& (0+255),w,b
 11197  004B2C  6E42               	movwf	??___fldiv^0,c
 11198  004B2E  0EFF               	movlw	255
 11199  004B30  1568               	andwf	(___fldiv@grs+1)& (0+255),w,b
 11200  004B32  6E43               	movwf	(??___fldiv+1)^0,c
 11201  004B34  0EFF               	movlw	255
 11202  004B36  1569               	andwf	(___fldiv@grs+2)& (0+255),w,b
 11203  004B38  6E44               	movwf	(??___fldiv+2)^0,c
 11204  004B3A  0E7F               	movlw	127
 11205  004B3C  156A               	andwf	(___fldiv@grs+3)& (0+255),w,b
 11206  004B3E  6E45               	movwf	(??___fldiv+3)^0,c
 11207  004B40  5042               	movf	??___fldiv^0,w,c
 11208  004B42  1043               	iorwf	(??___fldiv+1)^0,w,c
 11209  004B44  1044               	iorwf	(??___fldiv+2)^0,w,c
 11210  004B46  1045               	iorwf	(??___fldiv+3)^0,w,c
 11211  004B48  B4D8               	btfsc	status,2,c
 11212  004B4A  EFA9  F025         	goto	u5451
 11213  004B4E  EFAB  F025         	goto	u5450
 11214  004B52                     u5451:
 11215  004B52  EFAF  F025         	goto	l1367
 11216  004B56                     u5450:
 11217  004B56                     l5897:
 11218                           
 11219                           ; BSR set to: 0
 11220  004B56  0E01               	movlw	1
 11221  004B58  6F6C               	movwf	___fldiv@aexp& (0+255),b
 11222  004B5A  EFB8  F025         	goto	l1366
 11223  004B5E                     l1367:
 11224                           
 11225                           ; BSR set to: 0
 11226  004B5E  A03A               	btfss	___fldiv@b^0,0,c
 11227  004B60  EFB4  F025         	goto	u5461
 11228  004B64  EFB6  F025         	goto	u5460
 11229  004B68                     u5461:
 11230  004B68  EFB8  F025         	goto	l1366
 11231  004B6C                     u5460:
 11232  004B6C  EFAB  F025         	goto	l5897
 11233  004B70                     l1366:
 11234                           
 11235                           ; BSR set to: 0
 11236  004B70  516C               	movf	___fldiv@aexp& (0+255),w,b
 11237  004B72  B4D8               	btfsc	status,2,c
 11238  004B74  EFBE  F025         	goto	u5471
 11239  004B78  EFC0  F025         	goto	u5470
 11240  004B7C                     u5471:
 11241  004B7C  EFE4  F025         	goto	l5909
 11242  004B80                     u5470:
 11243  004B80                     
 11244                           ; BSR set to: 0
 11245  004B80  0E01               	movlw	1
 11246  004B82  263A               	addwf	___fldiv@b^0,f,c
 11247  004B84  0E00               	movlw	0
 11248  004B86  223B               	addwfc	(___fldiv@b+1)^0,f,c
 11249  004B88  223C               	addwfc	(___fldiv@b+2)^0,f,c
 11250  004B8A  223D               	addwfc	(___fldiv@b+3)^0,f,c
 11251  004B8C                     
 11252                           ; BSR set to: 0
 11253  004B8C  A03D               	btfss	(___fldiv@b+3)^0,0,c
 11254  004B8E  EFCB  F025         	goto	u5481
 11255  004B92  EFCD  F025         	goto	u5480
 11256  004B96                     u5481:
 11257  004B96  EFE4  F025         	goto	l5909
 11258  004B9A                     u5480:
 11259  004B9A                     
 11260                           ; BSR set to: 0
 11261  004B9A  C03A  F042         	movff	___fldiv@b,??___fldiv
 11262  004B9E  C03B  F043         	movff	___fldiv@b+1,??___fldiv+1
 11263  004BA2  C03C  F044         	movff	___fldiv@b+2,??___fldiv+2
 11264  004BA6  C03D  F045         	movff	___fldiv@b+3,??___fldiv+3
 11265  004BAA  3445               	rlcf	(??___fldiv+3)^0,w,c
 11266  004BAC  3245               	rrcf	(??___fldiv+3)^0,f,c
 11267  004BAE  3244               	rrcf	(??___fldiv+2)^0,f,c
 11268  004BB0  3243               	rrcf	(??___fldiv+1)^0,f,c
 11269  004BB2  3242               	rrcf	??___fldiv^0,f,c
 11270  004BB4  C042  F03A         	movff	??___fldiv,___fldiv@b
 11271  004BB8  C043  F03B         	movff	??___fldiv+1,___fldiv@b+1
 11272  004BBC  C044  F03C         	movff	??___fldiv+2,___fldiv@b+2
 11273  004BC0  C045  F03D         	movff	??___fldiv+3,___fldiv@b+3
 11274  004BC4                     
 11275                           ; BSR set to: 0
 11276  004BC4  4B65               	infsnz	___fldiv@new_exp& (0+255),f,b
 11277  004BC6  2B66               	incf	(___fldiv@new_exp+1)& (0+255),f,b
 11278  004BC8                     l5909:
 11279                           
 11280                           ; BSR set to: 0
 11281  004BC8  BF66               	btfsc	(___fldiv@new_exp+1)& (0+255),7,b
 11282  004BCA  EFEF  F025         	goto	u5491
 11283  004BCE  5166               	movf	(___fldiv@new_exp+1)& (0+255),w,b
 11284  004BD0  E108               	bnz	u5490
 11285  004BD2  2965               	incf	___fldiv@new_exp& (0+255),w,b
 11286  004BD4  A0D8               	btfss	status,0,c
 11287  004BD6  EFEF  F025         	goto	u5491
 11288  004BDA  EFF1  F025         	goto	u5490
 11289  004BDE                     u5491:
 11290  004BDE  EFFC  F025         	goto	l5913
 11291  004BE2                     u5490:
 11292  004BE2                     
 11293                           ; BSR set to: 0
 11294  004BE2  0E00               	movlw	0
 11295  004BE4  6F66               	movwf	(___fldiv@new_exp+1)& (0+255),b
 11296  004BE6  6965               	setf	___fldiv@new_exp& (0+255),b
 11297  004BE8  0E00               	movlw	0
 11298  004BEA  6E3A               	movwf	___fldiv@b^0,c
 11299  004BEC  0E00               	movlw	0
 11300  004BEE  6E3B               	movwf	(___fldiv@b+1)^0,c
 11301  004BF0  0E00               	movlw	0
 11302  004BF2  6E3C               	movwf	(___fldiv@b+2)^0,c
 11303  004BF4  0E00               	movlw	0
 11304  004BF6  6E3D               	movwf	(___fldiv@b+3)^0,c
 11305  004BF8                     l5913:
 11306                           
 11307                           ; BSR set to: 0
 11308  004BF8  BF66               	btfsc	(___fldiv@new_exp+1)& (0+255),7,b
 11309  004BFA  EF09  F026         	goto	u5500
 11310  004BFE  5166               	movf	(___fldiv@new_exp+1)& (0+255),w,b
 11311  004C00  E106               	bnz	u5501
 11312  004C02  0565               	decf	___fldiv@new_exp& (0+255),w,b
 11313  004C04  B0D8               	btfsc	status,0,c
 11314  004C06  EF07  F026         	goto	u5501
 11315  004C0A  EF09  F026         	goto	u5500
 11316  004C0E                     u5501:
 11317  004C0E  EF17  F026         	goto	l5917
 11318  004C12                     u5500:
 11319  004C12                     
 11320                           ; BSR set to: 0
 11321  004C12  0E00               	movlw	0
 11322  004C14  6F66               	movwf	(___fldiv@new_exp+1)& (0+255),b
 11323  004C16  0E00               	movlw	0
 11324  004C18  6F65               	movwf	___fldiv@new_exp& (0+255),b
 11325  004C1A  0E00               	movlw	0
 11326  004C1C  6E3A               	movwf	___fldiv@b^0,c
 11327  004C1E  0E00               	movlw	0
 11328  004C20  6E3B               	movwf	(___fldiv@b+1)^0,c
 11329  004C22  0E00               	movlw	0
 11330  004C24  6E3C               	movwf	(___fldiv@b+2)^0,c
 11331  004C26  0E00               	movlw	0
 11332  004C28  6E3D               	movwf	(___fldiv@b+3)^0,c
 11333  004C2A  0E00               	movlw	0
 11334  004C2C  6F64               	movwf	___fldiv@sign& (0+255),b
 11335  004C2E                     l5917:
 11336                           
 11337                           ; BSR set to: 0
 11338  004C2E  C065  F06B         	movff	___fldiv@new_exp,___fldiv@bexp
 11339  004C32                     
 11340                           ; BSR set to: 0
 11341  004C32  A16B               	btfss	___fldiv@bexp& (0+255),0,b
 11342  004C34  EF1E  F026         	goto	u5511
 11343  004C38  EF20  F026         	goto	u5510
 11344  004C3C                     u5511:
 11345  004C3C  EF23  F026         	goto	l5923
 11346  004C40                     u5510:
 11347  004C40                     
 11348                           ; BSR set to: 0
 11349  004C40  8E3C               	bsf	(___fldiv@b+2)^0,7,c
 11350  004C42  EF24  F026         	goto	l5925
 11351  004C46                     l5923:
 11352                           
 11353                           ; BSR set to: 0
 11354  004C46  9E3C               	bcf	(___fldiv@b+2)^0,7,c
 11355  004C48                     l5925:
 11356                           
 11357                           ; BSR set to: 0
 11358  004C48  90D8               	bcf	status,0,c
 11359  004C4A  316B               	rrcf	___fldiv@bexp& (0+255),w,b
 11360  004C4C  6E3D               	movwf	(___fldiv@b+3)^0,c
 11361  004C4E  EFDA  F024         	goto	l5839
 11362  004C52                     l1353:
 11363                           
 11364                           ; BSR set to: 0
 11365  004C52  0012               	return		;funcret
 11366  004C54                     __end_of___fldiv:
 11367                           	opt callstack 0
 11368                           
 11369 ;; *************** function ___fltol *****************
 11370 ;; Defined at:
 11371 ;;		line 43 in file "C:\Program Files (x86)\Microchip\xc8\v2.10\pic\sources\c99\common\fltol.c"
 11372 ;; Parameters:    Size  Location     Type
 11373 ;;  f1              4   57[BANK0 ] unsigned char 
 11374 ;; Auto vars:     Size  Location     Type
 11375 ;;  exp1            1   66[BANK0 ] unsigned char 
 11376 ;;  sign1           1   65[BANK0 ] unsigned char 
 11377 ;; Return value:  Size  Location     Type
 11378 ;;                  4   57[BANK0 ] long 
 11379 ;; Registers used:
 11380 ;;		wreg, status,2, status,0
 11381 ;; Tracked objects:
 11382 ;;		On entry : 0/0
 11383 ;;		On exit  : 0/0
 11384 ;;		Unchanged: 0/0
 11385 ;; Data sizes:     COMRAM   BANK0   BANK1   BANK2   BANK3   BANK4   BANK5   BANK6   BANK7   BANK8   BANK9  BANK10  BANK1
      +1  BANK12  BANK13  BANK14  BANK15
 11386 ;;      Params:         0       4       0       0       0       0       0       0       0       0       0       0       
      +0       0       0       0       0
 11387 ;;      Locals:         0       2       0       0       0       0       0       0       0       0       0       0       
      +0       0       0       0       0
 11388 ;;      Temps:          0       4       0       0       0       0       0       0       0       0       0       0       
      +0       0       0       0       0
 11389 ;;      Totals:         0      10       0       0       0       0       0       0       0       0       0       0       
      +0       0       0       0       0
 11390 ;;Total ram usage:       10 bytes
 11391 ;; Hardware stack levels used:    1
 11392 ;; Hardware stack levels required when called:    3
 11393 ;; This function calls:
 11394 ;;		Nothing
 11395 ;; This function is called by:
 11396 ;;		_preCalculate
 11397 ;; This function uses a non-reentrant model
 11398 ;;
 11399                           
 11400                           	psect	text34
 11401  0053EA                     __ptext34:
 11402                           	opt callstack 0
 11403  0053EA                     ___fltol:
 11404                           	opt callstack 24
 11405  0053EA  0100               	movlb	0	; () banked
 11406  0053EC  359B               	rlcf	(___fltol@f1+2)& (0+255),w,b
 11407  0053EE  359C               	rlcf	(___fltol@f1+3)& (0+255),w,b
 11408  0053F0  6FA2               	movwf	___fltol@exp1& (0+255),b
 11409  0053F2  51A2               	movf	___fltol@exp1& (0+255),w,b
 11410  0053F4  A4D8               	btfss	status,2,c
 11411  0053F6  EFFF  F029         	goto	u6091
 11412  0053FA  EF01  F02A         	goto	u6090
 11413  0053FE                     u6091:
 11414  0053FE  EF0B  F02A         	goto	l6387
 11415  005402                     u6090:
 11416  005402                     l6383:
 11417                           
 11418                           ; BSR set to: 0
 11419  005402  0E00               	movlw	0
 11420  005404  6F99               	movwf	?___fltol& (0+255),b
 11421  005406  0E00               	movlw	0
 11422  005408  6F9A               	movwf	(?___fltol+1)& (0+255),b
 11423  00540A  0E00               	movlw	0
 11424  00540C  6F9B               	movwf	(?___fltol+2)& (0+255),b
 11425  00540E  0E00               	movlw	0
 11426  005410  6F9C               	movwf	(?___fltol+3)& (0+255),b
 11427  005412  EF78  F02A         	goto	l1068
 11428  005416                     l6387:
 11429                           
 11430                           ; BSR set to: 0
 11431  005416  C099  F09D         	movff	___fltol@f1,??___fltol
 11432  00541A  C09A  F09E         	movff	___fltol@f1+1,??___fltol+1
 11433  00541E  C09B  F09F         	movff	___fltol@f1+2,??___fltol+2
 11434  005422  C09C  F0A0         	movff	___fltol@f1+3,??___fltol+3
 11435  005426  0E20               	movlw	32
 11436  005428  EF1B  F02A         	goto	u6100
 11437  00542C                     u6105:
 11438  00542C  90D8               	bcf	status,0,c
 11439  00542E  33A0               	rrcf	(??___fltol+3)& (0+255),f,b
 11440  005430  339F               	rrcf	(??___fltol+2)& (0+255),f,b
 11441  005432  339E               	rrcf	(??___fltol+1)& (0+255),f,b
 11442  005434  339D               	rrcf	??___fltol& (0+255),f,b
 11443  005436                     u6100:
 11444  005436  2EE8               	decfsz	wreg,f,c
 11445  005438  EF16  F02A         	goto	u6105
 11446  00543C  519D               	movf	??___fltol& (0+255),w,b
 11447  00543E  6FA1               	movwf	___fltol@sign1& (0+255),b
 11448  005440                     
 11449                           ; BSR set to: 0
 11450  005440  8F9B               	bsf	(___fltol@f1+2)& (0+255),7,b
 11451  005442                     
 11452                           ; BSR set to: 0
 11453  005442  0EFF               	movlw	255
 11454  005444  1799               	andwf	___fltol@f1& (0+255),f,b
 11455  005446  0EFF               	movlw	255
 11456  005448  179A               	andwf	(___fltol@f1+1)& (0+255),f,b
 11457  00544A  0EFF               	movlw	255
 11458  00544C  179B               	andwf	(___fltol@f1+2)& (0+255),f,b
 11459  00544E  0E00               	movlw	0
 11460  005450  179C               	andwf	(___fltol@f1+3)& (0+255),f,b
 11461  005452                     
 11462                           ; BSR set to: 0
 11463  005452  0E96               	movlw	150
 11464  005454  5FA2               	subwf	___fltol@exp1& (0+255),f,b
 11465  005456                     
 11466                           ; BSR set to: 0
 11467  005456  BFA2               	btfsc	___fltol@exp1& (0+255),7,b
 11468  005458  EF32  F02A         	goto	u6110
 11469  00545C  EF30  F02A         	goto	u6111
 11470  005460                     u6111:
 11471  005460  EF48  F02A         	goto	l6407
 11472  005464                     u6110:
 11473  005464                     
 11474                           ; BSR set to: 0
 11475  005464  51A2               	movf	___fltol@exp1& (0+255),w,b
 11476  005466  0A80               	xorlw	128
 11477  005468  0F97               	addlw	151
 11478  00546A  B0D8               	btfsc	status,0,c
 11479  00546C  EF3A  F02A         	goto	u6121
 11480  005470  EF3C  F02A         	goto	u6120
 11481  005474                     u6121:
 11482  005474  EF3E  F02A         	goto	l6403
 11483  005478                     u6120:
 11484  005478  EF01  F02A         	goto	l6383
 11485  00547C                     l6403:
 11486                           
 11487                           ; BSR set to: 0
 11488  00547C  90D8               	bcf	status,0,c
 11489  00547E  339C               	rrcf	(___fltol@f1+3)& (0+255),f,b
 11490  005480  339B               	rrcf	(___fltol@f1+2)& (0+255),f,b
 11491  005482  339A               	rrcf	(___fltol@f1+1)& (0+255),f,b
 11492  005484  3399               	rrcf	___fltol@f1& (0+255),f,b
 11493  005486                     
 11494                           ; BSR set to: 0
 11495  005486  3FA2               	incfsz	___fltol@exp1& (0+255),f,b
 11496  005488  EF3E  F02A         	goto	l6403
 11497  00548C  EF60  F02A         	goto	l6417
 11498  005490                     l6407:
 11499                           
 11500                           ; BSR set to: 0
 11501  005490  0E1F               	movlw	31
 11502  005492  65A2               	cpfsgt	___fltol@exp1& (0+255),b
 11503  005494  EF4E  F02A         	goto	u6131
 11504  005498  EF50  F02A         	goto	u6130
 11505  00549C                     u6131:
 11506  00549C  EF58  F02A         	goto	l6415
 11507  0054A0                     u6130:
 11508  0054A0  EF01  F02A         	goto	l6383
 11509  0054A4                     l6413:
 11510                           
 11511                           ; BSR set to: 0
 11512  0054A4  90D8               	bcf	status,0,c
 11513  0054A6  3799               	rlcf	___fltol@f1& (0+255),f,b
 11514  0054A8  379A               	rlcf	(___fltol@f1+1)& (0+255),f,b
 11515  0054AA  379B               	rlcf	(___fltol@f1+2)& (0+255),f,b
 11516  0054AC  379C               	rlcf	(___fltol@f1+3)& (0+255),f,b
 11517  0054AE  07A2               	decf	___fltol@exp1& (0+255),f,b
 11518  0054B0                     l6415:
 11519                           
 11520                           ; BSR set to: 0
 11521  0054B0  51A2               	movf	___fltol@exp1& (0+255),w,b
 11522  0054B2  A4D8               	btfss	status,2,c
 11523  0054B4  EF5E  F02A         	goto	u6141
 11524  0054B8  EF60  F02A         	goto	u6140
 11525  0054BC                     u6141:
 11526  0054BC  EF52  F02A         	goto	l6413
 11527  0054C0                     u6140:
 11528  0054C0                     l6417:
 11529                           
 11530                           ; BSR set to: 0
 11531  0054C0  51A1               	movf	___fltol@sign1& (0+255),w,b
 11532  0054C2  B4D8               	btfsc	status,2,c
 11533  0054C4  EF66  F02A         	goto	u6151
 11534  0054C8  EF68  F02A         	goto	u6150
 11535  0054CC                     u6151:
 11536  0054CC  EF70  F02A         	goto	l6421
 11537  0054D0                     u6150:
 11538  0054D0                     
 11539                           ; BSR set to: 0
 11540  0054D0  1F9C               	comf	(___fltol@f1+3)& (0+255),f,b
 11541  0054D2  1F9B               	comf	(___fltol@f1+2)& (0+255),f,b
 11542  0054D4  1F9A               	comf	(___fltol@f1+1)& (0+255),f,b
 11543  0054D6  6D99               	negf	___fltol@f1& (0+255),b
 11544  0054D8  0E00               	movlw	0
 11545  0054DA  239A               	addwfc	(___fltol@f1+1)& (0+255),f,b
 11546  0054DC  239B               	addwfc	(___fltol@f1+2)& (0+255),f,b
 11547  0054DE  239C               	addwfc	(___fltol@f1+3)& (0+255),f,b
 11548  0054E0                     l6421:
 11549                           
 11550                           ; BSR set to: 0
 11551  0054E0  C099  F099         	movff	___fltol@f1,?___fltol
 11552  0054E4  C09A  F09A         	movff	___fltol@f1+1,?___fltol+1
 11553  0054E8  C09B  F09B         	movff	___fltol@f1+2,?___fltol+2
 11554  0054EC  C09C  F09C         	movff	___fltol@f1+3,?___fltol+3
 11555  0054F0                     l1068:
 11556                           
 11557                           ; BSR set to: 0
 11558  0054F0  0012               	return		;funcret
 11559  0054F2                     __end_of___fltol:
 11560                           	opt callstack 0
 11561                           
 11562 ;; *************** function ___awdiv *****************
 11563 ;; Defined at:
 11564 ;;		line 7 in file "C:\Program Files (x86)\Microchip\xc8\v2.10\pic\sources\c99\common\awdiv.c"
 11565 ;; Parameters:    Size  Location     Type
 11566 ;;  dividend        2    8[COMRAM] int 
 11567 ;;  divisor         2   10[COMRAM] int 
 11568 ;; Auto vars:     Size  Location     Type
 11569 ;;  quotient        2   14[COMRAM] int 
 11570 ;;  sign            1   13[COMRAM] unsigned char 
 11571 ;;  counter         1   12[COMRAM] unsigned char 
 11572 ;; Return value:  Size  Location     Type
 11573 ;;                  2    8[COMRAM] int 
 11574 ;; Registers used:
 11575 ;;		wreg, status,2, status,0
 11576 ;; Tracked objects:
 11577 ;;		On entry : 0/0
 11578 ;;		On exit  : 0/0
 11579 ;;		Unchanged: 0/0
 11580 ;; Data sizes:     COMRAM   BANK0   BANK1   BANK2   BANK3   BANK4   BANK5   BANK6   BANK7   BANK8   BANK9  BANK10  BANK1
      +1  BANK12  BANK13  BANK14  BANK15
 11581 ;;      Params:         4       0       0       0       0       0       0       0       0       0       0       0       
      +0       0       0       0       0
 11582 ;;      Locals:         4       0       0       0       0       0       0       0       0       0       0       0       
      +0       0       0       0       0
 11583 ;;      Temps:          0       0       0       0       0       0       0       0       0       0       0       0       
      +0       0       0       0       0
 11584 ;;      Totals:         8       0       0       0       0       0       0       0       0       0       0       0       
      +0       0       0       0       0
 11585 ;;Total ram usage:        8 bytes
 11586 ;; Hardware stack levels used:    1
 11587 ;; Hardware stack levels required when called:    3
 11588 ;; This function calls:
 11589 ;;		Nothing
 11590 ;; This function is called by:
 11591 ;;		_preCalculate
 11592 ;;		_disp_Changed
 11593 ;;		_disp_Clock
 11594 ;;		_disp_Changed_SW
 11595 ;;		_disp_Clock_SW
 11596 ;; This function uses a non-reentrant model
 11597 ;;
 11598                           
 11599                           	psect	text35
 11600  0058BE                     __ptext35:
 11601                           	opt callstack 0
 11602  0058BE                     ___awdiv:
 11603                           	opt callstack 25
 11604  0058BE  0E00               	movlw	0
 11605  0058C0  6E0E               	movwf	___awdiv@sign^0,c
 11606  0058C2  BE0C               	btfsc	(___awdiv@divisor+1)^0,7,c
 11607  0058C4  EF68  F02C         	goto	u4450
 11608  0058C8  EF66  F02C         	goto	u4451
 11609  0058CC                     u4451:
 11610  0058CC  EF6E  F02C         	goto	l4965
 11611  0058D0                     u4450:
 11612  0058D0  6C0B               	negf	___awdiv@divisor^0,c
 11613  0058D2  1E0C               	comf	(___awdiv@divisor+1)^0,f,c
 11614  0058D4  B0D8               	btfsc	status,0,c
 11615  0058D6  2A0C               	incf	(___awdiv@divisor+1)^0,f,c
 11616  0058D8  0E01               	movlw	1
 11617  0058DA  6E0E               	movwf	___awdiv@sign^0,c
 11618  0058DC                     l4965:
 11619  0058DC  BE0A               	btfsc	(___awdiv@dividend+1)^0,7,c
 11620  0058DE  EF75  F02C         	goto	u4460
 11621  0058E2  EF73  F02C         	goto	u4461
 11622  0058E6                     u4461:
 11623  0058E6  EF7B  F02C         	goto	l4971
 11624  0058EA                     u4460:
 11625  0058EA  6C09               	negf	___awdiv@dividend^0,c
 11626  0058EC  1E0A               	comf	(___awdiv@dividend+1)^0,f,c
 11627  0058EE  B0D8               	btfsc	status,0,c
 11628  0058F0  2A0A               	incf	(___awdiv@dividend+1)^0,f,c
 11629  0058F2  0E01               	movlw	1
 11630  0058F4  1A0E               	xorwf	___awdiv@sign^0,f,c
 11631  0058F6                     l4971:
 11632  0058F6  0E00               	movlw	0
 11633  0058F8  6E10               	movwf	(___awdiv@quotient+1)^0,c
 11634  0058FA  0E00               	movlw	0
 11635  0058FC  6E0F               	movwf	___awdiv@quotient^0,c
 11636  0058FE  500B               	movf	___awdiv@divisor^0,w,c
 11637  005900  100C               	iorwf	(___awdiv@divisor+1)^0,w,c
 11638  005902  B4D8               	btfsc	status,2,c
 11639  005904  EF86  F02C         	goto	u4471
 11640  005908  EF88  F02C         	goto	u4470
 11641  00590C                     u4471:
 11642  00590C  EFB0  F02C         	goto	l4993
 11643  005910                     u4470:
 11644  005910  0E01               	movlw	1
 11645  005912  6E0D               	movwf	___awdiv@counter^0,c
 11646  005914  EF90  F02C         	goto	l4979
 11647  005918                     l4977:
 11648  005918  90D8               	bcf	status,0,c
 11649  00591A  360B               	rlcf	___awdiv@divisor^0,f,c
 11650  00591C  360C               	rlcf	(___awdiv@divisor+1)^0,f,c
 11651  00591E  2A0D               	incf	___awdiv@counter^0,f,c
 11652  005920                     l4979:
 11653  005920  AE0C               	btfss	(___awdiv@divisor+1)^0,7,c
 11654  005922  EF95  F02C         	goto	u4481
 11655  005926  EF97  F02C         	goto	u4480
 11656  00592A                     u4481:
 11657  00592A  EF8C  F02C         	goto	l4977
 11658  00592E                     u4480:
 11659  00592E                     l4981:
 11660  00592E  90D8               	bcf	status,0,c
 11661  005930  360F               	rlcf	___awdiv@quotient^0,f,c
 11662  005932  3610               	rlcf	(___awdiv@quotient+1)^0,f,c
 11663  005934  500B               	movf	___awdiv@divisor^0,w,c
 11664  005936  5C09               	subwf	___awdiv@dividend^0,w,c
 11665  005938  500C               	movf	(___awdiv@divisor+1)^0,w,c
 11666  00593A  580A               	subwfb	(___awdiv@dividend+1)^0,w,c
 11667  00593C  A0D8               	btfss	status,0,c
 11668  00593E  EFA3  F02C         	goto	u4491
 11669  005942  EFA5  F02C         	goto	u4490
 11670  005946                     u4491:
 11671  005946  EFAA  F02C         	goto	l4989
 11672  00594A                     u4490:
 11673  00594A  500B               	movf	___awdiv@divisor^0,w,c
 11674  00594C  5E09               	subwf	___awdiv@dividend^0,f,c
 11675  00594E  500C               	movf	(___awdiv@divisor+1)^0,w,c
 11676  005950  5A0A               	subwfb	(___awdiv@dividend+1)^0,f,c
 11677  005952  800F               	bsf	___awdiv@quotient^0,0,c
 11678  005954                     l4989:
 11679  005954  90D8               	bcf	status,0,c
 11680  005956  320C               	rrcf	(___awdiv@divisor+1)^0,f,c
 11681  005958  320B               	rrcf	___awdiv@divisor^0,f,c
 11682  00595A  2E0D               	decfsz	___awdiv@counter^0,f,c
 11683  00595C  EF97  F02C         	goto	l4981
 11684  005960                     l4993:
 11685  005960  500E               	movf	___awdiv@sign^0,w,c
 11686  005962  B4D8               	btfsc	status,2,c
 11687  005964  EFB6  F02C         	goto	u4501
 11688  005968  EFB8  F02C         	goto	u4500
 11689  00596C                     u4501:
 11690  00596C  EFBC  F02C         	goto	l4997
 11691  005970                     u4500:
 11692  005970  6C0F               	negf	___awdiv@quotient^0,c
 11693  005972  1E10               	comf	(___awdiv@quotient+1)^0,f,c
 11694  005974  B0D8               	btfsc	status,0,c
 11695  005976  2A10               	incf	(___awdiv@quotient+1)^0,f,c
 11696  005978                     l4997:
 11697  005978  C00F  F009         	movff	___awdiv@quotient,?___awdiv
 11698  00597C  C010  F00A         	movff	___awdiv@quotient+1,?___awdiv+1
 11699  005980  0012               	return		;funcret
 11700  005982                     __end_of___awdiv:
 11701                           	opt callstack 0
 11702                           
 11703 ;; *************** function _pin_init *****************
 11704 ;; Defined at:
 11705 ;;		line 4 in file "pin_manager.c"
 11706 ;; Parameters:    Size  Location     Type
 11707 ;;		None
 11708 ;; Auto vars:     Size  Location     Type
 11709 ;;		None
 11710 ;; Return value:  Size  Location     Type
 11711 ;;                  1    wreg      void 
 11712 ;; Registers used:
 11713 ;;		wreg, status,2
 11714 ;; Tracked objects:
 11715 ;;		On entry : 0/0
 11716 ;;		On exit  : 0/0
 11717 ;;		Unchanged: 0/0
 11718 ;; Data sizes:     COMRAM   BANK0   BANK1   BANK2   BANK3   BANK4   BANK5   BANK6   BANK7   BANK8   BANK9  BANK10  BANK1
      +1  BANK12  BANK13  BANK14  BANK15
 11719 ;;      Params:         0       0       0       0       0       0       0       0       0       0       0       0       
      +0       0       0       0       0
 11720 ;;      Locals:         0       0       0       0       0       0       0       0       0       0       0       0       
      +0       0       0       0       0
 11721 ;;      Temps:          0       0       0       0       0       0       0       0       0       0       0       0       
      +0       0       0       0       0
 11722 ;;      Totals:         0       0       0       0       0       0       0       0       0       0       0       0       
      +0       0       0       0       0
 11723 ;;Total ram usage:        0 bytes
 11724 ;; Hardware stack levels used:    1
 11725 ;; Hardware stack levels required when called:    3
 11726 ;; This function calls:
 11727 ;;		Nothing
 11728 ;; This function is called by:
 11729 ;;		_SYSTEM_Initialize
 11730 ;; This function uses a non-reentrant model
 11731 ;;
 11732                           
 11733                           	psect	text36
 11734  00649C                     __ptext36:
 11735                           	opt callstack 0
 11736  00649C                     _pin_init:
 11737                           	opt callstack 26
 11738  00649C                     
 11739                           ;pin_manager.c: 5:     TRISD = 0x00;
 11740  00649C  0E00               	movlw	0
 11741  00649E  6E95               	movwf	149,c	;volatile
 11742                           
 11743                           ;pin_manager.c: 6:     LATD = 0x00;
 11744  0064A0  0E00               	movlw	0
 11745  0064A2  6E8C               	movwf	140,c	;volatile
 11746                           
 11747                           ;pin_manager.c: 14:     LATA = 0x00;
 11748  0064A4  0E00               	movlw	0
 11749  0064A6  6E89               	movwf	137,c	;volatile
 11750                           
 11751                           ;pin_manager.c: 15:     TRISA = 0xF3;
 11752  0064A8  0EF3               	movlw	243
 11753  0064AA  6E92               	movwf	146,c	;volatile
 11754                           
 11755                           ;pin_manager.c: 18:     LATB = 0x00;
 11756  0064AC  0E00               	movlw	0
 11757  0064AE  6E8A               	movwf	138,c	;volatile
 11758  0064B0                     
 11759                           ;pin_manager.c: 19:     TRISB = 0xFF;
 11760  0064B0  6893               	setf	147,c	;volatile
 11761                           
 11762                           ;pin_manager.c: 23:     LATC = 0x00;
 11763  0064B2  0E00               	movlw	0
 11764  0064B4  6E8B               	movwf	139,c	;volatile
 11765                           
 11766                           ;pin_manager.c: 24:     TRISC = 0xD7;
 11767  0064B6  0ED7               	movlw	215
 11768  0064B8  6E94               	movwf	148,c	;volatile
 11769                           
 11770                           ;pin_manager.c: 25:     ADCON1 = 0b00001111;
 11771  0064BA  0E0F               	movlw	15
 11772  0064BC  6EC1               	movwf	193,c	;volatile
 11773  0064BE  0012               	return		;funcret
 11774  0064C0                     __end_of_pin_init:
 11775                           	opt callstack 0
 11776                           
 11777 ;; *************** function _osc_init *****************
 11778 ;; Defined at:
 11779 ;;		line 4 in file "osc_manager.c"
 11780 ;; Parameters:    Size  Location     Type
 11781 ;;		None
 11782 ;; Auto vars:     Size  Location     Type
 11783 ;;		None
 11784 ;; Return value:  Size  Location     Type
 11785 ;;                  1    wreg      void 
 11786 ;; Registers used:
 11787 ;;		wreg, status,2
 11788 ;; Tracked objects:
 11789 ;;		On entry : 0/0
 11790 ;;		On exit  : 0/0
 11791 ;;		Unchanged: 0/0
 11792 ;; Data sizes:     COMRAM   BANK0   BANK1   BANK2   BANK3   BANK4   BANK5   BANK6   BANK7   BANK8   BANK9  BANK10  BANK1
      +1  BANK12  BANK13  BANK14  BANK15
 11793 ;;      Params:         0       0       0       0       0       0       0       0       0       0       0       0       
      +0       0       0       0       0
 11794 ;;      Locals:         0       0       0       0       0       0       0       0       0       0       0       0       
      +0       0       0       0       0
 11795 ;;      Temps:          0       0       0       0       0       0       0       0       0       0       0       0       
      +0       0       0       0       0
 11796 ;;      Totals:         0       0       0       0       0       0       0       0       0       0       0       0       
      +0       0       0       0       0
 11797 ;;Total ram usage:        0 bytes
 11798 ;; Hardware stack levels used:    1
 11799 ;; Hardware stack levels required when called:    3
 11800 ;; This function calls:
 11801 ;;		Nothing
 11802 ;; This function is called by:
 11803 ;;		_SYSTEM_Initialize
 11804 ;; This function uses a non-reentrant model
 11805 ;;
 11806                           
 11807                           	psect	text37
 11808  006556                     __ptext37:
 11809                           	opt callstack 0
 11810  006556                     _osc_init:
 11811                           	opt callstack 26
 11812  006556                     
 11813                           ;osc_manager.c: 5:     OSCCON = 0x70;
 11814  006556  0E70               	movlw	112
 11815  006558  6ED3               	movwf	211,c	;volatile
 11816  00655A  0012               	return		;funcret
 11817  00655C                     __end_of_osc_init:
 11818                           	opt callstack 0
 11819                           
 11820 ;; *************** function _interrupt_init *****************
 11821 ;; Defined at:
 11822 ;;		line 6 in file "interrupt_manager.c"
 11823 ;; Parameters:    Size  Location     Type
 11824 ;;		None
 11825 ;; Auto vars:     Size  Location     Type
 11826 ;;		None
 11827 ;; Return value:  Size  Location     Type
 11828 ;;                  1    wreg      void 
 11829 ;; Registers used:
 11830 ;;		None
 11831 ;; Tracked objects:
 11832 ;;		On entry : 0/0
 11833 ;;		On exit  : 0/0
 11834 ;;		Unchanged: 0/0
 11835 ;; Data sizes:     COMRAM   BANK0   BANK1   BANK2   BANK3   BANK4   BANK5   BANK6   BANK7   BANK8   BANK9  BANK10  BANK1
      +1  BANK12  BANK13  BANK14  BANK15
 11836 ;;      Params:         0       0       0       0       0       0       0       0       0       0       0       0       
      +0       0       0       0       0
 11837 ;;      Locals:         0       0       0       0       0       0       0       0       0       0       0       0       
      +0       0       0       0       0
 11838 ;;      Temps:          0       0       0       0       0       0       0       0       0       0       0       0       
      +0       0       0       0       0
 11839 ;;      Totals:         0       0       0       0       0       0       0       0       0       0       0       0       
      +0       0       0       0       0
 11840 ;;Total ram usage:        0 bytes
 11841 ;; Hardware stack levels used:    1
 11842 ;; Hardware stack levels required when called:    3
 11843 ;; This function calls:
 11844 ;;		Nothing
 11845 ;; This function is called by:
 11846 ;;		_SYSTEM_Initialize
 11847 ;; This function uses a non-reentrant model
 11848 ;;
 11849                           
 11850                           	psect	text38
 11851  00654C                     __ptext38:
 11852                           	opt callstack 0
 11853  00654C                     _interrupt_init:
 11854                           	opt callstack 26
 11855  00654C                     
 11856                           ;interrupt_manager.c: 7:     INTCONbits.GIE = 1;
 11857  00654C  8EF2               	bsf	242,7,c	;volatile
 11858                           
 11859                           ;interrupt_manager.c: 8:     INTCONbits.PEIE = 1;
 11860  00654E  8CF2               	bsf	242,6,c	;volatile
 11861                           
 11862                           ;interrupt_manager.c: 9:     INTCONbits.TMR0IE = 1;
 11863  006550  8AF2               	bsf	242,5,c	;volatile
 11864                           
 11865                           ;interrupt_manager.c: 10:     INTCONbits.TMR0IF = 0;
 11866  006552  94F2               	bcf	242,2,c	;volatile
 11867  006554  0012               	return		;funcret
 11868  006556                     __end_of_interrupt_init:
 11869                           	opt callstack 0
 11870                           
 11871 ;; *************** function _LCDInit *****************
 11872 ;; Defined at:
 11873 ;;		line 46 in file "SPI_LCD.c"
 11874 ;; Parameters:    Size  Location     Type
 11875 ;;		None
 11876 ;; Auto vars:     Size  Location     Type
 11877 ;;		None
 11878 ;; Return value:  Size  Location     Type
 11879 ;;                  1    wreg      void 
 11880 ;; Registers used:
 11881 ;;		wreg, status,2, status,0, cstack
 11882 ;; Tracked objects:
 11883 ;;		On entry : 0/0
 11884 ;;		On exit  : 0/0
 11885 ;;		Unchanged: 0/0
 11886 ;; Data sizes:     COMRAM   BANK0   BANK1   BANK2   BANK3   BANK4   BANK5   BANK6   BANK7   BANK8   BANK9  BANK10  BANK1
      +1  BANK12  BANK13  BANK14  BANK15
 11887 ;;      Params:         0       0       0       0       0       0       0       0       0       0       0       0       
      +0       0       0       0       0
 11888 ;;      Locals:         0       0       0       0       0       0       0       0       0       0       0       0       
      +0       0       0       0       0
 11889 ;;      Temps:          1       0       0       0       0       0       0       0       0       0       0       0       
      +0       0       0       0       0
 11890 ;;      Totals:         1       0       0       0       0       0       0       0       0       0       0       0       
      +0       0       0       0       0
 11891 ;;Total ram usage:        1 bytes
 11892 ;; Hardware stack levels used:    1
 11893 ;; Hardware stack levels required when called:    6
 11894 ;; This function calls:
 11895 ;;		_InitBBSPI
 11896 ;;		_LCDPutInst
 11897 ;;		_Port_BBSPIInit
 11898 ;;		_WritePort_BBSPI
 11899 ;; This function is called by:
 11900 ;;		_SYSTEM_Initialize
 11901 ;; This function uses a non-reentrant model
 11902 ;;
 11903                           
 11904                           	psect	text39
 11905  0060B8                     __ptext39:
 11906                           	opt callstack 0
 11907  0060B8                     _LCDInit:
 11908                           	opt callstack 23
 11909  0060B8                     
 11910                           ;SPI_LCD.c: 48:     InitBBSPI();
 11911  0060B8  EC96  F032         	call	_InitBBSPI	;wreg free
 11912  0060BC                     
 11913                           ;SPI_LCD.c: 49:     TRISFbits.TRISF6 = 0;
 11914  0060BC  9C97               	bcf	151,6,c	;volatile
 11915  0060BE                     
 11916                           ;SPI_LCD.c: 50:     LATFbits.LATF6 = 0;
 11917  0060BE  9C8E               	bcf	142,6,c	;volatile
 11918  0060C0                     
 11919                           ;SPI_LCD.c: 51:     _delay((unsigned long)((5)*(8000000/4000.0)));
 11920  0060C0  0E0D               	movlw	13
 11921  0060C2  6E0F               	movwf	??_LCDInit^0,c
 11922  0060C4  0EFC               	movlw	252
 11923  0060C6                     u6227:
 11924  0060C6  2EE8               	decfsz	wreg,f,c
 11925  0060C8  D7FE               	bra	u6227
 11926  0060CA  2E0F               	decfsz	??_LCDInit^0,f,c
 11927  0060CC  D7FC               	bra	u6227
 11928  0060CE                     
 11929                           ;SPI_LCD.c: 52:     LATFbits.LATF6 = 1;
 11930  0060CE  8C8E               	bsf	142,6,c	;volatile
 11931  0060D0                     
 11932                           ;SPI_LCD.c: 53:     Port_BBSPIInit (0x00);
 11933  0060D0  0E00               	movlw	0
 11934  0060D2  EC71  F032         	call	_Port_BBSPIInit
 11935  0060D6                     
 11936                           ;SPI_LCD.c: 54:     Port_BBSPIInit (0x01);
 11937  0060D6  0E01               	movlw	1
 11938  0060D8  EC71  F032         	call	_Port_BBSPIInit
 11939  0060DC                     
 11940                           ;SPI_LCD.c: 55:     WritePort_BBSPI (0x12, 0);
 11941  0060DC  0E00               	movlw	0
 11942  0060DE  6E0C               	movwf	WritePort_BBSPI@a^0,c
 11943  0060E0  0E12               	movlw	18
 11944  0060E2  EC7E  F032         	call	_WritePort_BBSPI
 11945  0060E6                     
 11946                           ;SPI_LCD.c: 56:     _delay((unsigned long)((15)*(8000000/4000.0)));
 11947  0060E6  0E27               	movlw	39
 11948  0060E8  6E0F               	movwf	??_LCDInit^0,c
 11949  0060EA  0EF5               	movlw	245
 11950  0060EC                     u6237:
 11951  0060EC  2EE8               	decfsz	wreg,f,c
 11952  0060EE  D7FE               	bra	u6237
 11953  0060F0  2E0F               	decfsz	??_LCDInit^0,f,c
 11954  0060F2  D7FC               	bra	u6237
 11955  0060F4  F000               	nop	
 11956  0060F6                     
 11957                           ;SPI_LCD.c: 57:     LCDPutInst(0x32);
 11958  0060F6  0E32               	movlw	50
 11959  0060F8  EC53  F031         	call	_LCDPutInst
 11960  0060FC                     
 11961                           ;SPI_LCD.c: 58:     LCDPutInst(0x3C);
 11962  0060FC  0E3C               	movlw	60
 11963  0060FE  EC53  F031         	call	_LCDPutInst
 11964  006102                     
 11965                           ;SPI_LCD.c: 59:     LCDPutInst(0x0C);
 11966  006102  0E0C               	movlw	12
 11967  006104  EC53  F031         	call	_LCDPutInst
 11968  006108                     
 11969                           ;SPI_LCD.c: 60:     LCDPutInst(0x01);
 11970  006108  0E01               	movlw	1
 11971  00610A  EC53  F031         	call	_LCDPutInst
 11972  00610E                     
 11973                           ;SPI_LCD.c: 61:     LCDPutInst(0x06);
 11974  00610E  0E06               	movlw	6
 11975  006110  EC53  F031         	call	_LCDPutInst
 11976  006114  0012               	return		;funcret
 11977  006116                     __end_of_LCDInit:
 11978                           	opt callstack 0
 11979                           
 11980 ;; *************** function _Port_BBSPIInit *****************
 11981 ;; Defined at:
 11982 ;;		line 124 in file "SPI_LCD.c"
 11983 ;; Parameters:    Size  Location     Type
 11984 ;;  port_dir        1    wreg     unsigned char 
 11985 ;; Auto vars:     Size  Location     Type
 11986 ;;  port_dir        1   11[COMRAM] unsigned char 
 11987 ;; Return value:  Size  Location     Type
 11988 ;;                  1    wreg      void 
 11989 ;; Registers used:
 11990 ;;		wreg, status,2, status,0, cstack
 11991 ;; Tracked objects:
 11992 ;;		On entry : 0/0
 11993 ;;		On exit  : 0/0
 11994 ;;		Unchanged: 0/0
 11995 ;; Data sizes:     COMRAM   BANK0   BANK1   BANK2   BANK3   BANK4   BANK5   BANK6   BANK7   BANK8   BANK9  BANK10  BANK1
      +1  BANK12  BANK13  BANK14  BANK15
 11996 ;;      Params:         0       0       0       0       0       0       0       0       0       0       0       0       
      +0       0       0       0       0
 11997 ;;      Locals:         1       0       0       0       0       0       0       0       0       0       0       0       
      +0       0       0       0       0
 11998 ;;      Temps:          0       0       0       0       0       0       0       0       0       0       0       0       
      +0       0       0       0       0
 11999 ;;      Totals:         1       0       0       0       0       0       0       0       0       0       0       0       
      +0       0       0       0       0
 12000 ;;Total ram usage:        1 bytes
 12001 ;; Hardware stack levels used:    1
 12002 ;; Hardware stack levels required when called:    4
 12003 ;; This function calls:
 12004 ;;		_SendByteBBSPI
 12005 ;; This function is called by:
 12006 ;;		_LCDInit
 12007 ;; This function uses a non-reentrant model
 12008 ;;
 12009                           
 12010                           	psect	text40
 12011  0064E2                     __ptext40:
 12012                           	opt callstack 0
 12013  0064E2                     _Port_BBSPIInit:
 12014                           	opt callstack 24
 12015                           
 12016                           ;incstack = 0
 12017                           ;Port_BBSPIInit@port_dir stored from wreg
 12018  0064E2  6E0C               	movwf	Port_BBSPIInit@port_dir^0,c
 12019  0064E4                     
 12020                           ;SPI_LCD.c: 124: void Port_BBSPIInit (unsigned char port_dir);SPI_LCD.c: 125: {;SPI_LCD.
      +                          c: 129:     LATAbits.LATA2 = 0;
 12021  0064E4  9489               	bcf	137,2,c	;volatile
 12022  0064E6                     
 12023                           ;SPI_LCD.c: 130:     SendByteBBSPI(0x40);
 12024  0064E6  0E40               	movlw	64
 12025  0064E8  EC2A  F030         	call	_SendByteBBSPI
 12026                           
 12027                           ;SPI_LCD.c: 131:     SendByteBBSPI(port_dir);
 12028  0064EC  500C               	movf	Port_BBSPIInit@port_dir^0,w,c
 12029  0064EE  EC2A  F030         	call	_SendByteBBSPI
 12030                           
 12031                           ;SPI_LCD.c: 132:     SendByteBBSPI(0x00);
 12032  0064F2  0E00               	movlw	0
 12033  0064F4  EC2A  F030         	call	_SendByteBBSPI
 12034  0064F8                     
 12035                           ;SPI_LCD.c: 133:     LATAbits.LATA2 = 1;
 12036  0064F8  8489               	bsf	137,2,c	;volatile
 12037  0064FA  0012               	return		;funcret
 12038  0064FC                     __end_of_Port_BBSPIInit:
 12039                           	opt callstack 0
 12040                           
 12041 ;; *************** function _LCDPutInst *****************
 12042 ;; Defined at:
 12043 ;;		line 204 in file "SPI_LCD.c"
 12044 ;; Parameters:    Size  Location     Type
 12045 ;;  ch              1    wreg     unsigned char 
 12046 ;; Auto vars:     Size  Location     Type
 12047 ;;  ch              1   13[COMRAM] unsigned char 
 12048 ;; Return value:  Size  Location     Type
 12049 ;;                  1    wreg      void 
 12050 ;; Registers used:
 12051 ;;		wreg, status,2, status,0, cstack
 12052 ;; Tracked objects:
 12053 ;;		On entry : 0/0
 12054 ;;		On exit  : 0/0
 12055 ;;		Unchanged: 0/0
 12056 ;; Data sizes:     COMRAM   BANK0   BANK1   BANK2   BANK3   BANK4   BANK5   BANK6   BANK7   BANK8   BANK9  BANK10  BANK1
      +1  BANK12  BANK13  BANK14  BANK15
 12057 ;;      Params:         0       0       0       0       0       0       0       0       0       0       0       0       
      +0       0       0       0       0
 12058 ;;      Locals:         1       0       0       0       0       0       0       0       0       0       0       0       
      +0       0       0       0       0
 12059 ;;      Temps:          0       0       0       0       0       0       0       0       0       0       0       0       
      +0       0       0       0       0
 12060 ;;      Totals:         1       0       0       0       0       0       0       0       0       0       0       0       
      +0       0       0       0       0
 12061 ;;Total ram usage:        1 bytes
 12062 ;; Hardware stack levels used:    1
 12063 ;; Hardware stack levels required when called:    5
 12064 ;; This function calls:
 12065 ;;		_WritePort_BBSPI
 12066 ;; This function is called by:
 12067 ;;		_LCDInit
 12068 ;;		_LCDMoveCursor
 12069 ;;		_disp_Clock
 12070 ;;		_state_clock
 12071 ;;		_disp_Clock_SW
 12072 ;;		_state_stop_watch
 12073 ;;		_state_set_hour
 12074 ;;		_state_set_minute
 12075 ;;		_state_set_second
 12076 ;; This function uses a non-reentrant model
 12077 ;;
 12078                           
 12079                           	psect	text41
 12080  0062A6                     __ptext41:
 12081                           	opt callstack 0
 12082  0062A6                     _LCDPutInst:
 12083                           	opt callstack 23
 12084                           
 12085                           ;incstack = 0
 12086                           ;LCDPutInst@ch stored from wreg
 12087  0062A6  6E0E               	movwf	LCDPutInst@ch^0,c
 12088  0062A8                     
 12089                           ;SPI_LCD.c: 204: void LCDPutInst (unsigned char ch);SPI_LCD.c: 205: {;SPI_LCD.c: 206:   
      +                            _delay((unsigned long)((100)*(8000000/4000000.0)));
 12090  0062A8  0E42               	movlw	66
 12091  0062AA                     u6247:
 12092  0062AA  2EE8               	decfsz	wreg,f,c
 12093  0062AC  D7FE               	bra	u6247
 12094  0062AE  D000               	nop2	
 12095  0062B0                     
 12096                           ;SPI_LCD.c: 207:     WritePort_BBSPI (0x12, 0x00);
 12097  0062B0  0E00               	movlw	0
 12098  0062B2  6E0C               	movwf	WritePort_BBSPI@a^0,c
 12099  0062B4  0E12               	movlw	18
 12100  0062B6  EC7E  F032         	call	_WritePort_BBSPI
 12101  0062BA                     
 12102                           ;SPI_LCD.c: 208:     _delay((unsigned long)((10)*(8000000/4000000.0)));
 12103  0062BA  0E06               	movlw	6
 12104  0062BC                     u6257:
 12105  0062BC  2EE8               	decfsz	wreg,f,c
 12106  0062BE  D7FE               	bra	u6257
 12107  0062C0  D000               	nop2	
 12108  0062C2                     
 12109                           ;SPI_LCD.c: 209:     WritePort_BBSPI (0x13, ch);
 12110  0062C2  C00E  F00C         	movff	LCDPutInst@ch,WritePort_BBSPI@a
 12111  0062C6  0E13               	movlw	19
 12112  0062C8  EC7E  F032         	call	_WritePort_BBSPI
 12113  0062CC                     
 12114                           ;SPI_LCD.c: 210:     _delay((unsigned long)((10)*(8000000/4000000.0)));
 12115  0062CC  0E06               	movlw	6
 12116  0062CE                     u6267:
 12117  0062CE  2EE8               	decfsz	wreg,f,c
 12118  0062D0  D7FE               	bra	u6267
 12119  0062D2  D000               	nop2	
 12120  0062D4                     
 12121                           ;SPI_LCD.c: 211:     WritePort_BBSPI (0x12,0x40);
 12122  0062D4  0E40               	movlw	64
 12123  0062D6  6E0C               	movwf	WritePort_BBSPI@a^0,c
 12124  0062D8  0E12               	movlw	18
 12125  0062DA  EC7E  F032         	call	_WritePort_BBSPI
 12126  0062DE                     
 12127                           ;SPI_LCD.c: 212:     _delay((unsigned long)((10)*(8000000/4000000.0)));
 12128  0062DE  0E06               	movlw	6
 12129  0062E0                     u6277:
 12130  0062E0  2EE8               	decfsz	wreg,f,c
 12131  0062E2  D7FE               	bra	u6277
 12132  0062E4  D000               	nop2	
 12133  0062E6                     
 12134                           ;SPI_LCD.c: 213:     WritePort_BBSPI (0x12, 0x00);
 12135  0062E6  0E00               	movlw	0
 12136  0062E8  6E0C               	movwf	WritePort_BBSPI@a^0,c
 12137  0062EA  0E12               	movlw	18
 12138  0062EC  EC7E  F032         	call	_WritePort_BBSPI
 12139  0062F0  0012               	return		;funcret
 12140  0062F2                     __end_of_LCDPutInst:
 12141                           	opt callstack 0
 12142                           
 12143 ;; *************** function _WritePort_BBSPI *****************
 12144 ;; Defined at:
 12145 ;;		line 145 in file "SPI_LCD.c"
 12146 ;; Parameters:    Size  Location     Type
 12147 ;;  port_add        1    wreg     unsigned char 
 12148 ;;  a               1   11[COMRAM] unsigned char 
 12149 ;; Auto vars:     Size  Location     Type
 12150 ;;  port_add        1   12[COMRAM] unsigned char 
 12151 ;; Return value:  Size  Location     Type
 12152 ;;                  1    wreg      void 
 12153 ;; Registers used:
 12154 ;;		wreg, status,2, status,0, cstack
 12155 ;; Tracked objects:
 12156 ;;		On entry : 0/0
 12157 ;;		On exit  : 0/0
 12158 ;;		Unchanged: 0/0
 12159 ;; Data sizes:     COMRAM   BANK0   BANK1   BANK2   BANK3   BANK4   BANK5   BANK6   BANK7   BANK8   BANK9  BANK10  BANK1
      +1  BANK12  BANK13  BANK14  BANK15
 12160 ;;      Params:         1       0       0       0       0       0       0       0       0       0       0       0       
      +0       0       0       0       0
 12161 ;;      Locals:         1       0       0       0       0       0       0       0       0       0       0       0       
      +0       0       0       0       0
 12162 ;;      Temps:          0       0       0       0       0       0       0       0       0       0       0       0       
      +0       0       0       0       0
 12163 ;;      Totals:         2       0       0       0       0       0       0       0       0       0       0       0       
      +0       0       0       0       0
 12164 ;;Total ram usage:        2 bytes
 12165 ;; Hardware stack levels used:    1
 12166 ;; Hardware stack levels required when called:    4
 12167 ;; This function calls:
 12168 ;;		_SendByteBBSPI
 12169 ;; This function is called by:
 12170 ;;		_LCDInit
 12171 ;;		_LCDPutChar
 12172 ;;		_LCDPutInst
 12173 ;; This function uses a non-reentrant model
 12174 ;;
 12175                           
 12176                           	psect	text42
 12177  0064FC                     __ptext42:
 12178                           	opt callstack 0
 12179  0064FC                     _WritePort_BBSPI:
 12180                           	opt callstack 23
 12181                           
 12182                           ;incstack = 0
 12183                           ;WritePort_BBSPI@port_add stored from wreg
 12184  0064FC  6E0D               	movwf	WritePort_BBSPI@port_add^0,c
 12185  0064FE                     
 12186                           ;SPI_LCD.c: 145: void WritePort_BBSPI (unsigned char port_add, unsigned char a);SPI_LCD.
      +                          c: 146: {;SPI_LCD.c: 147:     LATAbits.LATA2 = 0;
 12187  0064FE  9489               	bcf	137,2,c	;volatile
 12188  006500                     
 12189                           ;SPI_LCD.c: 148:     SendByteBBSPI(0x40);
 12190  006500  0E40               	movlw	64
 12191  006502  EC2A  F030         	call	_SendByteBBSPI
 12192                           
 12193                           ;SPI_LCD.c: 149:     SendByteBBSPI(port_add);
 12194  006506  500D               	movf	WritePort_BBSPI@port_add^0,w,c
 12195  006508  EC2A  F030         	call	_SendByteBBSPI
 12196                           
 12197                           ;SPI_LCD.c: 150:     SendByteBBSPI(a);
 12198  00650C  500C               	movf	WritePort_BBSPI@a^0,w,c
 12199  00650E  EC2A  F030         	call	_SendByteBBSPI
 12200  006512                     
 12201                           ;SPI_LCD.c: 151:     LATAbits.LATA2 = 1;
 12202  006512  8489               	bsf	137,2,c	;volatile
 12203  006514  0012               	return		;funcret
 12204  006516                     __end_of_WritePort_BBSPI:
 12205                           	opt callstack 0
 12206                           
 12207 ;; *************** function _SendByteBBSPI *****************
 12208 ;; Defined at:
 12209 ;;		line 92 in file "SPI_LCD.c"
 12210 ;; Parameters:    Size  Location     Type
 12211 ;;  output          1    wreg     unsigned char 
 12212 ;; Auto vars:     Size  Location     Type
 12213 ;;  output          1    8[COMRAM] unsigned char 
 12214 ;;  input           1   10[COMRAM] unsigned char 
 12215 ;;  bitcount        1    9[COMRAM] unsigned char 
 12216 ;; Return value:  Size  Location     Type
 12217 ;;                  1    wreg      void 
 12218 ;; Registers used:
 12219 ;;		wreg, status,2, status,0
 12220 ;; Tracked objects:
 12221 ;;		On entry : 0/0
 12222 ;;		On exit  : 0/0
 12223 ;;		Unchanged: 0/0
 12224 ;; Data sizes:     COMRAM   BANK0   BANK1   BANK2   BANK3   BANK4   BANK5   BANK6   BANK7   BANK8   BANK9  BANK10  BANK1
      +1  BANK12  BANK13  BANK14  BANK15
 12225 ;;      Params:         0       0       0       0       0       0       0       0       0       0       0       0       
      +0       0       0       0       0
 12226 ;;      Locals:         3       0       0       0       0       0       0       0       0       0       0       0       
      +0       0       0       0       0
 12227 ;;      Temps:          0       0       0       0       0       0       0       0       0       0       0       0       
      +0       0       0       0       0
 12228 ;;      Totals:         3       0       0       0       0       0       0       0       0       0       0       0       
      +0       0       0       0       0
 12229 ;;Total ram usage:        3 bytes
 12230 ;; Hardware stack levels used:    1
 12231 ;; Hardware stack levels required when called:    3
 12232 ;; This function calls:
 12233 ;;		Nothing
 12234 ;; This function is called by:
 12235 ;;		_Port_BBSPIInit
 12236 ;;		_WritePort_BBSPI
 12237 ;; This function uses a non-reentrant model
 12238 ;;
 12239                           
 12240                           	psect	text43
 12241  006054                     __ptext43:
 12242                           	opt callstack 0
 12243  006054                     _SendByteBBSPI:
 12244                           	opt callstack 23
 12245                           
 12246                           ;incstack = 0
 12247                           ;SendByteBBSPI@output stored from wreg
 12248  006054  6E09               	movwf	SendByteBBSPI@output^0,c
 12249  006056                     
 12250                           ;SPI_LCD.c: 92: void SendByteBBSPI (unsigned char output);SPI_LCD.c: 93: {;SPI_LCD.c: 94
      +                          :     unsigned char bitcount;;SPI_LCD.c: 95:     unsigned char input = output;
 12251  006056  C009  F00B         	movff	SendByteBBSPI@output,SendByteBBSPI@input
 12252  00605A                     
 12253                           ;SPI_LCD.c: 97:     for(bitcount=0;bitcount<8;bitcount++)
 12254  00605A  0E00               	movlw	0
 12255  00605C  6E0A               	movwf	SendByteBBSPI@bitcount^0,c
 12256  00605E                     l334:
 12257                           
 12258                           ;SPI_LCD.c: 98:     {;SPI_LCD.c: 100:         if(output & 0x80)
 12259  00605E  AE09               	btfss	SendByteBBSPI@output^0,7,c
 12260  006060  EF34  F030         	goto	u2651
 12261  006064  EF36  F030         	goto	u2650
 12262  006068                     u2651:
 12263  006068  EF39  F030         	goto	l336
 12264  00606C                     u2650:
 12265  00606C                     
 12266                           ;SPI_LCD.c: 101:             LATCbits.LATC5 = 1;
 12267  00606C  8A8B               	bsf	139,5,c	;volatile
 12268  00606E  EF3A  F030         	goto	l337
 12269  006072                     l336:
 12270                           
 12271                           ;SPI_LCD.c: 103:             LATCbits.LATC5 = 0;
 12272  006072  9A8B               	bcf	139,5,c	;volatile
 12273  006074                     l337:
 12274                           
 12275                           ;SPI_LCD.c: 105:         if (LATCbits.LATC4)
 12276  006074  A88B               	btfss	139,4,c	;volatile
 12277  006076  EF3F  F030         	goto	u2661
 12278  00607A  EF41  F030         	goto	u2660
 12279  00607E                     u2661:
 12280  00607E  EF45  F030         	goto	l3747
 12281  006082                     u2660:
 12282  006082                     
 12283                           ;SPI_LCD.c: 106:             input = (input << 1) | 0x1;
 12284  006082  80D8               	bsf	status,0,c
 12285  006084  360B               	rlcf	SendByteBBSPI@input^0,f,c
 12286  006086  EF48  F030         	goto	l3749
 12287  00608A                     l3747:
 12288                           
 12289                           ;SPI_LCD.c: 108:             input = input << 1;
 12290  00608A  500B               	movf	SendByteBBSPI@input^0,w,c
 12291  00608C  240B               	addwf	SendByteBBSPI@input^0,w,c
 12292  00608E  6E0B               	movwf	SendByteBBSPI@input^0,c
 12293  006090                     l3749:
 12294                           
 12295                           ;SPI_LCD.c: 109:         LATCbits.LATC3 = 1;
 12296  006090  868B               	bsf	139,3,c	;volatile
 12297  006092                     
 12298                           ;SPI_LCD.c: 110:         __nop();__nop();__nop();__nop();__nop();__nop();
 12299  006092  F000               	nop	
 12300  006094  F000               	nop	
 12301  006096  F000               	nop	
 12302  006098  F000               	nop	
 12303  00609A  F000               	nop	
 12304  00609C  F000               	nop	
 12305  00609E                     
 12306                           ;SPI_LCD.c: 112:         LATCbits.LATC3 = 0;
 12307  00609E  968B               	bcf	139,3,c	;volatile
 12308                           
 12309                           ;SPI_LCD.c: 113:         output <<= 1;
 12310  0060A0  90D8               	bcf	status,0,c
 12311  0060A2  3609               	rlcf	SendByteBBSPI@output^0,f,c
 12312  0060A4                     
 12313                           ;SPI_LCD.c: 114:     }
 12314  0060A4  2A0A               	incf	SendByteBBSPI@bitcount^0,f,c
 12315  0060A6  0E07               	movlw	7
 12316  0060A8  640A               	cpfsgt	SendByteBBSPI@bitcount^0,c
 12317  0060AA  EF59  F030         	goto	u2671
 12318  0060AE  EF5B  F030         	goto	u2670
 12319  0060B2                     u2671:
 12320  0060B2  EF2F  F030         	goto	l334
 12321  0060B6                     u2670:
 12322  0060B6  0012               	return		;funcret
 12323  0060B8                     __end_of_SendByteBBSPI:
 12324                           	opt callstack 0
 12325                           
 12326 ;; *************** function _InitBBSPI *****************
 12327 ;; Defined at:
 12328 ;;		line 71 in file "SPI_LCD.c"
 12329 ;; Parameters:    Size  Location     Type
 12330 ;;		None
 12331 ;; Auto vars:     Size  Location     Type
 12332 ;;		None
 12333 ;; Return value:  Size  Location     Type
 12334 ;;                  1    wreg      void 
 12335 ;; Registers used:
 12336 ;;		None
 12337 ;; Tracked objects:
 12338 ;;		On entry : 0/0
 12339 ;;		On exit  : 0/0
 12340 ;;		Unchanged: 0/0
 12341 ;; Data sizes:     COMRAM   BANK0   BANK1   BANK2   BANK3   BANK4   BANK5   BANK6   BANK7   BANK8   BANK9  BANK10  BANK1
      +1  BANK12  BANK13  BANK14  BANK15
 12342 ;;      Params:         0       0       0       0       0       0       0       0       0       0       0       0       
      +0       0       0       0       0
 12343 ;;      Locals:         0       0       0       0       0       0       0       0       0       0       0       0       
      +0       0       0       0       0
 12344 ;;      Temps:          0       0       0       0       0       0       0       0       0       0       0       0       
      +0       0       0       0       0
 12345 ;;      Totals:         0       0       0       0       0       0       0       0       0       0       0       0       
      +0       0       0       0       0
 12346 ;;Total ram usage:        0 bytes
 12347 ;; Hardware stack levels used:    1
 12348 ;; Hardware stack levels required when called:    3
 12349 ;; This function calls:
 12350 ;;		Nothing
 12351 ;; This function is called by:
 12352 ;;		_LCDInit
 12353 ;; This function uses a non-reentrant model
 12354 ;;
 12355                           
 12356                           	psect	text44
 12357  00652C                     __ptext44:
 12358                           	opt callstack 0
 12359  00652C                     _InitBBSPI:
 12360                           	opt callstack 25
 12361  00652C                     
 12362                           ;SPI_LCD.c: 73:     TRISAbits.TRISA2 = 0;
 12363  00652C  9492               	bcf	146,2,c	;volatile
 12364                           
 12365                           ;SPI_LCD.c: 74:     TRISCbits.TRISC4 = 1;
 12366  00652E  8894               	bsf	148,4,c	;volatile
 12367                           
 12368                           ;SPI_LCD.c: 75:     TRISCbits.TRISC5 = 0;
 12369  006530  9A94               	bcf	148,5,c	;volatile
 12370                           
 12371                           ;SPI_LCD.c: 76:     TRISCbits.TRISC3 = 0;
 12372  006532  9694               	bcf	148,3,c	;volatile
 12373                           
 12374                           ;SPI_LCD.c: 78:     LATAbits.LATA2 = 1;
 12375  006534  8489               	bsf	137,2,c	;volatile
 12376                           
 12377                           ;SPI_LCD.c: 79:     LATCbits.LATC4 = 1;
 12378  006536  888B               	bsf	139,4,c	;volatile
 12379                           
 12380                           ;SPI_LCD.c: 80:     LATCbits.LATC5 = 0;
 12381  006538  9A8B               	bcf	139,5,c	;volatile
 12382                           
 12383                           ;SPI_LCD.c: 81:     LATCbits.LATC3 = 0;
 12384  00653A  968B               	bcf	139,3,c	;volatile
 12385  00653C  0012               	return		;funcret
 12386  00653E                     __end_of_InitBBSPI:
 12387                           	opt callstack 0
 12388                           
 12389 ;; *************** function _myISR *****************
 12390 ;; Defined at:
 12391 ;;		line 13 in file "interrupt_manager.c"
 12392 ;; Parameters:    Size  Location     Type
 12393 ;;		None
 12394 ;; Auto vars:     Size  Location     Type
 12395 ;;		None
 12396 ;; Return value:  Size  Location     Type
 12397 ;;                  1    wreg      void 
 12398 ;; Registers used:
 12399 ;;		wreg, status,2, status,0, cstack
 12400 ;; Tracked objects:
 12401 ;;		On entry : 0/0
 12402 ;;		On exit  : 0/0
 12403 ;;		Unchanged: 0/0
 12404 ;; Data sizes:     COMRAM   BANK0   BANK1   BANK2   BANK3   BANK4   BANK5   BANK6   BANK7   BANK8   BANK9  BANK10  BANK1
      +1  BANK12  BANK13  BANK14  BANK15
 12405 ;;      Params:         0       0       0       0       0       0       0       0       0       0       0       0       
      +0       0       0       0       0
 12406 ;;      Locals:         0       0       0       0       0       0       0       0       0       0       0       0       
      +0       0       0       0       0
 12407 ;;      Temps:          0       0       0       0       0       0       0       0       0       0       0       0       
      +0       0       0       0       0
 12408 ;;      Totals:         0       0       0       0       0       0       0       0       0       0       0       0       
      +0       0       0       0       0
 12409 ;;Total ram usage:        0 bytes
 12410 ;; Hardware stack levels used:    1
 12411 ;; Hardware stack levels required when called:    2
 12412 ;; This function calls:
 12413 ;;		_handleButton
 12414 ;; This function is called by:
 12415 ;;		Interrupt level 2
 12416 ;; This function uses a non-reentrant model
 12417 ;;
 12418                           
 12419                           	psect	intcode
 12420  000008                     __pintcode:
 12421                           	opt callstack 0
 12422  000008                     _myISR:
 12423                           	opt callstack 21
 12424                           
 12425                           ;incstack = 0
 12426  000008  8257               	bsf	int$flags,1,c	;set compiler interrupt flag (level 2)
 12427  00000A  ED38  F02F         	call	int_func,f	;refresh shadow registers
 12428                           
 12429                           	psect	intcode_body
 12430  005E70                     __pintcode_body:
 12431                           	opt callstack 21
 12432  005E70                     int_func:
 12433                           	opt callstack 21
 12434  005E70  0006               	pop		; remove dummy address from shadow register refresh
 12435  005E72                     
 12436                           ;interrupt_manager.c: 14:     if(INTCONbits.TMR0IE && INTCONbits.TMR0IF) {
 12437  005E72  AAF2               	btfss	242,5,c	;volatile
 12438  005E74  EF3E  F02F         	goto	i2u524_41
 12439  005E78  EF40  F02F         	goto	i2u524_40
 12440  005E7C                     i2u524_41:
 12441  005E7C  EF7E  F02F         	goto	i2l121
 12442  005E80                     i2u524_40:
 12443  005E80  A4F2               	btfss	242,2,c	;volatile
 12444  005E82  EF45  F02F         	goto	i2u525_41
 12445  005E86  EF47  F02F         	goto	i2u525_40
 12446  005E8A                     i2u525_41:
 12447  005E8A  EF7E  F02F         	goto	i2l121
 12448  005E8E                     i2u525_40:
 12449  005E8E                     
 12450                           ;interrupt_manager.c: 15:         INTCONbits.TMR0IF = 0;
 12451  005E8E  94F2               	bcf	242,2,c	;volatile
 12452                           
 12453                           ;interrupt_manager.c: 16:         TMR0L = counter_low;
 12454  005E90  C0D0  FFD6         	movff	_counter_low,4054	;volatile
 12455                           
 12456                           ;interrupt_manager.c: 17:         TMR0H = counter_high;
 12457  005E94  C0CF  FFD7         	movff	_counter_high,4055	;volatile
 12458  005E98                     
 12459                           ;interrupt_manager.c: 18:         handleButton();
 12460  005E98  EC2A  F026         	call	_handleButton	;wreg free
 12461  005E9C                     
 12462                           ;interrupt_manager.c: 19:         count++;
 12463  005E9C  0100               	movlb	0	; () banked
 12464  005E9E  4BBF               	infsnz	_count& (0+255),f,b
 12465  005EA0  2BC0               	incf	(_count+1)& (0+255),f,b
 12466  005EA2                     
 12467                           ; BSR set to: 0
 12468                           ;interrupt_manager.c: 20:         count1++;
 12469  005EA2  4BBD               	infsnz	_count1& (0+255),f,b
 12470  005EA4  2BBE               	incf	(_count1+1)& (0+255),f,b
 12471  005EA6                     
 12472                           ; BSR set to: 0
 12473                           ;interrupt_manager.c: 21:         if(count1 == 10 / 10) {
 12474  005EA6  05BD               	decf	_count1& (0+255),w,b
 12475  005EA8  11BE               	iorwf	(_count1+1)& (0+255),w,b
 12476  005EAA  A4D8               	btfss	status,2,c
 12477  005EAC  EF5A  F02F         	goto	i2u526_41
 12478  005EB0  EF5C  F02F         	goto	i2u526_40
 12479  005EB4                     i2u526_41:
 12480  005EB4  EF62  F02F         	goto	i2l5687
 12481  005EB8                     i2u526_40:
 12482  005EB8                     
 12483                           ; BSR set to: 0
 12484                           ;interrupt_manager.c: 22:             ms_flag = 1;
 12485  005EB8  0E01               	movlw	1
 12486  005EBA  6FCA               	movwf	_ms_flag& (0+255),b
 12487                           
 12488                           ;interrupt_manager.c: 23:             count1 = 0;
 12489  005EBC  0E00               	movlw	0
 12490  005EBE  6FBE               	movwf	(_count1+1)& (0+255),b
 12491  005EC0  0E00               	movlw	0
 12492  005EC2  6FBD               	movwf	_count1& (0+255),b
 12493  005EC4                     i2l5687:
 12494                           
 12495                           ; BSR set to: 0
 12496                           ;interrupt_manager.c: 25:         if(count == 700 / 10) {
 12497  005EC4  0E46               	movlw	70
 12498  005EC6  19BF               	xorwf	_count& (0+255),w,b
 12499  005EC8  11C0               	iorwf	(_count+1)& (0+255),w,b
 12500  005ECA  A4D8               	btfss	status,2,c
 12501  005ECC  EF6A  F02F         	goto	i2u527_41
 12502  005ED0  EF6C  F02F         	goto	i2u527_40
 12503  005ED4                     i2u527_41:
 12504  005ED4  EF6E  F02F         	goto	i2l5691
 12505  005ED8                     i2u527_40:
 12506  005ED8                     
 12507                           ; BSR set to: 0
 12508                           ;interrupt_manager.c: 26:             hide_flag = 1;
 12509  005ED8  0E01               	movlw	1
 12510  005EDA  6FCB               	movwf	_hide_flag& (0+255),b
 12511  005EDC                     i2l5691:
 12512                           
 12513                           ; BSR set to: 0
 12514                           ;interrupt_manager.c: 28:         if(count == 1000 / 10) {
 12515  005EDC  0E64               	movlw	100
 12516  005EDE  19BF               	xorwf	_count& (0+255),w,b
 12517  005EE0  11C0               	iorwf	(_count+1)& (0+255),w,b
 12518  005EE2  A4D8               	btfss	status,2,c
 12519  005EE4  EF76  F02F         	goto	i2u528_41
 12520  005EE8  EF78  F02F         	goto	i2u528_40
 12521  005EEC                     i2u528_41:
 12522  005EEC  EF7E  F02F         	goto	i2l121
 12523  005EF0                     i2u528_40:
 12524  005EF0                     
 12525                           ; BSR set to: 0
 12526                           ;interrupt_manager.c: 29:             count = 0;
 12527  005EF0  0E00               	movlw	0
 12528  005EF2  6FC0               	movwf	(_count+1)& (0+255),b
 12529  005EF4  0E00               	movlw	0
 12530  005EF6  6FBF               	movwf	_count& (0+255),b
 12531                           
 12532                           ;interrupt_manager.c: 30:             second_flag = 1;
 12533  005EF8  0E01               	movlw	1
 12534  005EFA  6FCC               	movwf	_second_flag& (0+255),b
 12535  005EFC                     i2l121:
 12536  005EFC  9257               	bcf	int$flags,1,c	;clear compiler interrupt flag (level 2)
 12537  005EFE  0011               	retfie		f
 12538  005F00                     __end_of_myISR:
 12539                           	opt callstack 0
 12540                           
 12541 ;; *************** function _handleButton *****************
 12542 ;; Defined at:
 12543 ;;		line 39 in file "buttons.c"
 12544 ;; Parameters:    Size  Location     Type
 12545 ;;		None
 12546 ;; Auto vars:     Size  Location     Type
 12547 ;;  checkRB0        2    6[COMRAM] int 
 12548 ;;  checkRA5        2    4[COMRAM] int 
 12549 ;; Return value:  Size  Location     Type
 12550 ;;                  1    wreg      void 
 12551 ;; Registers used:
 12552 ;;		wreg, status,2, status,0, cstack
 12553 ;; Tracked objects:
 12554 ;;		On entry : 0/0
 12555 ;;		On exit  : 0/0
 12556 ;;		Unchanged: 0/0
 12557 ;; Data sizes:     COMRAM   BANK0   BANK1   BANK2   BANK3   BANK4   BANK5   BANK6   BANK7   BANK8   BANK9  BANK10  BANK1
      +1  BANK12  BANK13  BANK14  BANK15
 12558 ;;      Params:         0       0       0       0       0       0       0       0       0       0       0       0       
      +0       0       0       0       0
 12559 ;;      Locals:         4       0       0       0       0       0       0       0       0       0       0       0       
      +0       0       0       0       0
 12560 ;;      Temps:          2       0       0       0       0       0       0       0       0       0       0       0       
      +0       0       0       0       0
 12561 ;;      Totals:         6       0       0       0       0       0       0       0       0       0       0       0       
      +0       0       0       0       0
 12562 ;;Total ram usage:        6 bytes
 12563 ;; Hardware stack levels used:    1
 12564 ;; Hardware stack levels required when called:    1
 12565 ;; This function calls:
 12566 ;;		_readButtonRA5
 12567 ;;		_readButtonRB0
 12568 ;; This function is called by:
 12569 ;;		_myISR
 12570 ;; This function uses a non-reentrant model
 12571 ;;
 12572                           
 12573                           	psect	text46
 12574  004C54                     __ptext46:
 12575                           	opt callstack 0
 12576  004C54                     _handleButton:
 12577                           	opt callstack 21
 12578  004C54                     
 12579                           ;buttons.c: 40:     int checkRA5 = readButtonRA5();
 12580  004C54  ECB4  F030         	call	_readButtonRA5	;wreg free
 12581  004C58  C001  F005         	movff	?_readButtonRA5,handleButton@checkRA5
 12582  004C5C  C002  F006         	movff	?_readButtonRA5+1,handleButton@checkRA5+1
 12583                           
 12584                           ;buttons.c: 41:     int checkRB0 = readButtonRB0();
 12585  004C60  EC8B  F030         	call	_readButtonRB0	;wreg free
 12586  004C64  C001  F007         	movff	?_readButtonRB0,handleButton@checkRB0
 12587  004C68  C002  F008         	movff	?_readButtonRB0+1,handleButton@checkRB0+1
 12588  004C6C                     
 12589                           ;buttons.c: 42:     if(checkRA5 == 2) {
 12590  004C6C  0E02               	movlw	2
 12591  004C6E  1805               	xorwf	handleButton@checkRA5^0,w,c
 12592  004C70  1006               	iorwf	(handleButton@checkRA5+1)^0,w,c
 12593  004C72  A4D8               	btfss	status,2,c
 12594  004C74  EF3E  F026         	goto	i2u508_41
 12595  004C78  EF40  F026         	goto	i2u508_40
 12596  004C7C                     i2u508_41:
 12597  004C7C  EFBD  F026         	goto	i2l5577
 12598  004C80                     i2u508_40:
 12599  004C80                     
 12600                           ;buttons.c: 43:         stateRB0 = 0;
 12601  004C80  0E00               	movlw	0
 12602  004C82  0100               	movlb	0	; () banked
 12603  004C84  6FC1               	movwf	_stateRB0& (0+255),b
 12604                           
 12605                           ;buttons.c: 44:         countRB0 = 0;
 12606  004C86  0E00               	movlw	0
 12607  004C88  6FB8               	movwf	(_countRB0+1)& (0+255),b
 12608  004C8A  0E00               	movlw	0
 12609  004C8C  6FB7               	movwf	_countRB0& (0+255),b
 12610                           
 12611                           ;buttons.c: 45:         countRB0_1 = 0;
 12612  004C8E  0E00               	movlw	0
 12613  004C90  6FB6               	movwf	(_countRB0_1+1)& (0+255),b
 12614  004C92  0E00               	movlw	0
 12615  004C94  6FB5               	movwf	_countRB0_1& (0+255),b
 12616                           
 12617                           ;buttons.c: 46:         switch(stateRA5) {
 12618  004C96  EFA0  F026         	goto	i2l5575
 12619  004C9A                     i2l5549:
 12620                           
 12621                           ; BSR set to: 0
 12622                           ;buttons.c: 48:                 buttonRA5 = 1;
 12623  004C9A  0E01               	movlw	1
 12624  004C9C  6FCE               	movwf	_buttonRA5& (0+255),b
 12625                           
 12626                           ;buttons.c: 49:                 stateRA5 = 1;
 12627  004C9E  0E01               	movlw	1
 12628  004CA0  6FC2               	movwf	_stateRA5& (0+255),b
 12629                           
 12630                           ;buttons.c: 50:                 break;
 12631  004CA2  EF6B  F027         	goto	i2l689
 12632  004CA6                     i2l5551:
 12633                           
 12634                           ; BSR set to: 0
 12635                           ;buttons.c: 52:                 countRA5++;
 12636  004CA6  4BBB               	infsnz	_countRA5& (0+255),f,b
 12637  004CA8  2BBC               	incf	(_countRA5+1)& (0+255),f,b
 12638  004CAA                     
 12639                           ; BSR set to: 0
 12640                           ;buttons.c: 53:                 if(countRA5 >= 1000 / 10) {
 12641  004CAA  51BC               	movf	(_countRA5+1)& (0+255),w,b
 12642  004CAC  E109               	bnz	i2u509_40
 12643  004CAE  0E64               	movlw	100
 12644  004CB0  5DBB               	subwf	_countRA5& (0+255),w,b
 12645  004CB2  A0D8               	btfss	status,0,c
 12646  004CB4  EF5E  F026         	goto	i2u509_41
 12647  004CB8  EF60  F026         	goto	i2u509_40
 12648  004CBC                     i2u509_41:
 12649  004CBC  EF6B  F027         	goto	i2l689
 12650  004CC0                     i2u509_40:
 12651  004CC0                     
 12652                           ; BSR set to: 0
 12653                           ;buttons.c: 54:                     buttonRA5 = 1;
 12654  004CC0  0E01               	movlw	1
 12655  004CC2  6FCE               	movwf	_buttonRA5& (0+255),b
 12656                           
 12657                           ;buttons.c: 55:                     stateRA5 = 2;
 12658  004CC4  0E02               	movlw	2
 12659  004CC6  6FC2               	movwf	_stateRA5& (0+255),b
 12660  004CC8  EF6B  F027         	goto	i2l689
 12661  004CCC                     i2l5557:
 12662                           
 12663                           ; BSR set to: 0
 12664                           ;buttons.c: 59:                 countRA5++;
 12665  004CCC  4BBB               	infsnz	_countRA5& (0+255),f,b
 12666  004CCE  2BBC               	incf	(_countRA5+1)& (0+255),f,b
 12667                           
 12668                           ;buttons.c: 60:                 countRA5_1++;
 12669  004CD0  4BB9               	infsnz	_countRA5_1& (0+255),f,b
 12670  004CD2  2BBA               	incf	(_countRA5_1+1)& (0+255),f,b
 12671  004CD4                     
 12672                           ; BSR set to: 0
 12673                           ;buttons.c: 61:                 if(countRA5_1 == 500 / 10) {
 12674  004CD4  0E32               	movlw	50
 12675  004CD6  19B9               	xorwf	_countRA5_1& (0+255),w,b
 12676  004CD8  11BA               	iorwf	(_countRA5_1+1)& (0+255),w,b
 12677  004CDA  A4D8               	btfss	status,2,c
 12678  004CDC  EF72  F026         	goto	i2u510_41
 12679  004CE0  EF74  F026         	goto	i2u510_40
 12680  004CE4                     i2u510_41:
 12681  004CE4  EF7A  F026         	goto	i2l5563
 12682  004CE8                     i2u510_40:
 12683  004CE8                     
 12684                           ; BSR set to: 0
 12685                           ;buttons.c: 62:                     buttonRA5 = 1;
 12686  004CE8  0E01               	movlw	1
 12687  004CEA  6FCE               	movwf	_buttonRA5& (0+255),b
 12688                           
 12689                           ;buttons.c: 63:                     countRA5_1 = 0;
 12690  004CEC  0E00               	movlw	0
 12691  004CEE  6FBA               	movwf	(_countRA5_1+1)& (0+255),b
 12692  004CF0  0E00               	movlw	0
 12693  004CF2  6FB9               	movwf	_countRA5_1& (0+255),b
 12694  004CF4                     i2l5563:
 12695                           
 12696                           ; BSR set to: 0
 12697                           ;buttons.c: 65:                 if(countRA5 >= 3000 / 10) {
 12698  004CF4  0E2C               	movlw	44
 12699  004CF6  5DBB               	subwf	_countRA5& (0+255),w,b
 12700  004CF8  0E01               	movlw	1
 12701  004CFA  59BC               	subwfb	(_countRA5+1)& (0+255),w,b
 12702  004CFC  A0D8               	btfss	status,0,c
 12703  004CFE  EF83  F026         	goto	i2u511_41
 12704  004D02  EF85  F026         	goto	i2u511_40
 12705  004D06                     i2u511_41:
 12706  004D06  EF6B  F027         	goto	i2l689
 12707  004D0A                     i2u511_40:
 12708  004D0A                     
 12709                           ; BSR set to: 0
 12710                           ;buttons.c: 66:                     buttonRA5 = 1;
 12711  004D0A  0E01               	movlw	1
 12712  004D0C  6FCE               	movwf	_buttonRA5& (0+255),b
 12713                           
 12714                           ;buttons.c: 67:                     stateRA5 = 3;
 12715  004D0E  0E03               	movlw	3
 12716  004D10  6FC2               	movwf	_stateRA5& (0+255),b
 12717  004D12  EF6B  F027         	goto	i2l689
 12718  004D16                     i2l5567:
 12719                           
 12720                           ; BSR set to: 0
 12721                           ;buttons.c: 71:                 countRA5++;
 12722  004D16  4BBB               	infsnz	_countRA5& (0+255),f,b
 12723  004D18  2BBC               	incf	(_countRA5+1)& (0+255),f,b
 12724  004D1A                     
 12725                           ; BSR set to: 0
 12726                           ;buttons.c: 72:                 if(countRA5 >= 100 / 10) {
 12727  004D1A  51BC               	movf	(_countRA5+1)& (0+255),w,b
 12728  004D1C  E109               	bnz	i2u512_40
 12729  004D1E  0E0A               	movlw	10
 12730  004D20  5DBB               	subwf	_countRA5& (0+255),w,b
 12731  004D22  A0D8               	btfss	status,0,c
 12732  004D24  EF96  F026         	goto	i2u512_41
 12733  004D28  EF98  F026         	goto	i2u512_40
 12734  004D2C                     i2u512_41:
 12735  004D2C  EF6B  F027         	goto	i2l689
 12736  004D30                     i2u512_40:
 12737  004D30                     
 12738                           ; BSR set to: 0
 12739                           ;buttons.c: 73:                     buttonRA5 = 1;
 12740  004D30  0E01               	movlw	1
 12741  004D32  6FCE               	movwf	_buttonRA5& (0+255),b
 12742                           
 12743                           ;buttons.c: 74:                     countRA5 = 0;
 12744  004D34  0E00               	movlw	0
 12745  004D36  6FBC               	movwf	(_countRA5+1)& (0+255),b
 12746  004D38  0E00               	movlw	0
 12747  004D3A  6FBB               	movwf	_countRA5& (0+255),b
 12748  004D3C  EF6B  F027         	goto	i2l689
 12749  004D40                     i2l5575:
 12750                           
 12751                           ; BSR set to: 0
 12752  004D40  51C2               	movf	_stateRA5& (0+255),w,b
 12753  004D42  6E03               	movwf	??_handleButton^0,c
 12754  004D44  6A04               	clrf	(??_handleButton+1)^0,c
 12755                           
 12756                           ; Switch on 2 bytes has been partitioned into a top level switch of size 1, and 1 sub-sw
      +                          itches
 12757                           ; Switch size 1, requested type "simple"
 12758                           ; Number of cases is 1, Range of values is 0 to 0
 12759                           ; switch strategies available:
 12760                           ; Name         Instructions Cycles
 12761                           ; simple_byte            4     3 (average)
 12762                           ;	Chosen strategy is simple_byte
 12763  004D46  5004               	movf	(??_handleButton+1)^0,w,c
 12764  004D48  0A00               	xorlw	0	; case 0
 12765  004D4A  B4D8               	btfsc	status,2,c
 12766  004D4C  EFAA  F026         	goto	i2l6595
 12767  004D50  EF6B  F027         	goto	i2l689
 12768  004D54                     i2l6595:
 12769                           
 12770                           ; BSR set to: 0
 12771                           ; Switch size 1, requested type "simple"
 12772                           ; Number of cases is 4, Range of values is 0 to 3
 12773                           ; switch strategies available:
 12774                           ; Name         Instructions Cycles
 12775                           ; simple_byte           13     7 (average)
 12776                           ;	Chosen strategy is simple_byte
 12777  004D54  5003               	movf	??_handleButton^0,w,c
 12778  004D56  0A00               	xorlw	0	; case 0
 12779  004D58  B4D8               	btfsc	status,2,c
 12780  004D5A  EF4D  F026         	goto	i2l5549
 12781  004D5E  0A01               	xorlw	1	; case 1
 12782  004D60  B4D8               	btfsc	status,2,c
 12783  004D62  EF53  F026         	goto	i2l5551
 12784  004D66  0A03               	xorlw	3	; case 2
 12785  004D68  B4D8               	btfsc	status,2,c
 12786  004D6A  EF66  F026         	goto	i2l5557
 12787  004D6E  0A01               	xorlw	1	; case 3
 12788  004D70  B4D8               	btfsc	status,2,c
 12789  004D72  EF8B  F026         	goto	i2l5567
 12790  004D76  EF6B  F027         	goto	i2l689
 12791  004D7A                     i2l5577:
 12792  004D7A  0E02               	movlw	2
 12793  004D7C  1807               	xorwf	handleButton@checkRB0^0,w,c
 12794  004D7E  1008               	iorwf	(handleButton@checkRB0+1)^0,w,c
 12795  004D80  A4D8               	btfss	status,2,c
 12796  004D82  EFC5  F026         	goto	i2u513_41
 12797  004D86  EFC7  F026         	goto	i2u513_40
 12798  004D8A                     i2u513_41:
 12799  004D8A  EF44  F027         	goto	i2l5609
 12800  004D8E                     i2u513_40:
 12801  004D8E                     
 12802                           ;buttons.c: 80:         stateRA5 = 0;
 12803  004D8E  0E00               	movlw	0
 12804  004D90  0100               	movlb	0	; () banked
 12805  004D92  6FC2               	movwf	_stateRA5& (0+255),b
 12806                           
 12807                           ;buttons.c: 81:         countRA5 = 0;
 12808  004D94  0E00               	movlw	0
 12809  004D96  6FBC               	movwf	(_countRA5+1)& (0+255),b
 12810  004D98  0E00               	movlw	0
 12811  004D9A  6FBB               	movwf	_countRA5& (0+255),b
 12812                           
 12813                           ;buttons.c: 82:         countRA5_1 = 0;
 12814  004D9C  0E00               	movlw	0
 12815  004D9E  6FBA               	movwf	(_countRA5_1+1)& (0+255),b
 12816  004DA0  0E00               	movlw	0
 12817  004DA2  6FB9               	movwf	_countRA5_1& (0+255),b
 12818                           
 12819                           ;buttons.c: 83:         switch(stateRB0) {
 12820  004DA4  EF27  F027         	goto	i2l5607
 12821  004DA8                     i2l5581:
 12822                           
 12823                           ; BSR set to: 0
 12824                           ;buttons.c: 85:                 buttonRB0 = 1;
 12825  004DA8  0E01               	movlw	1
 12826  004DAA  6FCD               	movwf	_buttonRB0& (0+255),b
 12827                           
 12828                           ;buttons.c: 86:                 stateRB0 = 1;
 12829  004DAC  0E01               	movlw	1
 12830  004DAE  6FC1               	movwf	_stateRB0& (0+255),b
 12831                           
 12832                           ;buttons.c: 87:                 break;
 12833  004DB0  EF6B  F027         	goto	i2l689
 12834  004DB4                     i2l5583:
 12835                           
 12836                           ; BSR set to: 0
 12837                           ;buttons.c: 89:                 countRB0++;
 12838  004DB4  4BB7               	infsnz	_countRB0& (0+255),f,b
 12839  004DB6  2BB8               	incf	(_countRB0+1)& (0+255),f,b
 12840  004DB8                     
 12841                           ; BSR set to: 0
 12842                           ;buttons.c: 90:                 if(countRB0 >= 1000 / 10) {
 12843  004DB8  51B8               	movf	(_countRB0+1)& (0+255),w,b
 12844  004DBA  E109               	bnz	i2u514_40
 12845  004DBC  0E64               	movlw	100
 12846  004DBE  5DB7               	subwf	_countRB0& (0+255),w,b
 12847  004DC0  A0D8               	btfss	status,0,c
 12848  004DC2  EFE5  F026         	goto	i2u514_41
 12849  004DC6  EFE7  F026         	goto	i2u514_40
 12850  004DCA                     i2u514_41:
 12851  004DCA  EF6B  F027         	goto	i2l689
 12852  004DCE                     i2u514_40:
 12853  004DCE                     
 12854                           ; BSR set to: 0
 12855                           ;buttons.c: 91:                     buttonRB0 = 1;
 12856  004DCE  0E01               	movlw	1
 12857  004DD0  6FCD               	movwf	_buttonRB0& (0+255),b
 12858                           
 12859                           ;buttons.c: 92:                     stateRB0 = 2;
 12860  004DD2  0E02               	movlw	2
 12861  004DD4  6FC1               	movwf	_stateRB0& (0+255),b
 12862  004DD6  EF6B  F027         	goto	i2l689
 12863  004DDA                     i2l5589:
 12864                           
 12865                           ; BSR set to: 0
 12866                           ;buttons.c: 96:                 countRB0++;
 12867  004DDA  4BB7               	infsnz	_countRB0& (0+255),f,b
 12868  004DDC  2BB8               	incf	(_countRB0+1)& (0+255),f,b
 12869                           
 12870                           ;buttons.c: 97:                 countRB0_1++;
 12871  004DDE  4BB5               	infsnz	_countRB0_1& (0+255),f,b
 12872  004DE0  2BB6               	incf	(_countRB0_1+1)& (0+255),f,b
 12873  004DE2                     
 12874                           ; BSR set to: 0
 12875                           ;buttons.c: 98:                 if(countRB0_1 == 500 / 10) {
 12876  004DE2  0E32               	movlw	50
 12877  004DE4  19B5               	xorwf	_countRB0_1& (0+255),w,b
 12878  004DE6  11B6               	iorwf	(_countRB0_1+1)& (0+255),w,b
 12879  004DE8  A4D8               	btfss	status,2,c
 12880  004DEA  EFF9  F026         	goto	i2u515_41
 12881  004DEE  EFFB  F026         	goto	i2u515_40
 12882  004DF2                     i2u515_41:
 12883  004DF2  EF01  F027         	goto	i2l5595
 12884  004DF6                     i2u515_40:
 12885  004DF6                     
 12886                           ; BSR set to: 0
 12887                           ;buttons.c: 99:                     buttonRB0 = 1;
 12888  004DF6  0E01               	movlw	1
 12889  004DF8  6FCD               	movwf	_buttonRB0& (0+255),b
 12890                           
 12891                           ;buttons.c: 100:                     countRB0_1 = 0;
 12892  004DFA  0E00               	movlw	0
 12893  004DFC  6FB6               	movwf	(_countRB0_1+1)& (0+255),b
 12894  004DFE  0E00               	movlw	0
 12895  004E00  6FB5               	movwf	_countRB0_1& (0+255),b
 12896  004E02                     i2l5595:
 12897                           
 12898                           ; BSR set to: 0
 12899                           ;buttons.c: 102:                 if(countRB0 >= 3000 / 10) {
 12900  004E02  0E2C               	movlw	44
 12901  004E04  5DB7               	subwf	_countRB0& (0+255),w,b
 12902  004E06  0E01               	movlw	1
 12903  004E08  59B8               	subwfb	(_countRB0+1)& (0+255),w,b
 12904  004E0A  A0D8               	btfss	status,0,c
 12905  004E0C  EF0A  F027         	goto	i2u516_41
 12906  004E10  EF0C  F027         	goto	i2u516_40
 12907  004E14                     i2u516_41:
 12908  004E14  EF6B  F027         	goto	i2l689
 12909  004E18                     i2u516_40:
 12910  004E18                     
 12911                           ; BSR set to: 0
 12912                           ;buttons.c: 103:                     buttonRB0 = 1;
 12913  004E18  0E01               	movlw	1
 12914  004E1A  6FCD               	movwf	_buttonRB0& (0+255),b
 12915                           
 12916                           ;buttons.c: 104:                     stateRB0 = 3;
 12917  004E1C  0E03               	movlw	3
 12918  004E1E  6FC1               	movwf	_stateRB0& (0+255),b
 12919  004E20  EF6B  F027         	goto	i2l689
 12920  004E24                     i2l5599:
 12921                           
 12922                           ; BSR set to: 0
 12923                           ;buttons.c: 108:                 countRB0++;
 12924  004E24  4BB7               	infsnz	_countRB0& (0+255),f,b
 12925  004E26  2BB8               	incf	(_countRB0+1)& (0+255),f,b
 12926  004E28                     
 12927                           ; BSR set to: 0
 12928                           ;buttons.c: 109:                 if(countRB0 >= 100 / 10) {
 12929  004E28  51B8               	movf	(_countRB0+1)& (0+255),w,b
 12930  004E2A  E109               	bnz	i2u517_40
 12931  004E2C  0E0A               	movlw	10
 12932  004E2E  5DB7               	subwf	_countRB0& (0+255),w,b
 12933  004E30  A0D8               	btfss	status,0,c
 12934  004E32  EF1D  F027         	goto	i2u517_41
 12935  004E36  EF1F  F027         	goto	i2u517_40
 12936  004E3A                     i2u517_41:
 12937  004E3A  EF6B  F027         	goto	i2l689
 12938  004E3E                     i2u517_40:
 12939  004E3E                     
 12940                           ; BSR set to: 0
 12941                           ;buttons.c: 110:                     buttonRB0 = 1;
 12942  004E3E  0E01               	movlw	1
 12943  004E40  6FCD               	movwf	_buttonRB0& (0+255),b
 12944                           
 12945                           ;buttons.c: 111:                     countRB0 = 0;
 12946  004E42  0E00               	movlw	0
 12947  004E44  6FB8               	movwf	(_countRB0+1)& (0+255),b
 12948  004E46  0E00               	movlw	0
 12949  004E48  6FB7               	movwf	_countRB0& (0+255),b
 12950  004E4A  EF6B  F027         	goto	i2l689
 12951  004E4E                     i2l5607:
 12952                           
 12953                           ; BSR set to: 0
 12954  004E4E  51C1               	movf	_stateRB0& (0+255),w,b
 12955  004E50  6E03               	movwf	??_handleButton^0,c
 12956  004E52  6A04               	clrf	(??_handleButton+1)^0,c
 12957                           
 12958                           ; Switch on 2 bytes has been partitioned into a top level switch of size 1, and 1 sub-sw
      +                          itches
 12959                           ; Switch size 1, requested type "simple"
 12960                           ; Number of cases is 1, Range of values is 0 to 0
 12961                           ; switch strategies available:
 12962                           ; Name         Instructions Cycles
 12963                           ; simple_byte            4     3 (average)
 12964                           ;	Chosen strategy is simple_byte
 12965  004E54  5004               	movf	(??_handleButton+1)^0,w,c
 12966  004E56  0A00               	xorlw	0	; case 0
 12967  004E58  B4D8               	btfsc	status,2,c
 12968  004E5A  EF31  F027         	goto	i2l6597
 12969  004E5E  EF6B  F027         	goto	i2l689
 12970  004E62                     i2l6597:
 12971                           
 12972                           ; BSR set to: 0
 12973                           ; Switch size 1, requested type "simple"
 12974                           ; Number of cases is 4, Range of values is 0 to 3
 12975                           ; switch strategies available:
 12976                           ; Name         Instructions Cycles
 12977                           ; simple_byte           13     7 (average)
 12978                           ;	Chosen strategy is simple_byte
 12979  004E62  5003               	movf	??_handleButton^0,w,c
 12980  004E64  0A00               	xorlw	0	; case 0
 12981  004E66  B4D8               	btfsc	status,2,c
 12982  004E68  EFD4  F026         	goto	i2l5581
 12983  004E6C  0A01               	xorlw	1	; case 1
 12984  004E6E  B4D8               	btfsc	status,2,c
 12985  004E70  EFDA  F026         	goto	i2l5583
 12986  004E74  0A03               	xorlw	3	; case 2
 12987  004E76  B4D8               	btfsc	status,2,c
 12988  004E78  EFED  F026         	goto	i2l5589
 12989  004E7C  0A01               	xorlw	1	; case 3
 12990  004E7E  B4D8               	btfsc	status,2,c
 12991  004E80  EF12  F027         	goto	i2l5599
 12992  004E84  EF6B  F027         	goto	i2l689
 12993  004E88                     i2l5609:
 12994  004E88  0407               	decf	handleButton@checkRB0^0,w,c
 12995  004E8A  1008               	iorwf	(handleButton@checkRB0+1)^0,w,c
 12996  004E8C  B4D8               	btfsc	status,2,c
 12997  004E8E  EF4B  F027         	goto	i2u518_41
 12998  004E92  EF4D  F027         	goto	i2u518_40
 12999  004E96                     i2u518_41:
 13000  004E96  EF56  F027         	goto	i2l5613
 13001  004E9A                     i2u518_40:
 13002  004E9A  0405               	decf	handleButton@checkRA5^0,w,c
 13003  004E9C  1006               	iorwf	(handleButton@checkRA5+1)^0,w,c
 13004  004E9E  A4D8               	btfss	status,2,c
 13005  004EA0  EF54  F027         	goto	i2u519_41
 13006  004EA4  EF56  F027         	goto	i2u519_40
 13007  004EA8                     i2u519_41:
 13008  004EA8  EF6B  F027         	goto	i2l689
 13009  004EAC                     i2u519_40:
 13010  004EAC                     i2l5613:
 13011                           
 13012                           ;buttons.c: 117:         countRA5 = 0;
 13013  004EAC  0E00               	movlw	0
 13014  004EAE  0100               	movlb	0	; () banked
 13015  004EB0  6FBC               	movwf	(_countRA5+1)& (0+255),b
 13016  004EB2  0E00               	movlw	0
 13017  004EB4  6FBB               	movwf	_countRA5& (0+255),b
 13018                           
 13019                           ;buttons.c: 118:         countRA5_1 = 0;
 13020  004EB6  0E00               	movlw	0
 13021  004EB8  6FBA               	movwf	(_countRA5_1+1)& (0+255),b
 13022  004EBA  0E00               	movlw	0
 13023  004EBC  6FB9               	movwf	_countRA5_1& (0+255),b
 13024                           
 13025                           ;buttons.c: 119:         countRB0 = 0;
 13026  004EBE  0E00               	movlw	0
 13027  004EC0  6FB8               	movwf	(_countRB0+1)& (0+255),b
 13028  004EC2  0E00               	movlw	0
 13029  004EC4  6FB7               	movwf	_countRB0& (0+255),b
 13030                           
 13031                           ;buttons.c: 120:         countRB0_1 = 0;
 13032  004EC6  0E00               	movlw	0
 13033  004EC8  6FB6               	movwf	(_countRB0_1+1)& (0+255),b
 13034  004ECA  0E00               	movlw	0
 13035  004ECC  6FB5               	movwf	_countRB0_1& (0+255),b
 13036                           
 13037                           ;buttons.c: 121:         stateRA5 = 0;
 13038  004ECE  0E00               	movlw	0
 13039  004ED0  6FC2               	movwf	_stateRA5& (0+255),b
 13040                           
 13041                           ;buttons.c: 122:         stateRB0 = 0;
 13042  004ED2  0E00               	movlw	0
 13043  004ED4  6FC1               	movwf	_stateRB0& (0+255),b
 13044  004ED6                     i2l689:
 13045  004ED6  0012               	return		;funcret
 13046  004ED8                     __end_of_handleButton:
 13047                           	opt callstack 0
 13048                           
 13049 ;; *************** function _readButtonRB0 *****************
 13050 ;; Defined at:
 13051 ;;		line 30 in file "buttons.c"
 13052 ;; Parameters:    Size  Location     Type
 13053 ;;		None
 13054 ;; Auto vars:     Size  Location     Type
 13055 ;;		None
 13056 ;; Return value:  Size  Location     Type
 13057 ;;                  2    0[COMRAM] int 
 13058 ;; Registers used:
 13059 ;;		wreg, status,2, status,0
 13060 ;; Tracked objects:
 13061 ;;		On entry : 0/0
 13062 ;;		On exit  : 0/0
 13063 ;;		Unchanged: 0/0
 13064 ;; Data sizes:     COMRAM   BANK0   BANK1   BANK2   BANK3   BANK4   BANK5   BANK6   BANK7   BANK8   BANK9  BANK10  BANK1
      +1  BANK12  BANK13  BANK14  BANK15
 13065 ;;      Params:         2       0       0       0       0       0       0       0       0       0       0       0       
      +0       0       0       0       0
 13066 ;;      Locals:         0       0       0       0       0       0       0       0       0       0       0       0       
      +0       0       0       0       0
 13067 ;;      Temps:          0       0       0       0       0       0       0       0       0       0       0       0       
      +0       0       0       0       0
 13068 ;;      Totals:         2       0       0       0       0       0       0       0       0       0       0       0       
      +0       0       0       0       0
 13069 ;;Total ram usage:        2 bytes
 13070 ;; Hardware stack levels used:    1
 13071 ;; This function calls:
 13072 ;;		Nothing
 13073 ;; This function is called by:
 13074 ;;		_handleButton
 13075 ;; This function uses a non-reentrant model
 13076 ;;
 13077                           
 13078                           	psect	text47
 13079  006116                     __ptext47:
 13080                           	opt callstack 0
 13081  006116                     _readButtonRB0:
 13082                           	opt callstack 21
 13083  006116                     
 13084                           ;buttons.c: 31:     firstReadRB0 = secondReadRB0;
 13085  006116  C0D1  F0D2         	movff	_secondReadRB0,_firstReadRB0
 13086  00611A                     
 13087                           ;buttons.c: 32:     secondReadRB0 = PORTBbits.RB0;
 13088  00611A  0E00               	movlw	0
 13089  00611C  B081               	btfsc	129,0,c	;volatile
 13090  00611E  0E01               	movlw	1
 13091  006120  0100               	movlb	0	; () banked
 13092  006122  6FD1               	movwf	_secondReadRB0& (0+255),b
 13093  006124                     
 13094                           ; BSR set to: 0
 13095                           ;buttons.c: 33:     if(secondReadRB0 == firstReadRB0) {
 13096  006124  51D2               	movf	_firstReadRB0& (0+255),w,b
 13097  006126  19D1               	xorwf	_secondReadRB0& (0+255),w,b
 13098  006128  A4D8               	btfss	status,2,c
 13099  00612A  EF99  F030         	goto	i2u481_41
 13100  00612E  EF9B  F030         	goto	i2u481_40
 13101  006132                     i2u481_41:
 13102  006132  EFAF  F030         	goto	i2l5315
 13103  006136                     i2u481_40:
 13104  006136                     
 13105                           ; BSR set to: 0
 13106                           ;buttons.c: 34:         return (secondReadRB0 == 0) ? 2 : 1;
 13107  006136  51D1               	movf	_secondReadRB0& (0+255),w,b
 13108  006138  B4D8               	btfsc	status,2,c
 13109  00613A  EFA1  F030         	goto	i2u482_41
 13110  00613E  EFA3  F030         	goto	i2u482_40
 13111  006142                     i2u482_41:
 13112  006142  EFA9  F030         	goto	i2l5311
 13113  006146                     i2u482_40:
 13114  006146                     
 13115                           ; BSR set to: 0
 13116  006146  0E00               	movlw	0
 13117  006148  6E02               	movwf	(?_readButtonRB0+1)^0,c
 13118  00614A  0E01               	movlw	1
 13119  00614C  6E01               	movwf	?_readButtonRB0^0,c
 13120  00614E  EFB3  F030         	goto	i2l659
 13121  006152                     i2l5311:
 13122                           
 13123                           ; BSR set to: 0
 13124  006152  0E00               	movlw	0
 13125  006154  6E02               	movwf	(?_readButtonRB0+1)^0,c
 13126  006156  0E02               	movlw	2
 13127  006158  6E01               	movwf	?_readButtonRB0^0,c
 13128  00615A  EFB3  F030         	goto	i2l659
 13129  00615E                     i2l5315:
 13130                           
 13131                           ; BSR set to: 0
 13132                           ;buttons.c: 36:     return 0;
 13133  00615E  0E00               	movlw	0
 13134  006160  6E02               	movwf	(?_readButtonRB0+1)^0,c
 13135  006162  0E00               	movlw	0
 13136  006164  6E01               	movwf	?_readButtonRB0^0,c
 13137  006166                     i2l659:
 13138                           
 13139                           ; BSR set to: 0
 13140  006166  0012               	return		;funcret
 13141  006168                     __end_of_readButtonRB0:
 13142                           	opt callstack 0
 13143                           
 13144 ;; *************** function _readButtonRA5 *****************
 13145 ;; Defined at:
 13146 ;;		line 21 in file "buttons.c"
 13147 ;; Parameters:    Size  Location     Type
 13148 ;;		None
 13149 ;; Auto vars:     Size  Location     Type
 13150 ;;		None
 13151 ;; Return value:  Size  Location     Type
 13152 ;;                  2    0[COMRAM] int 
 13153 ;; Registers used:
 13154 ;;		wreg, status,2, status,0
 13155 ;; Tracked objects:
 13156 ;;		On entry : 0/0
 13157 ;;		On exit  : 0/0
 13158 ;;		Unchanged: 0/0
 13159 ;; Data sizes:     COMRAM   BANK0   BANK1   BANK2   BANK3   BANK4   BANK5   BANK6   BANK7   BANK8   BANK9  BANK10  BANK1
      +1  BANK12  BANK13  BANK14  BANK15
 13160 ;;      Params:         2       0       0       0       0       0       0       0       0       0       0       0       
      +0       0       0       0       0
 13161 ;;      Locals:         0       0       0       0       0       0       0       0       0       0       0       0       
      +0       0       0       0       0
 13162 ;;      Temps:          0       0       0       0       0       0       0       0       0       0       0       0       
      +0       0       0       0       0
 13163 ;;      Totals:         2       0       0       0       0       0       0       0       0       0       0       0       
      +0       0       0       0       0
 13164 ;;Total ram usage:        2 bytes
 13165 ;; Hardware stack levels used:    1
 13166 ;; This function calls:
 13167 ;;		Nothing
 13168 ;; This function is called by:
 13169 ;;		_handleButton
 13170 ;; This function uses a non-reentrant model
 13171 ;;
 13172                           
 13173                           	psect	text48
 13174  006168                     __ptext48:
 13175                           	opt callstack 0
 13176  006168                     _readButtonRA5:
 13177                           	opt callstack 21
 13178  006168                     
 13179                           ;buttons.c: 22:     firstReadRA5 = secondReadRA5;
 13180  006168  C0D3  F0D4         	movff	_secondReadRA5,_firstReadRA5
 13181  00616C                     
 13182                           ;buttons.c: 23:     secondReadRA5 = PORTAbits.RA5;
 13183  00616C  0E00               	movlw	0
 13184  00616E  BA80               	btfsc	128,5,c	;volatile
 13185  006170  0E01               	movlw	1
 13186  006172  0100               	movlb	0	; () banked
 13187  006174  6FD3               	movwf	_secondReadRA5& (0+255),b
 13188  006176                     
 13189                           ; BSR set to: 0
 13190                           ;buttons.c: 24:     if(secondReadRA5 == firstReadRA5) {
 13191  006176  51D4               	movf	_firstReadRA5& (0+255),w,b
 13192  006178  19D3               	xorwf	_secondReadRA5& (0+255),w,b
 13193  00617A  A4D8               	btfss	status,2,c
 13194  00617C  EFC2  F030         	goto	i2u479_41
 13195  006180  EFC4  F030         	goto	i2u479_40
 13196  006184                     i2u479_41:
 13197  006184  EFD8  F030         	goto	i2l5297
 13198  006188                     i2u479_40:
 13199  006188                     
 13200                           ; BSR set to: 0
 13201                           ;buttons.c: 25:         return (secondReadRA5 == 0) ? 2 : 1;
 13202  006188  51D3               	movf	_secondReadRA5& (0+255),w,b
 13203  00618A  B4D8               	btfsc	status,2,c
 13204  00618C  EFCA  F030         	goto	i2u480_41
 13205  006190  EFCC  F030         	goto	i2u480_40
 13206  006194                     i2u480_41:
 13207  006194  EFD2  F030         	goto	i2l5293
 13208  006198                     i2u480_40:
 13209  006198                     
 13210                           ; BSR set to: 0
 13211  006198  0E00               	movlw	0
 13212  00619A  6E02               	movwf	(?_readButtonRA5+1)^0,c
 13213  00619C  0E01               	movlw	1
 13214  00619E  6E01               	movwf	?_readButtonRA5^0,c
 13215  0061A0  EFDC  F030         	goto	i2l651
 13216  0061A4                     i2l5293:
 13217                           
 13218                           ; BSR set to: 0
 13219  0061A4  0E00               	movlw	0
 13220  0061A6  6E02               	movwf	(?_readButtonRA5+1)^0,c
 13221  0061A8  0E02               	movlw	2
 13222  0061AA  6E01               	movwf	?_readButtonRA5^0,c
 13223  0061AC  EFDC  F030         	goto	i2l651
 13224  0061B0                     i2l5297:
 13225                           
 13226                           ; BSR set to: 0
 13227                           ;buttons.c: 27:     return 0;
 13228  0061B0  0E00               	movlw	0
 13229  0061B2  6E02               	movwf	(?_readButtonRA5+1)^0,c
 13230  0061B4  0E00               	movlw	0
 13231  0061B6  6E01               	movwf	?_readButtonRA5^0,c
 13232  0061B8                     i2l651:
 13233                           
 13234                           ; BSR set to: 0
 13235  0061B8  0012               	return		;funcret
 13236  0061BA                     __end_of_readButtonRA5:
 13237                           	opt callstack 0
 13238                           
 13239                           	psect	rparam
 13240  0000                     
 13241                           	psect	temp
 13242  000057                     btemp:
 13243                           	opt callstack 0
 13244  000057                     	ds	1
 13245  0000                     int$flags	set	btemp
 13246  0000                     wtemp8	set	btemp+1
 13247  0000                     ttemp5	set	btemp+1
 13248  0000                     ttemp6	set	btemp+4
 13249  0000                     ttemp7	set	btemp+8
 13250                           tosu	equ	0xFFF
 13251                           tosh	equ	0xFFE
 13252                           tosl	equ	0xFFD
 13253                           stkptr	equ	0xFFC
 13254                           pclatu	equ	0xFFB
 13255                           pclath	equ	0xFFA
 13256                           pcl	equ	0xFF9
 13257                           tblptru	equ	0xFF8
 13258                           tblptrh	equ	0xFF7
 13259                           tblptrl	equ	0xFF6
 13260                           tablat	equ	0xFF5
 13261                           prodh	equ	0xFF4
 13262                           prodl	equ	0xFF3
 13263                           indf0	equ	0xFEF
 13264                           postinc0	equ	0xFEE
 13265                           postdec0	equ	0xFED
 13266                           preinc0	equ	0xFEC
 13267                           plusw0	equ	0xFEB
 13268                           fsr0h	equ	0xFEA
 13269                           fsr0l	equ	0xFE9
 13270                           wreg	equ	0xFE8
 13271                           indf1	equ	0xFE7
 13272                           postinc1	equ	0xFE6
 13273                           postdec1	equ	0xFE5
 13274                           preinc1	equ	0xFE4
 13275                           plusw1	equ	0xFE3
 13276                           fsr1h	equ	0xFE2
 13277                           fsr1l	equ	0xFE1
 13278                           bsr	equ	0xFE0
 13279                           indf2	equ	0xFDF
 13280                           postinc2	equ	0xFDE
 13281                           postdec2	equ	0xFDD
 13282                           preinc2	equ	0xFDC
 13283                           plusw2	equ	0xFDB
 13284                           fsr2h	equ	0xFDA
 13285                           fsr2l	equ	0xFD9
 13286                           status	equ	0xFD8


Data Sizes:
    Strings     94
    Constant    124
    Data        5
    BSS         42
    Persistent  0
    Stack       0

Auto Spaces:
    Space          Size  Autos    Used
    COMRAM           94     78      86
    BANK0           160     79     118
    BANK1           256    188     188
    BANK2           256      0       0
    BANK3           256      0       0
    BANK4           256      0       0
    BANK5           256      0       0
    BANK6           256      0       0
    BANK7           256      0       0
    BANK8           256      0       0
    BANK9           256      0       0
    BANK10          256      0       0
    BANK11          256      0       0
    BANK12          256      0       0
    BANK13          256      0       0
    BANK14          256      0       0
    BANK15           96      0       0

Pointer List with Targets:

    nanf@s	PTR const unsigned char  size(2) Largest target is 1
		 -> STR_11(CODE[1]), 

    LCDPrint@ptr	PTR const unsigned char  size(2) Largest target is 3
		 -> STR_4(CODE[3]), STR_3(CODE[3]), STR_2(CODE[3]), 

    LCDPutStr@ptr	PTR const unsigned char  size(2) Largest target is 17
		 -> STR_10(CODE[17]), STR_9(CODE[17]), STR_8(CODE[17]), STR_7(CODE[9]), 
		 -> STR_6(CODE[17]), STR_5(CODE[17]), STR_4(CODE[3]), STR_3(CODE[3]), 
		 -> STR_2(CODE[3]), STR_1(CODE[8]), 


Critical Paths under _main in COMRAM

    _disp_Clock_SW->___awdiv
    _disp_Changed_SW->_LCDMoveCursor
    _state_set_second->_disp_Clock_Hide
    _state_set_minute->_disp_Clock_Hide
    _state_set_hour->_disp_Clock_Hide
    _disp_Clock_Hide->_LCDPrint
    _LCDPrint->_LCDMoveCursor
    _disp_Clock->_LCDPutStr
    _disp_Clock->___awdiv
    _LCDPutStr->_LCDPutChar
    _disp_Changed->_LCDMoveCursor
    _LCDPutChar->_WritePort_BBSPI
    _LCDMoveCursor->_LCDPutInst
    _powf->_sqrtf
    _sqrtf->___flge
    ___flge->___flsub
    _scalbnf->___flmul
    ___flmul->___fladd
    ___flsub->___flmul
    ___fldiv->___flsub
    _LCDInit->_LCDPutInst
    _Port_BBSPIInit->_SendByteBBSPI
    _LCDPutInst->_WritePort_BBSPI
    _WritePort_BBSPI->_SendByteBBSPI

Critical Paths under _myISR in COMRAM

    _myISR->_handleButton
    _handleButton->_readButtonRA5
    _handleButton->_readButtonRB0

Critical Paths under _main in BANK0

    _timer0_init->_preCalculate
    _preCalculate->___fltol
    _powf->_sqrtf
    ___fltol->_powf

Critical Paths under _myISR in BANK0

    None.

Critical Paths under _main in BANK1

    _preCalculate->_powf
    ___fltol->_powf

Critical Paths under _myISR in BANK1

    None.

Critical Paths under _main in BANK2

    None.

Critical Paths under _myISR in BANK2

    None.

Critical Paths under _main in BANK3

    None.

Critical Paths under _myISR in BANK3

    None.

Critical Paths under _main in BANK4

    None.

Critical Paths under _myISR in BANK4

    None.

Critical Paths under _main in BANK5

    None.

Critical Paths under _myISR in BANK5

    None.

Critical Paths under _main in BANK6

    None.

Critical Paths under _myISR in BANK6

    None.

Critical Paths under _main in BANK7

    None.

Critical Paths under _myISR in BANK7

    None.

Critical Paths under _main in BANK8

    None.

Critical Paths under _myISR in BANK8

    None.

Critical Paths under _main in BANK9

    None.

Critical Paths under _myISR in BANK9

    None.

Critical Paths under _main in BANK10

    None.

Critical Paths under _myISR in BANK10

    None.

Critical Paths under _main in BANK11

    None.

Critical Paths under _myISR in BANK11

    None.

Critical Paths under _main in BANK12

    None.

Critical Paths under _myISR in BANK12

    None.

Critical Paths under _main in BANK13

    None.

Critical Paths under _myISR in BANK13

    None.

Critical Paths under _main in BANK14

    None.

Critical Paths under _myISR in BANK14

    None.

Critical Paths under _main in BANK15

    None.

Critical Paths under _myISR in BANK15

    None.

Call Graph Tables:

 ---------------------------------------------------------------------------------
 (Depth) Function   	        Calls       Base Space   Used Autos Params    Refs
 ---------------------------------------------------------------------------------
 (0) _main                                                 2     2      0  191269
                                             77 BANK0      2     2      0
                  _SYSTEM_Initialize
                            ___lwmod
                        _state_clock
                     _state_set_hour
                   _state_set_minute
                   _state_set_second
                   _state_stop_watch
 ---------------------------------------------------------------------------------
 (1) _state_stop_watch                                     4     4      0   15442
                                             19 COMRAM     4     4      0
                         _LCDPutInst
                          _LCDPutStr
                    _disp_Changed_SW
                      _disp_Clock_SW
                        _handle_Time
                     _handle_Time_SW
 ---------------------------------------------------------------------------------
 (2) _handle_Time_SW                                       0     0      0       0
 ---------------------------------------------------------------------------------
 (2) _disp_Clock_SW                                        0     0      0    6172
                         _LCDPutChar
                         _LCDPutInst
                            ___awdiv
                            ___awmod
 ---------------------------------------------------------------------------------
 (2) _disp_Changed_SW                                      0     0      0    6817
                      _LCDMoveCursor
                         _LCDPutChar
                            ___awdiv
                            ___awmod
 ---------------------------------------------------------------------------------
 (1) _state_set_second                                     2     2      0   20645
                                             26 COMRAM     2     2      0
                         _LCDPutInst
                          _LCDPutStr
                       _disp_Changed
                         _disp_Clock
                    _disp_Clock_Hide
                        _handle_Time
 ---------------------------------------------------------------------------------
 (1) _state_set_minute                                     2     2      0   20645
                                             26 COMRAM     2     2      0
                         _LCDPutInst
                          _LCDPutStr
                       _disp_Changed
                         _disp_Clock
                    _disp_Clock_Hide
                        _handle_Time
 ---------------------------------------------------------------------------------
 (1) _state_set_hour                                       2     2      0   20645
                                             26 COMRAM     2     2      0
                         _LCDPutInst
                          _LCDPutStr
                       _disp_Changed
                         _disp_Clock
                    _disp_Clock_Hide
                        _handle_Time
 ---------------------------------------------------------------------------------
 (2) _disp_Clock_Hide                                      3     3      0    3662
                                             23 COMRAM     3     3      0
                           _LCDPrint
 ---------------------------------------------------------------------------------
 (3) _LCDPrint                                             4     1      3    3640
                                             19 COMRAM     4     1      3
                      _LCDMoveCursor
                          _LCDPutStr
 ---------------------------------------------------------------------------------
 (1) _state_clock                                          2     2      0   16983
                                             19 COMRAM     2     2      0
                         _LCDPutInst
                          _LCDPutStr
                       _disp_Changed
                         _disp_Clock
                        _handle_Time
 ---------------------------------------------------------------------------------
 (2) _handle_Time                                          0     0      0       0
 ---------------------------------------------------------------------------------
 (2) _disp_Clock                                           0     0      0    7713
                         _LCDPutChar
                         _LCDPutInst
                          _LCDPutStr
                            ___awdiv
                            ___awmod
 ---------------------------------------------------------------------------------
 (2) _LCDPutStr                                            2     0      2    1541
                                             14 COMRAM     2     0      2
                         _LCDPutChar
 ---------------------------------------------------------------------------------
 (2) _disp_Changed                                         0     0      0    6817
                      _LCDMoveCursor
                         _LCDPutChar
                            ___awdiv
                            ___awmod
 ---------------------------------------------------------------------------------
 (3) ___awmod                                              6     2      4    2120
                                              8 COMRAM     6     2      4
 ---------------------------------------------------------------------------------
 (3) _LCDPutChar                                           1     1      0     888
                                             13 COMRAM     1     1      0
                    _WritePort_BBSPI
 ---------------------------------------------------------------------------------
 (3) _LCDMoveCursor                                        5     4      1    1533
                                             14 COMRAM     5     4      1
                         _LCDPutInst
 ---------------------------------------------------------------------------------
 (1) ___lwmod                                              5     1      4     311
                                              8 COMRAM     5     1      4
 ---------------------------------------------------------------------------------
 (1) _SYSTEM_Initialize                                    0     0      0   96598
                            _LCDInit
                     _interrupt_init
                           _osc_init
                           _pin_init
                        _timer0_init
 ---------------------------------------------------------------------------------
 (2) _timer0_init                                          0     0      0   94684
                       _preCalculate
 ---------------------------------------------------------------------------------
 (3) _preCalculate                                        10    10      0   94684
                                             67 BANK0     10    10      0
                            ___awdiv
                            ___flmul
                            ___fltol
                               _powf
 ---------------------------------------------------------------------------------
 (4) _powf                                               205   197      8   79976
                                             40 BANK0     17     9      8
                                              0 BANK1    188   188      0
                            ___fladd
                            ___fldiv
                             ___flge
                            ___flmul
                            ___flneg
                            ___flsub
                           ___xxtofl
                              _fabsf
                            _scalbnf
                              _sqrtf
 ---------------------------------------------------------------------------------
 (5) _sqrtf                                               49    45      4   21037
                                             69 COMRAM     9     5      4
                                              0 BANK0     40    40      0
                            ___fladd
                             ___flge
                            ___flmul
                               _nanf
 ---------------------------------------------------------------------------------
 (6) _nanf                                                 8     4      4      99
                                              8 COMRAM     8     4      4
 ---------------------------------------------------------------------------------
 (6) ___flge                                              12     4      8     790
                                             57 COMRAM    12     4      8
                            ___fladd (ARG)
                            ___flsub (ARG)
 ---------------------------------------------------------------------------------
 (5) _scalbnf                                             18    12      6   12271
                                             49 COMRAM    18    12      6
                            ___flmul
 ---------------------------------------------------------------------------------
 (6) ___flmul                                             25    17      8   11776
                                             24 COMRAM    25    17      8
                            ___fladd (ARG)
 ---------------------------------------------------------------------------------
 (5) _fabsf                                                8     4      4     123
                                              8 COMRAM     8     4      4
 ---------------------------------------------------------------------------------
 (5) ___xxtofl                                            14    10      4     398
                                              8 COMRAM    14    10      4
 ---------------------------------------------------------------------------------
 (5) ___flsub                                              8     0      8   12769
                                             49 COMRAM     8     0      8
                            ___fladd
                            ___flmul (ARG)
 ---------------------------------------------------------------------------------
 (6) ___fladd                                             16     8      8    7430
                                              8 COMRAM    16     8      8
 ---------------------------------------------------------------------------------
 (5) ___flneg                                              4     0      4     197
                                              8 COMRAM     4     0      4
 ---------------------------------------------------------------------------------
 (5) ___fldiv                                             25    17      8    2903
                                             57 COMRAM    12     4      8
                                              0 BANK0     13    13      0
                            ___fladd (ARG)
                            ___flmul (ARG)
                            ___flsub (ARG)
 ---------------------------------------------------------------------------------
 (4) ___fltol                                             10     6      4     427
                                             57 BANK0     10     6      4
                            ___flmul (ARG)
                               _powf (ARG)
 ---------------------------------------------------------------------------------
 (3) ___awdiv                                              8     4      4    2276
                                              8 COMRAM     8     4      4
 ---------------------------------------------------------------------------------
 (2) _pin_init                                             0     0      0       0
 ---------------------------------------------------------------------------------
 (2) _osc_init                                             0     0      0       0
 ---------------------------------------------------------------------------------
 (2) _interrupt_init                                       0     0      0       0
 ---------------------------------------------------------------------------------
 (2) _LCDInit                                              1     1      0    1914
                                             14 COMRAM     1     1      0
                          _InitBBSPI
                         _LCDPutInst
                     _Port_BBSPIInit
                    _WritePort_BBSPI
 ---------------------------------------------------------------------------------
 (3) _Port_BBSPIInit                                       1     1      0     160
                                             11 COMRAM     1     1      0
                      _SendByteBBSPI
 ---------------------------------------------------------------------------------
 (3) _LCDPutInst                                           1     1      0     888
                                             13 COMRAM     1     1      0
                    _WritePort_BBSPI
 ---------------------------------------------------------------------------------
 (4) _WritePort_BBSPI                                      2     1      1     866
                                             11 COMRAM     2     1      1
                      _SendByteBBSPI
 ---------------------------------------------------------------------------------
 (5) _SendByteBBSPI                                        3     3      0     138
                                              8 COMRAM     3     3      0
 ---------------------------------------------------------------------------------
 (3) _InitBBSPI                                            0     0      0       0
 ---------------------------------------------------------------------------------
 Estimated maximum stack depth 6
 ---------------------------------------------------------------------------------
 (Depth) Function   	        Calls       Base Space   Used Autos Params    Refs
 ---------------------------------------------------------------------------------
 (8) _myISR                                                0     0      0      90
                       _handleButton
 ---------------------------------------------------------------------------------
 (9) _handleButton                                         6     6      0      90
                                              2 COMRAM     6     6      0
                      _readButtonRA5
                      _readButtonRB0
 ---------------------------------------------------------------------------------
 (10) _readButtonRB0                                       2     0      2       0
                                              0 COMRAM     2     0      2
 ---------------------------------------------------------------------------------
 (10) _readButtonRA5                                       2     0      2       0
                                              0 COMRAM     2     0      2
 ---------------------------------------------------------------------------------
 Estimated maximum stack depth 10
 ---------------------------------------------------------------------------------

 Call Graph Graphs:

 _main (ROOT)
   _SYSTEM_Initialize
     _LCDInit
       _InitBBSPI
       _LCDPutInst
         _WritePort_BBSPI
           _SendByteBBSPI
       _Port_BBSPIInit
         _SendByteBBSPI
       _WritePort_BBSPI
         _SendByteBBSPI
     _interrupt_init
     _osc_init
     _pin_init
     _timer0_init
       _preCalculate
         ___awdiv
         ___flmul
           ___fladd (ARG)
         ___fltol
           ___flmul (ARG)
             ___fladd (ARG)
           _powf (ARG)
             ___fladd
             ___fldiv
               ___fladd (ARG)
               ___flmul (ARG)
                 ___fladd (ARG)
               ___flsub (ARG)
                 ___fladd
                 ___flmul (ARG)
                   ___fladd (ARG)
             ___flge
               ___fladd (ARG)
               ___flsub (ARG)
                 ___fladd
                 ___flmul (ARG)
                   ___fladd (ARG)
             ___flmul
               ___fladd (ARG)
             ___flneg
             ___flsub
               ___fladd
               ___flmul (ARG)
                 ___fladd (ARG)
             ___xxtofl
             _fabsf
             _scalbnf
               ___flmul
                 ___fladd (ARG)
             _sqrtf
               ___fladd
               ___flge
                 ___fladd (ARG)
                 ___flsub (ARG)
                   ___fladd
                   ___flmul (ARG)
                     ___fladd (ARG)
               ___flmul
                 ___fladd (ARG)
               _nanf
         _powf
           ___fladd
           ___fldiv
             ___fladd (ARG)
             ___flmul (ARG)
               ___fladd (ARG)
             ___flsub (ARG)
               ___fladd
               ___flmul (ARG)
                 ___fladd (ARG)
           ___flge
             ___fladd (ARG)
             ___flsub (ARG)
               ___fladd
               ___flmul (ARG)
                 ___fladd (ARG)
           ___flmul
             ___fladd (ARG)
           ___flneg
           ___flsub
             ___fladd
             ___flmul (ARG)
               ___fladd (ARG)
           ___xxtofl
           _fabsf
           _scalbnf
             ___flmul
               ___fladd (ARG)
           _sqrtf
             ___fladd
             ___flge
               ___fladd (ARG)
               ___flsub (ARG)
                 ___fladd
                 ___flmul (ARG)
                   ___fladd (ARG)
             ___flmul
               ___fladd (ARG)
             _nanf
   ___lwmod
   _state_clock
     _LCDPutInst
       _WritePort_BBSPI
         _SendByteBBSPI
     _LCDPutStr
       _LCDPutChar
         _WritePort_BBSPI
           _SendByteBBSPI
     _disp_Changed
       _LCDMoveCursor
         _LCDPutInst
           _WritePort_BBSPI
             _SendByteBBSPI
       _LCDPutChar
         _WritePort_BBSPI
           _SendByteBBSPI
       ___awdiv
       ___awmod
     _disp_Clock
       _LCDPutChar
         _WritePort_BBSPI
           _SendByteBBSPI
       _LCDPutInst
         _WritePort_BBSPI
           _SendByteBBSPI
       _LCDPutStr
         _LCDPutChar
           _WritePort_BBSPI
             _SendByteBBSPI
       ___awdiv
       ___awmod
     _handle_Time
   _state_set_hour
     _LCDPutInst
       _WritePort_BBSPI
         _SendByteBBSPI
     _LCDPutStr
       _LCDPutChar
         _WritePort_BBSPI
           _SendByteBBSPI
     _disp_Changed
       _LCDMoveCursor
         _LCDPutInst
           _WritePort_BBSPI
             _SendByteBBSPI
       _LCDPutChar
         _WritePort_BBSPI
           _SendByteBBSPI
       ___awdiv
       ___awmod
     _disp_Clock
       _LCDPutChar
         _WritePort_BBSPI
           _SendByteBBSPI
       _LCDPutInst
         _WritePort_BBSPI
           _SendByteBBSPI
       _LCDPutStr
         _LCDPutChar
           _WritePort_BBSPI
             _SendByteBBSPI
       ___awdiv
       ___awmod
     _disp_Clock_Hide
       _LCDPrint
         _LCDMoveCursor
           _LCDPutInst
             _WritePort_BBSPI
               _SendByteBBSPI
         _LCDPutStr
           _LCDPutChar
             _WritePort_BBSPI
               _SendByteBBSPI
     _handle_Time
   _state_set_minute
     _LCDPutInst
       _WritePort_BBSPI
         _SendByteBBSPI
     _LCDPutStr
       _LCDPutChar
         _WritePort_BBSPI
           _SendByteBBSPI
     _disp_Changed
       _LCDMoveCursor
         _LCDPutInst
           _WritePort_BBSPI
             _SendByteBBSPI
       _LCDPutChar
         _WritePort_BBSPI
           _SendByteBBSPI
       ___awdiv
       ___awmod
     _disp_Clock
       _LCDPutChar
         _WritePort_BBSPI
           _SendByteBBSPI
       _LCDPutInst
         _WritePort_BBSPI
           _SendByteBBSPI
       _LCDPutStr
         _LCDPutChar
           _WritePort_BBSPI
             _SendByteBBSPI
       ___awdiv
       ___awmod
     _disp_Clock_Hide
       _LCDPrint
         _LCDMoveCursor
           _LCDPutInst
             _WritePort_BBSPI
               _SendByteBBSPI
         _LCDPutStr
           _LCDPutChar
             _WritePort_BBSPI
               _SendByteBBSPI
     _handle_Time
   _state_set_second
     _LCDPutInst
       _WritePort_BBSPI
         _SendByteBBSPI
     _LCDPutStr
       _LCDPutChar
         _WritePort_BBSPI
           _SendByteBBSPI
     _disp_Changed
       _LCDMoveCursor
         _LCDPutInst
           _WritePort_BBSPI
             _SendByteBBSPI
       _LCDPutChar
         _WritePort_BBSPI
           _SendByteBBSPI
       ___awdiv
       ___awmod
     _disp_Clock
       _LCDPutChar
         _WritePort_BBSPI
           _SendByteBBSPI
       _LCDPutInst
         _WritePort_BBSPI
           _SendByteBBSPI
       _LCDPutStr
         _LCDPutChar
           _WritePort_BBSPI
             _SendByteBBSPI
       ___awdiv
       ___awmod
     _disp_Clock_Hide
       _LCDPrint
         _LCDMoveCursor
           _LCDPutInst
             _WritePort_BBSPI
               _SendByteBBSPI
         _LCDPutStr
           _LCDPutChar
             _WritePort_BBSPI
               _SendByteBBSPI
     _handle_Time
   _state_stop_watch
     _LCDPutInst
       _WritePort_BBSPI
         _SendByteBBSPI
     _LCDPutStr
       _LCDPutChar
         _WritePort_BBSPI
           _SendByteBBSPI
     _disp_Changed_SW
       _LCDMoveCursor
         _LCDPutInst
           _WritePort_BBSPI
             _SendByteBBSPI
       _LCDPutChar
         _WritePort_BBSPI
           _SendByteBBSPI
       ___awdiv
       ___awmod
     _disp_Clock_SW
       _LCDPutChar
         _WritePort_BBSPI
           _SendByteBBSPI
       _LCDPutInst
         _WritePort_BBSPI
           _SendByteBBSPI
       ___awdiv
       ___awmod
     _handle_Time
     _handle_Time_SW

 _myISR (ROOT)
   _handleButton
     _readButtonRA5
     _readButtonRB0

 Address spaces:
Name               Size   Autos  Total    Cost      Usage
BIGRAM             F5F      0       0      37        0.0%
EEDATA             400      0       0       0        0.0%
BITBANK14          100      0       0      33        0.0%
BANK14             100      0       0      34        0.0%
BITBANK13          100      0       0      30        0.0%
BANK13             100      0       0      31        0.0%
BITBANK12          100      0       0      28        0.0%
BANK12             100      0       0      29        0.0%
BITBANK11          100      0       0      26        0.0%
BANK11             100      0       0      27        0.0%
BITBANK10          100      0       0      24        0.0%
BANK10             100      0       0      25        0.0%
BITBANK9           100      0       0      22        0.0%
BANK9              100      0       0      23        0.0%
BITBANK8           100      0       0      20        0.0%
BANK8              100      0       0      21        0.0%
BITBANK7           100      0       0      18        0.0%
BANK7              100      0       0      19        0.0%
BITBANK6           100      0       0      16        0.0%
BANK6              100      0       0      17        0.0%
BITBANK5           100      0       0      14        0.0%
BANK5              100      0       0      15        0.0%
BITBANK4           100      0       0      12        0.0%
BANK4              100      0       0      13        0.0%
BITBANK3           100      0       0      10        0.0%
BANK3              100      0       0      11        0.0%
BITBANK2           100      0       0       8        0.0%
BANK2              100      0       0       9        0.0%
BITBANK1           100      0       0       6        0.0%
BANK1              100     BC      BC       7       73.4%
BITBANK0            A0      0       0       4        0.0%
BANK0               A0     4F      76       5       73.8%
BITBANK15           60      0       0      35        0.0%
BANK15              60      0       0      36        0.0%
BITCOMRAM           5E      0       0       0        0.0%
COMRAM              5E     4E      56       1       91.5%
BITSFR               0      0       0     200        0.0%
SFR                  0      0       0     200        0.0%
STACK                0      0       0       2        0.0%
NULL                 0      0       0       0        0.0%
ABS                  0      0     188      32        0.0%
DATA                 0      0     188       3        0.0%
CODE                 0      0       0       0        0.0%


Microchip Technology PIC18 Macro Assembler V2.10 build 88905656 
Symbol Table                                                                                   Sat Oct 05 20:12:10 2019

             _LCDMoveCursor 63F6                ___fldiv@aexp 006C                ___fldiv@bexp 006B  
              ___fldiv@sign 0064                          _L1 1059                          _L2 1055  
                        _L3 1051                          _L4 104D                          _L5 1049  
                        _L6 1045                 ?_LCDPutChar 0001                          _P1 1041  
                        _P2 103D                          _P3 1039                          _P4 1035  
                        _P5 1031                 _state_clock 5F7C                ___awdiv@sign 000E  
                        _bp 1069                          _cp 101D                 ?_LCDPutInst 0001  
                        _hr 0054           ?_state_set_minute 0001           ?_state_set_second 0001  
            ??_disp_Changed 0014       SendByteBBSPI@bitcount 000A      __end_of_interrupt_init 6556  
                       l112 6554                         l170 58BC                         l331 653C  
                       l340 60B6                         l228 64BE                         l173 654A  
                       l334 605E                         l343 64FA                         l336 6072  
                       l352 62F0                         l328 6114                         l168 58AA  
                       l337 6074                         l346 6514                         l418 652A  
                       l267 655A                         l371 63B6                         l365 642E  
                       l349 62A4                         l358 63F4          ??_state_set_minute 001B  
                       l474 6258          ??_state_set_second 001B                         l571 52F8  
                       l468 57F0                         l477 5A3C                         l565 6208  
                       l486 5F7A                         l750 5AB4                         l495 5FEE  
                       l559 56F2                         l583 539A                         l568 5D0E  
                       l761 5D82                         l585 53E8                         l746 5BAC  
                       l739 5B6C                         l757 5AF4                         l768 5DBE  
  __size_of_disp_Clock_Hide 007C                         _lg2 102D                         _min 0053  
                       _sec 0052                         _ovt 1021                ___awmod@sign 000E  
                       wreg 000FE8                ___flmul@aexp 002A                ___flmul@bexp 002B  
              ___flmul@sign 0025                ___flmul@temp 0030                ___flmul@prod 002C  
           __end_of_LCDInit 6116                __CFG_LVP$OFF 000000                ___fltol@exp1 00A2  
              __CFG_WDT$OFF 000000                        l1002 5980                        l1015 5E6E  
                      l1041 55F4                        l1300 41AA                        l1036 55AE  
                      l1045 6466                        l1301 4170                        l1402 4878  
                      l1068 54F0                        l1316 42D6                        l1308 448C  
                      l1325 43A6                        l1341 6336                        l1326 4394  
                      l1510 3B0C                        l1440 5256                        l1272 604A  
                      l1353 4C52                        l1433 51FA                        l4001 450C  
                      l1505 10DC                        l1426 5162                        l1355 4AB2  
                      l4011 4562                        l4003 451C                        l1611 3306  
                      l1515 13DE                        l1507 10FC                        l1364 4AF8  
                      l1612 3382                        l1429 52BE                        l4101 48A2  
                      l4021 459C                        l4013 4572                        l4005 452C  
                      l1525 1474                        l1366 4B70                        l1358 4A76  
                      l1622 3AB8                        l1367 4B5E                        l4103 48A6  
                      l4031 45EE                        l4023 45B2                        l4007 453C  
                      l4111 5530                        l1543 165C                        l1535 1536  
                      l1279 6052                        l1392 4748                        l4041 4634  
                      l4033 45FC                        l4025 45BE                        l4017 4586  
                      l1385 4552                        l4009 4542                        l1633 510A  
                      l4121 559C                        l4113 555E                        l1394 47C0  
                      l1299 41BC                        l1395 47AE                        l4051 46A2  
                      l4043 464E                        l4035 4608                        l4027 45D6  
                      l4019 4592                        l4123 55EC                        l4115 556E  
                      l4107 54F2                        l4131 64D0                        l4141 62C2  
                      l4061 4738                        l4053 46CC                        l4045 465E  
                      l4037 4618                        l4029 45E2                        l1389 48B6  
                      l4125 55F2                        l4117 557C                        l4109 5520  
                      l1653 3D6A                        l1645 3FCC                        l5101 5E3A  
                      l1670 649A                        l4143 62CC                        l4135 62A8  
                      l4311 6430                        l4071 4778                        l4063 4746  
                      l4055 4702                        l4047 467A                        l4039 4624  
                      l4119 558E                        l4151 625C                        l5111 5E66  
                      l5103 5E42                        l1656 3E2E                        l4145 62D4  
                      l4137 62B0                        l4313 6446                        l4305 62F2  
                      l4321 511E                        l4081 47EA                        l4073 47A6  
                      l4065 4758                        l4057 4710                        l4049 4686  
                      l1673 64E0                        l4129 64C0                        l4401 3CE4  
                      l1649 3D0C                        l4161 6288                        l4153 6264  
                      l5105 5E48                        l5201 623E                        l1658 3F36  
                      l4147 62DE                        l4139 62BA                        l5131 60BC  
                      l5115 654C                        l5123 649C                        l4315 6456  
                      l4307 6302                        l4331 519C                        l4323 512C  
                      l4091 4860                        l4083 4814                        l4067 4766  
                      l4059 472E                        l4411 3DB8                        l4403 3D4C  
                      l6011 15E8                        l6003 159A                        l4163 6292  
                      l4155 626E                        l5107 5E4E                        l5211 5A30  
                      l5203 6240                        l4149 62E6                        l5141 60D6  
                      l5133 60BE                        l5125 64B0                        l4341 51F0  
                      l4333 51A4                        l4325 5172                        l4093 487C  
                      l4077 47D0                        l4085 4818                        l4069 476A  
                      l4421 3E74                        l4413 3DF6                        l4405 3D5A  
                      l6101 1E08                        l6021 167A                        l6013 160C  
                      l6005 15B2                        l4165 629A                        l4157 6276  
                      l5109 5E5E                        l5205 6244                        l5213 5F02  
                      l5063 652C                        l5151 6102                        l5143 60DC  
                      l5135 60C0                        l5127 6556                        l4351 5266  
                      l4343 522C                        l4335 51B0                        l4327 5188  
                      l4319 510E                        l4095 488C                        l4087 4832  
                      l4079 47DC                        l4431 3F0C                        l4423 3E84  
                      l4415 3E3E                        l4407 3D84                        l6103 1E24  
                      l6111 1E8A                        l6031 17BA                        l6023 16AE  
                      l6015 162A                        l6007 15C0                        l4159 6280  
                      l5207 6254                        l5071 637C                        l5215 5F06  
                      l5223 5F48                        l5231 5608                        l5065 64E4  
                      l5153 6108                        l5145 60E6                        l5137 60CE  
                      l5129 60B8                        l3801 4054                        l4361 52AE  
                      l4353 526A                        l4345 5238                        l4337 51E2  
                      l4441 6468                        l4097 489A                        l4089 4846  
                      l4433 3F9C                        l4425 3EB6                        l4417 3E48  
                      l4409 3DA4                        l6201 2776                        l6121 1F5A  
                      l6113 1EF2                        l6105 1E58                        l6041 1810  
                      l6025 16BE                        l6033 17DE                        l6017 1640  
                      l5081 5DC4                        l5161 570A                        l5209 5982  
                      l5073 638C                        l5217 5F1C                        l5401 5A3E  
                      l5241 565C                        l5233 560C                        l5067 64E6  
                      l5155 610E                        l5147 60F6                        l5139 60D0  
                      l3811 4094                        l3803 4062                        l4355 528E  
                      l4347 5246                        l4339 51E4                        l4443 6488  
                      l4099 489C                        l4451 4EE8                        l4435 3FAC  
                      l4427 3EC8                        l4419 3E5E                        l4371 3B2E  
                      l6211 28C2                        l6203 27AA                        l6123 1F7E  
                      l6131 1FBE                        l6115 1F0A                        l6107 1E6A  
                      l6043 1826                        l6051 18CC                        l6027 1722  
                      l6019 166C                        l5091 5DF4                        l5083 5DD2  
                      l5171 575E                        l5163 5714                        l5331 5F92  
                      l5075 63A0                        l5219 5F32                        l5403 5A50  
                      l5411 5A6A                        l5251 56B0                        l5243 5660  
                      l5235 5616                        l5069 64F8                        l5149 60FC  
                      l3901 4270                        l3821 40CE                        l3813 4096  
                      l3805 4064                        l4357 529E                        l4349 5264  
                      l4445 648A                        l4461 4F90                        l4453 4F04  
                      l4437 3FBC                        l4429 3EFA                        l4381 3C0C  
                      l4373 3B64                        l4365 3B0E                        l6301 30DA  
                      l6221 2940                        l6213 28F6                        l6205 27DE  
                      l6141 20FE                        l6133 1FCE                        l6125 1F92  
                      l6117 1F22                        l6109 1E7A                        l6053 18EE  
                      l6029 17A2                        l6037 17F2                        l5093 5E06  
                      l5085 5DDA                        l5181 57B2                        l5173 5768  
                      l5165 572E                        l5157 56F4                        l5341 5FBE  
                      l5333 5F98                        l5077 63AA                        l5421 5A8A  
                      l5413 5A7C                        l5405 5A54                        l5253 56B4  
                      l5245 566A                        l5237 5630                        l5229 55F6  
                      l5261 61C0                        l5501 530A                        l3751 6092  
                      l3743 606C                        l3735 6056                        l3911 42EC  
                      l3903 42A4                        l3831 40E2                        l3823 40D2  
                      l3807 4074                        l3815 409E                        l4359 52AC  
                      l4471 5010                        l4463 4F98                        l4455 4F38  
                      l4383 3C20                        l4391 3C56                        l4367 3B0E  
                      l6311 321E                        l6303 3130                        l6231 2ABC  
                      l6223 2974                        l6215 2906                        l6207 2812  
                      l6151 2158                        l6143 210E                        l6135 1FDE  
                      l6127 1FA2                        l6119 1F46                        l6055 1912  
                      l6063 19F8                        l6047 18A6                        l6039 1802  
                      l5095 5E0E                        l5087 5DDE                        l5079 5DC0  
                      l5183 57BC                        l5175 5782                        l5159 5706  
                      l5167 5748                        l5191 6220                        l5351 5FE4  
                      l5343 5FC0                        l5335 5FA4                        l5327 5F7C  
                      l5431 5AC6                        l5423 5A8E                        l5415 5A80  
                      l5407 5A5A                        l5255 56BE                        l5247 5684  
                      l5239 564A                        l5271 61EA                        l5263 61D0  
                      l5511 533C                        l5503 5322                        l3761 609C  
                      l3753 6094                        l3745 6082                        l3737 605A  
                      l3921 4328                        l3913 42FC                        l3905 42A6  
                      l3841 40F6                        l3833 40E6                        l3825 40D6  
                      l3817 40AE                        l3809 4084                        l4481 508C  
                      l4473 5018                        l4465 4FB4                        l4457 4F40  
                      l4449 4ED8                        l4393 3CAC                        l4385 3C2E  
                      l4377 3BC0                        l4369 3B1E                        l6313 3240  
                      l6321 3448                        l6241 2BBE                        l6233 2AE2  
                      l6225 29A8                        l6217 2916                        l6209 2846  
                      l6161 22CC                        l6153 21B2                        l6145 211E  
                      l6137 2042                        l6129 1FAE                        l6081 1C2A  
                      l6065 1A1C                        l6073 1B12                        l6057 1920  
                      l6049 18BC                        l5097 5E16                        l5089 5DEC  
                      l5185 57D6                        l5169 575A                        l5177 579C  
                      l5193 6224                        l5353 5FEA                        l5345 5FC4  
                      l5329 5F8E                        l5337 5FA8                        l5361 5B12  
                      l5433 5ACA                        l5441 5AD8                        l5425 5A9E  
                      l5417 5A82                        l5409 5A66                        l5257 56D8  
                      l5249 569E                        l5281 5C60                        l5273 61EE  
                      l5265 61D4                        l5521 5376                        l5513 534C  
                      l5505 5332                        l3763 609E                        l3755 6096  
                      l3747 608A                        l3771 6500                        l6403 547C  
                      l3931 4354                        l3923 432A                        l3907 42B6  
                      l3851 410A                        l3843 40FA                        l3835 40EA  
                      l3827 40DA                        l3819 40C0                        l4475 5034  
                      l4459 4F5C                        l4483 5094                        l4467 4FC0  
                      l4395 3CC0                        l4387 3C36                        l4379 3BDE  
                      l6331 34C6                        l6323 347C                        l6315 3372  
                      l6307 319C                        l6251 2C90                        l6243 2BCE  
                      l6235 2B16                        l6227 29DC                        l6219 2930  
                      l6171 243C                        l6163 2324                        l6155 2224  
                      l6147 212E                        l6139 20CA                        l6091 1D62  
                      l6083 1C5E                        l6075 1B46                        l6067 1A3A  
                      l6059 198C                        l5099 5E24                        l5179 57AE  
                      l5195 6226                        l5187 620A                        l5347 5FC8  
                      l5339 5FBA                        l5371 5B3A                        l5363 5B1E  
                      l5355 5AF6                        l5443 5AEA                        l5435 5ACC  
                      l5427 5AAA                        l5419 5A86                        l5451 5D26  
                      l5275 61F0                        l5267 61D6                        l5259 61BA  
                      l5531 53B0                        l5523 5382                        l5515 5358  
                      l5507 5336                        l3765 60A4                        l3757 6098  
                      l3749 6090                        l3773 6512                        l6421 54E0  
                      l6413 54A4                        l6405 5486                        l3941 438C  
                      l3925 4338                        l3917 4310                        l3933 4356  
                      l3909 42C6                        l3861 4168                        l3845 40FE  
                      l3837 40EE                        l3829 40DE                        l3853 410E  
                      l3781 3FEA                        l4485 50C6                        l4477 5068  
                      l4469 4FDC                        l4397 3CCA                        l6341 3612  
                      l6333 34FA                        l6325 348C                        l6317 3404  
                      l6309 320E                        l6261 2D32                        l6253 2CC4  
                      l6245 2BE8                        l6237 2B7A                        l6229 2A58  
                      l6181 25D0                        l6173 2494                        l6165 237C  
                      l6157 2234                        l6149 2148                        l6093 1D7C  
                      l6085 1C92                        l6077 1B9E                        l6069 1AA6  
                      l5197 622A                        l5189 6210                        l5349 5FD8  
                      l5381 5B62                        l5373 5B3E                        l5357 5B08  
                      l5365 5B22                        l5445 5AEE                        l5437 5AD0  
                      l5429 5AB0                        l5461 5D52                        l5453 5D2C  
                      l5277 61F4                        l5269 61DA                        l5533 53B4  
                      l5525 5392                        l5517 535E                        l5509 5338  
                      l3767 60A6                        l3759 609A                        l6415 54B0  
                      l6407 5490                        l3951 440A                        l3927 4340  
                      l3919 431A                        l3935 4364                        l3871 419E  
                      l3863 417E                        l3855 4112                        l3847 4102  
                      l3839 40F2                        l3783 3FFA                        l3791 4024  
                      l3775 3FCE                        l4487 50FA                        l4479 5070  
                      l4399 3CD6                        l6351 375E                        l6343 3646  
                      l6335 352E                        l6327 349C                        l6319 3414  
                      l6271 2E5A                        l6263 2D42                        l6247 2BF8  
                      l6239 2BAE                        l6191 26F8                        l6183 2604  
                      l6175 24EC                        l6167 23B0                        l6159 2298  
                      l6255 2CF8                        l6095 1D8C                        l6087 1D42  
                      l6079 1BD2                        l6431 586C                        l5631 6020  
                      l5623 5FF0                        l5199 623A                        l5391 5B88  
                      l5383 5B68                        l5375 5B42                        l5367 5B34  
                      l5359 5B0C                        l5439 5AD4                        l5471 5D78  
                      l5463 5D54                        l5455 5D38                        l5447 5D10  
                      l5279 6204                        l5527 53AA                        l5519 5366  
                      l3769 64FE                        l6417 54C0                        l5801 48D6  
                      l3961 4450                        l3945 43B6                        l3953 440C  
                      l3937 4368                        l3929 4344                        l3881 41EE  
                      l3873 41A8                        l3865 418A                        l3857 413C  
                      l3849 4106                        l3793 4034                        l3785 400A  
                      l3777 3FDA                        l6361 393A                        l6353 37B6  
                      l6345 367A                        l6337 3586                        l6329 34B6  
                      l6273 2E6A                        l6265 2D9A                        l6257 2D08  
                      l6249 2C2C                        l6193 272C                        l6185 265C  
                      l6177 2544                        l6169 23E4                        l6097 1DC0  
                      l6089 1D52                        l6441 58B8                        l6433 5888  
                      l6425 57F2                        l5633 6036                        l5625 6002  
                      l5393 5B8C                        l5385 5B7E                        l5377 5B46  
                      l5369 5B38                        l5481 5D9E                        l5473 5D7E  
                      l5465 5D58                        l5449 5D22                        l5457 5D3C  
                      l5529 53AE                        l5537 53BC                        l6419 54D0  
                      l5803 48E6                        l5811 4910                        l3971 447A  
                      l3963 445E                        l3955 441C                        l3947 43C2  
                      l3939 4376                        l3891 422A                        l3883 41FE  
                      l3875 41CA                        l3867 418E                        l3859 4158  
                      l3795 403A                        l3787 401A                        l3779 3FE8  
                      l6371 39F6                        l6363 396E                        l6355 380E  
                      l6347 36AE                        l6339 35DE                        l6291 3008  
                      l6283 2F0A                        l6275 2E7A                        l6267 2DF2  
                      l6259 2D18                        l6195 273C                        l6187 2690  
                      l6179 259C                        l6099 1DF8                        l6435 58A0  
                      l6427 57F6                        l6443 653E                        l6451 651E  
                      l5635 603E                        l5627 600A                        l5387 5B82  
                      l5395 5B90                        l5379 5B56                        l5475 5D94  
                      l5483 5DA2                        l5467 5D5C                        l5459 5D4E  
                      l5491 52D2                        l6381 53EA                        l5901 4B80  
                      l5821 493C                        l5813 4920                        l5805 48F6  
                      l3973 447C                        l3965 4464                        l3957 442C  
                      l3949 43D0                        l3893 4238                        l3885 420C  
                      l3877 41DA                        l3869 419C                        l3797 404C  
                      l3789 401C                        l3981 44A8                        l6373 3A38  
                      l6365 39A2                        l6357 3866                        l6349 3706  
                      l6293 3050                        l6285 2F22                        l6277 2E9E  
                      l6269 2E26                        l6197 274C                        l6189 26C4  
                      l6437 58AC                        l6429 582C                        l6445 6542  
                      l6453 6522                        l5637 6044                        l5629 6012  
                      l4941 63BC                        l5397 5BA2                        l5389 5B84  
                      l5485 5DB4                        l5477 5D98                        l5469 5D6C  
                      l5493 52D6                        l6461 5BB6                        l6391 5442  
                      l6383 5402                        l5911 4BE2                        l5903 4B8C  
                      l5823 494C                        l5831 4976                        l5815 4926  
                      l5807 4906                        l3967 4466                        l3959 444C  
                      l3895 423A                        l3887 421A                        l3799 404E  
                      l3991 44E0                        l3983 44AA                        l6375 3A88  
                      l6367 39D6                        l6359 38E2                        l6287 2F9C  
                      l6199 2766                        l6439 58B4                        l6447 6546  
                      l6455 6526                        l4951 6418                        l4943 63D0  
                      l5399 5BA6                        l5487 5DB8                        l5479 5D9A  
                      l5495 52DC                        l6471 5BFA                        l6463 5BC8  
                      l4961 58D0                        l6393 5452                        l5921 4C40  
                      l5913 4BF8                        l5905 4B9A                        l5841 49B8  
                      l5833 4986                        l5825 495C                        l5817 492C  
                      l5809 4908                        l3969 446C                        l3897 4244  
                      l3889 4226                        l3993 44F0                        l3985 44BA  
                      l3977 448E                        l6377 3AD8                        l6369 39E6  
                      l6449 6516                        l4953 6424                        l4945 63D4  
                      l5497 52E8                        l5489 52C0                        l6473 5C02  
                      l6465 5BCC                        l6457 5BAE                        l4971 58F6  
                      l4963 58D8                        l6395 5456                        l6387 5416  
                      l5923 4C46                        l5915 4C12                        l5907 4BC4  
                      l5835 499C                        l5827 496C                        l5819 493A  
                      l3899 424A                        l3995 44F6                        l3987 44CA  
                      l3979 449A                        l6299 30BC                        l4955 6428  
                      l4947 63F8                        l4939 63B8                        l5499 52EC  
                      l6475 5C0A                        l6467 5BE8                        l6483 5C1A  
                      l6459 5BB2                        l4981 592E                        l4973 58FE  
                      l4965 58DC                        l4957 58BE                        l6397 5464  
                      l6389 5440                        l5925 4C48                        l5917 4C2E  
                      l5909 4BC8                        l5861 4A3A                        l5853 49F0  
                      l5837 49AC                        l5845 49CC                        l5829 496E  
                      l3997 44FC                        l3989 44DA                        l5941 1196  
                      l5933 111C                        l4949 6408                        l6477 5C12  
                      l6469 5BF2                        l4991 595A                        l4983 5934  
                      l4975 5910                        l4967 58EA                        l4959 58C2  
                      l5919 4C32                        l5871 4A80                        l5863 4A42  
                      l5855 4A0A                        l5847 49DC                        l5839 49B4  
                      l3999 450A                        l5935 1164                        l6591 53D2  
                      l4985 594A                        l4977 5918                        l4993 5960  
                      l4969 58F2                        l5881 4AD8                        l5873 4A9E  
                      l5865 4A52                        l5857 4A1A                        l5849 49DC  
                      l5961 1276                        l5953 1228                        l5945 11AC  
                      l6593 5F5C                        l4995 5970                        l4987 5952  
                      l4979 5920                        l5891 4B16                        l5883 4ADE  
                      l5875 4AA0                        l5867 4A66                        l5859 4A2A  
                      l5795 48B8                        l5963 1292                        l5955 1238  
                      l5947 11CE                        l5939 117A             ??_disp_Clock_SW 0011  
                      l4997 5978                        l4989 5954                        l5893 4B1A  
                      l5885 4AE8                        l5877 4AB0                        l5869 4A74  
                      l5797 48C6                        l5965 1390                        l5957 1246  
                      l5949 11F0                        l6589 5C2E         _state_set_hour$1025 001B  
                      l5895 4B28                        l5887 4AF6                        l5879 4AC2  
                      l5799 48D4                        l5983 1488                        l5975 142E  
                      l5967 13FC                        l5991 14D4                        l5959 1262  
                      l5897 4B56                        l5889 4B08                        l5993 14F0  
                      l5985 1496                        l5977 1450                        l5969 1418  
                      l5995 14FE                        l5987 14BE                        l5979 145E  
                      l5997 154A                        l5999 1562                        STR_1 10D3  
                      STR_2 10D8                        STR_3 10D8                        STR_4 10D8  
                      STR_5 10C1                        STR_6 10B0                        STR_7 10D2  
                      STR_8 109F                        STR_9 108E                        u3000 43D0  
                      u3001 43CC                        u3010 440A                        u3011 4406  
                      u3020 441C                        u3100 450A                        u3021 4418  
                      u3101 4506                        _LATA 000F89                        u3030 442C  
                      u3110 451C                        _LATB 000F8A                        u3031 4428  
                      u3111 4518                        _LATC 000F8B                        u3040 444C  
                      u3200 47BC                        u3120 452C                        _LATD 000F8C  
                      u3041 4448                        u3201 47B8                        u3121 4528  
                      u3050 445E                        u3210 47D0                        u3130 4562  
                      u3051 445A                        u3211 47CC                        u3131 455E  
                      u3060 447A                        u3220 47EA                        u3140 4572  
                      u3300 55EC                        u3061 4476                        u3221 47E6  
                      u3141 456E                        u3301 55E8                        u3230 4832  
                      u3150 46EC                        u3070 44A8                        u3231 482E  
                      u3071 44A4                        u3240 4860                        u3160 4746  
                      u3080 44BA                        u5000 5DB4                        u3241 485C  
                      u3161 4742                        u3081 44B6                        u5001 5DB0  
                      u3250 489A                        u3170 4766                        u3090 44CA  
                      u5010 52D2                        u3251 4896                        u3171 4762  
                      u3155 46E2                        u3091 44C6                        u5011 52CE  
                      u2700 400A                        u3180 4778                        u3260 5520  
                      u5020 530A                        u2701 4006                        u3181 4774  
                      u3261 551C                        u5021 5306                        u2710 404C  
                      u3190 47A6                        u3270 555E                        u5030 5332  
                      u2711 4048                        u3191 47A2                        u3271 555A  
                      u5031 532E                        u2800 417E                        u2720 4062  
                      u3600 5246                        u3280 557C                        u6000 3240  
                      u5200 6002                        u5040 534C                        u2801 417A  
                      u2721 405E                        u3601 5242                        u3281 5578  
                      u6001 323C                        u5201 5FFE                        u5041 5348  
                      u2650 606C                        u2810 419C                        u2730 4074  
                      u3610 5256                        u3290 559C                        u5210 6020  
                      u5050 5376                        u2651 6068                        u2811 4198  
                      u2731 4070                        u3611 5252                        u3291 5598  
                      u5211 601C                        u5051 5372                        u2660 6082  
                      u4500 5970                        u6100 5436                        u5300 48E6  
                      u3540 6446                        u2900 42EC                        u2820 41BC  
                      u2740 4084                        u3620 5264                        u3700 3CAC  
                      u5220 6036                        u5060 5392                        u2661 607E  
                      u4501 596C                        u5301 48E2                        u3541 6442  
                      u2901 42E8                        u2821 41B8                        u2741 4080  
                      u3621 5260                        u3701 3CA8                        u5221 6032  
                      u5061 538E                        u2670 60B6                        u6110 5464  
                      u5310 48F6                        u2910 42FC                        u2830 41CA  
                      u2750 40C0                        u3630 529E                        u3550 511E  
                      u3710 3CE4                        u4430 63F4                        u5070 53AA  
                      u2671 60B2                        u6111 5460                        u5311 48F2  
                      u2911 42F8                        u2831 41C6                        u2751 40BC  
                      u3631 529A                        u3551 511A                        u3711 3CE0  
                      u6015 325A                        u4431 63F0                        u5071 53A6  
                      u6120 5478                        u5400 4AC2                        u5320 493A  
                      u2920 4328                        u2840 41DA                        u2760 40CE  
                      u2680 3FE8                        u3640 52AC                        u3560 512C  
                      u3800 4F5C                        u3720 3D5A                        u6016 3264  
                      u4440 6408                        u4600 639C                        u6121 5474  
                      u6105 542C                        u5401 4ABE                        u5321 4936  
                      u2921 4324                        u2841 41D6                        u2761 40CA  
                      u2681 3FE4                        u3641 52A8                        u3561 5128  
                      u3801 4F58                        u3721 3D56                        u6025 32C4  
                      u6017 3274                        u4441 6404                        u4601 6398  
                      u4450 58D0                        u6130 54A0                        u5410 4AD8  
                      u5330 494C                        u2930 4338                        u2850 420C  
                      u2770 413C                        u2690 3FFA                        u3570 5188  
                      u3810 4FB4                        u3730 3DF6                        u3650 3B64  
                      u6050 3404                        u6026 32CE                        u4610 5DD2  
                      u4451 58CC                        u6131 549C                        u5411 4AD4  
                      u5331 4948                        u2931 4334                        u2851 4208  
                      u2771 4138                        u2691 3FF6                        u3571 5184  
                      u3811 4FB0                        u3731 3DF2                        u3651 3B60  
                      u6051 3400                        u6035 331C                        u6027 32DE  
                      u4611 5DCE                        u4460 58EA                        u6140 54C0  
                      u5500 4C12                        u5420 4AF6                        u5340 495C  
                      u2940 4354                        u2860 421A                        u2780 4154  
                      u3580 51DE                        u3820 4FDC                        u3740 3E5E  
                      u3660 3BDE                        u6036 3326                        u4620 5DEC  
                      u4700 6220                        u4461 58E6                        u6141 54BC  
                      u5501 4C0E                        u5421 4AF2                        u5341 4958  
                      u2941 4350                        u2861 4216                        u2781 414E  
                      u3581 51DA                        u3821 4FD8                        u3741 3E5A  
                      u3661 3BDA                        u6045 33CA                        u6037 3336  
                      u4621 5DE8                        u4701 621C                        u4470 5910  
                      u6150 54D0                        u5510 4C40                        u5430 4B16  
                      u5350 499C                        u2950 4364                        u2870 4238  
                      u2790 4156                        u3590 5228                        u3830 5034  
                      u3750 3E74                        u3670 3C0C                        u6046 33D4  
                      u4630 5E06                        u4710 623A                        u4471 590C  
                      u6151 54CC                        u5511 4C3C                        u5431 4B12  
                      u5351 4998                        u2951 4360                        u2871 4234  
                      u3591 5224                        u3831 5030                        u3751 3E70  
                      u3671 3C08                        u6047 33E4                        u6207 6282  
                      u4631 5E02                        u4711 6236                        u4480 592E  
                      u5440 4B28                        u5360 49DC                        u2960 4376  
                      u2880 4270                        u3840 508C                        u3760 3EB6  
                      u3680 3C2E                        u6080 3A88                        u5520 1164  
                      u6160 58A0                        u4640 5E24                        u4720 6254  
                      u4481 592A                        u5441 4B24                        u5361 49D8  
                      u2961 4372                        u2881 426C                        u3841 5088  
                      u3761 3EB2                        u3681 3C2A                        u6081 3A84  
                      u6065 3A08                        u5521 1160                        u6161 589C  
                      u6217 6294                        u4641 5E20                        u4721 6250  
                      u4490 594A                        u6090 5402                        u5450 4B56  
                      u5370 4A52                        u5290 48D4                        u2970 438C  
                      u2890 42B6                        u3770 3EFA                        u5610 1356  
                      u5530 1196                        u4650 5E3A                        u4730 5608  
                      u6170 5BC8                        u6227 60C6                        u4491 5946  
                      u6091 53FE                        u5451 4B52                        u5371 4A4E  
                      u5291 48D0                        u2971 4388                        u2891 42B2  
                      u3771 3EF6                        u6075 3A4E                        u5531 1192  
                      u4651 5E36                        u4731 5604                        u6171 5BC4  
                      u5460 4B6C                        u5380 4A74                        u2980 43A2  
                      u6076 3A58                        u5700 1562                        u5620 1390  
                      u5540 11CE                        u4660 5E5E                        u4900 5BA2  
                      u4740 565C                        u6237 60EC                        u5461 4B68  
                      u5381 4A70                        u2981 439E                        u6077 3A68  
                      u5701 155E                        u5621 138C                        u5605 1302  
                      u5541 11CA                        u4661 5E5A                        u4901 5B9E  
                      u4741 5658                        u5470 4B80                        u5390 4A9E  
                      u2990 43B6                        u3790 4F04                        u5710 15B2  
                      u5630 13FC                        u5606 130C                        u5550 11F0  
                      u4670 5706                        u4830 5F8E                        u4590 638C  
                      u4910 5A50                        u4750 56B0                        u6247 62AA  
                      u5471 4B7C                        u5391 4A9A                        u2991 43B2  
                      u3855 50A6                        u3791 4F00                        u3695 3C6A  
                      u5711 15AE                        u5631 13F8                        u5615 134C  
                      u5607 131C                        u5551 11EC                        u4671 5702  
                      u4831 5F8A                        u4591 6388                        u4911 5A4C  
                      u4751 56AC                        u5480 4B9A                        u3696 3C74  
                      u5800 1810                        u5720 15C0                        u5640 1418  
                      u5560 1246                        u4680 575A                        u4840 5FBA  
                      u4920 5A7C                        u4760 61D0                        u6257 62BC  
                      u5481 4B96                        u3785 3F7C                        u3697 3C84  
                      u5801 180C                        u5721 15BC                        u5641 1414  
                      u5561 1242                        u4681 5756                        u4841 5FB6  
                      u4921 5A78                        u4761 61CC                        u5490 4BE2  
                      u5810 1826                        u5730 162A                        u5650 1450  
                      u5570 1262                        u4690 57AE                        u4850 5FD8  
                      u4930 5A9E                        u4770 61EA                        u6267 62CE  
                      u5491 4BDE                        u5811 1822                        u5731 1626  
                      u5651 144C                        u5571 125E                        u6187 625E  
                      u4691 57AA                        u4851 5FD4                        u4931 5A9A  
                      u4771 61E6                        u5900 1F46                        u5820 18BC  
                      u5740 1640                        u5660 145E                        u5580 1292  
                      u4860 5B08                        u4940 5AC6                        u4780 6204  
                      u6277 62E0                        u5901 1F42                        u5821 18B8  
                      u5741 163C                        u5661 145A                        u5581 128E  
                      u6197 6270                        u4861 5B04                        u4941 5AC2  
                      u4781 6200                        u5910 1F7E                        u5830 18EE  
                      u5750 165C                        u5670 1496                        u4870 5B34  
                      u4950 5AEA                        u5911 1F7A                        u5831 18EA  
                      u5751 1658                        u5671 1492                        u4871 5B30  
                      u4951 5AE6                        u5840 1912                        u5760 167A  
                      u5680 14F0                        u4880 5B56                        u4960 5D22  
                      u5841 190E                        u5761 1676                        u5681 14EC  
                      u4881 5B52                        u4961 5D1E                        u5930 2E9E  
                      u5850 1920                        u5770 16BE                        u5690 14FE  
                      u4890 5B7E                        u4970 5D4E                        u5931 2E9A  
                      u5851 191C                        u5771 16BA                        u5691 14FA  
                      u5595 12A8                        u4891 5B7A                        u4971 5D4A  
                      u5940 2F22                        u5860 1A1C                        u5780 1722  
                      u5596 12B2                        u4980 5D6C                        u5941 2F1E  
                      u5925 21C4                        u5861 1A18                        u5781 171E  
                      u5597 12C2                        u4981 5D68                        u5950 2F9C  
                      u5870 1A3A                        u5790 17BA                        u4990 5D94  
                      u5951 2F98                        u5871 1A36                        u5791 17B6  
                      u4991 5D90                        u5960 3050                        u5880 1E24  
                      u5961 304C                        u5881 1E20                        u5970 30DA  
                      u5971 30D6                        u5980 3130                        u5981 312C  
                      u5895 1EA0                        u5896 1EAA                        u5897 1EBA  
                      u5995 31CC                        u5996 31D6                        u5997 31E6  
                      _cp_h 1079                        _cp_l 1075                        _dp_h 1009  
                      _dp_l 1001                        _main 5BAE                        _nanf 64C0  
                      _huge 1061                        _powf 10DC                        _tiny 105D  
                      fsr1l 000FE1                        btemp 0057            ?_WritePort_BBSPI 000C  
                      prodh 000FF4                        prodl 000FF3           _LCDMoveCursor$673 0011  
                      start 000E          __size_of_LCDPutStr 003E               __CFG_IESO$OFF 000000  
           ___fldiv@new_exp 0065               __CFG_MCLRE$ON 000000              ?_LCDMoveCursor 000F  
              ___param_bank 000000           ?_state_stop_watch 0001            __end_of_LCDPrint 63B8  
             ___fltol@sign1 00A1                 LCDPrint@pos 0014                 LCDPrint@ptr 0015  
           __end_of___fladd 448E                       ?_main 0001                       ?_nanf 0009  
           __end_of___fldiv 4C54          ??_state_stop_watch 0014             __end_of___awdiv 5982  
           __end_of___flneg 6468                       STR_10 107D                       STR_11 10DA  
           __end_of___awmod 5E70             __end_of___flmul 48B8                       ?_powf 0088  
           __end_of___flsub 6338             __end_of___fltol 54F2             ?_interrupt_init 0001  
                     _T0CON 000FD5             ___awdiv@divisor 000B                       i2l121 5EFC  
           __end_of___lwmod 6054                       i2l651 61B8                       i2l659 6166  
                     i2l689 4ED6             ___awdiv@counter 000D                       _TMR0H 000FD7  
                     _TMR0L 000FD6                       _TRISA 000F92                       _TRISB 000F93  
                     _TRISC 000F94                       _TRISD 000F95               __CFG_PWRT$OFF 000000  
            __CFG_FCMEN$OFF 000000     __size_of_Port_BBSPIInit 001A                       _lg2_h 1029  
                     _lg2_l 1025                       _fabsf 6468                       _myISR 0008  
                     _count 00BF                       _errno 00B3                       _ivln2 1019  
           __end_of_ivln2_h 1075             __end_of_ivln2_l 1019                       _ms_sw 004F  
                     _two24 1065             __end_of_scalbnf 510C           _preCalculate$1821 00A3  
                     _state 0056                       _sqrtf 3B0E                       nanf@s 0009  
                     nanf@u 000D              __CFG_BOREN$OFF 000000                       tablat 000FF5  
       __size_of_LCDPutChar 004C                       powf@i 012C                       powf@j 01AC  
                     powf@k 01A0                       powf@n 0180                       powf@r 014C  
                     powf@s 015C                       powf@t 01B0                       powf@u 0174  
                     powf@v 0178                       powf@w 0144                       powf@x 0088  
                     powf@y 008C                       powf@z 01B4         __size_of_LCDPutInst 004C  
                     ttemp5 0058                       ttemp6 005B                       ttemp7 005F  
                     status 000FD8                       wtemp8 0058              _state_set_hour 5AF6  
           __initialization 6338                __end_of_cp_h 107D                __end_of_cp_l 1079  
              __end_of_dp_h 1011                __end_of_dp_l 1009                __end_of_main 5C60  
              __end_of_nanf 64E2                __end_of_huge 1065                __end_of_powf 3B0E  
              __end_of_tiny 1061           ??_disp_Changed_SW 0014        __end_of_handleButton 4ED8  
                    ??_main 00AD                      ??_nanf 000D                      ??_powf 0090  
             __activetblptr 000003      __size_of_readButtonRB0 0052      __size_of_readButtonRA5 0052  
                 ??_LCDInit 000F                LCDPutChar@ch 000E           __end_of_LCDPutStr 63F6  
      __size_of_handle_Time 0050                LCDPrint@line 0017                      ?_fabsf 0009  
                    _ADCON1 000FC1                      ?_myISR 0001          __size_of_InitBBSPI 0012  
         ??_disp_Clock_Hide 0018            ___awdiv@dividend 0009                LCDPutInst@ch 000E  
                    ?_sqrtf 0046                      i2l5301 6116                      i2l5311 6152  
                    i2l5303 611A                      i2l5305 6124                      i2l5307 6136  
                    i2l5315 615E                      i2l5309 6146                      i2l5601 4E28  
                    i2l5291 6198                      i2l5283 6168                      i2l5611 4E9A  
                    i2l5603 4E3E                      i2l5293 61A4                      i2l5285 616C  
                    i2l5613 4EAC                      i2l5287 6176                      i2l5607 4E4E  
                    i2l5551 4CA6                      i2l5543 4C54                      i2l5289 6188  
                    i2l5297 61B0                      i2l5609 4E88                      i2l5561 4CE8  
                    i2l5553 4CAA                      i2l5545 4C6C                      i2l5571 4D30  
                    i2l5563 4CF4                      i2l5555 4CC0                      i2l5547 4C80  
                    i2l5581 4DA8                      i2l5565 4D0A                      i2l5557 4CCC  
                    i2l5549 4C9A                      i2l5591 4DE2                      i2l5583 4DB4  
                    i2l5567 4D16                      i2l5559 4CD4                      i2l5575 4D40  
                    i2l5671 5E72                      i2l5593 4DF6                      i2l5585 4DB8  
                    i2l5569 4D1A                      i2l5577 4D7A                      i2l5681 5EA2  
                    i2l5673 5E80                      i2l5595 4E02                      i2l5587 4DCE  
                    i2l5579 4D8E                      i2l5691 5EDC                      i2l5683 5EA6  
                    i2l5675 5E8E                      i2l5597 4E18                      i2l5589 4DDA  
                    i2l5693 5EF0                      i2l5685 5EB8                      i2l5677 5E98  
                    i2l5599 4E24                      i2l5687 5EC4                      i2l5679 5E9C  
                    i2l5689 5ED8                      i2l6595 4D54                      i2l6597 4E62  
           _state_clock$757 0014                      _OSCCON 000FD3        _state_stop_watch$800 0016  
              LCDPutStr@ptr 000F      __end_of_state_set_hour 5BAE        __end_of_disp_Changed 57F2  
          __end_of___xxtofl 52C0             ??_LCDMoveCursor 0010              __CFG_XINST$OFF 000000  
                    ___flge 54F2                   ??___fladd 0011                   ??___fldiv 0042  
                 ??___awdiv 000D                   ??___flneg 000D                   ??___awmod 000D  
                 ??___flmul 0021                   ??___flsub 003A                   ??___fltol 009D  
              ?_timer0_init 0001                   ??___lwmod 000D                      _count1 00BD  
                    fabsf@u 000D                      fabsf@x 0009                      _min_sw 0051  
                    clear_0 635E                      clear_1 636A                      _sec_sw 0050  
          ___awdiv@quotient 000F             ___awmod@divisor 000B             ___awmod@counter 000D  
          __end_of_pin_init 64C0            __end_of_osc_init 655C      Port_BBSPIInit@port_dir 000C  
                 ??_scalbnf 0038            LCDMoveCursor@pos 000F                __mediumconst 0000  
                    powf@s2 018C                      powf@t1 0184                      powf@t2 011C  
                    tblptrh 000FF7                      tblptrl 000FF6                      powf@y1 0128  
                    tblptru 000FF8                      powf@ax 0170                      powf@is 0194  
                    powf@hx 0160                      powf@hy 017C                      powf@ix 01A8  
                    powf@iy 0190                      powf@sn 0188            _sec_changed_flag 00C9  
                    sqrtf@i 0068                      sqrtf@m 007C                      sqrtf@q 0070  
                    sqrtf@r 0080                      sqrtf@s 0064                      sqrtf@t 0074  
                    sqrtf@x 0046                      sqrtf@z 0078                  ___flge@ff1 003A  
                ___flge@ff2 003E                ___xxtofl@arg 0013                ___xxtofl@exp 0012  
         _SYSTEM_Initialize 6516                ___xxtofl@val 0009                  __accesstop 0060  
   __end_of__initialization 6370                  ___flneg@f1 0009             ?_state_set_hour 0001  
                 ?_LCDPrint 0014               ?_preCalculate 0001          ?_SYSTEM_Initialize 0001  
             _readButtonRB0 6116               _readButtonRA5 6168               ___rparam_used 000001  
                ___fltol@f1 0099      __size_of_SendByteBBSPI 0064              __pcstackCOMRAM 0001  
              __pidataBANK0 655C               __end_of_lg2_h 102D               __end_of_lg2_l 1029  
       ??_SYSTEM_Initialize 004F               __end_of_fabsf 649C               __end_of_myISR 5F00  
         __end_of_InitBBSPI 653E               __end_of_ivln2 101D                ??_LCDPutChar 000E  
              ?_state_clock 0001               __end_of_two24 1069                ??_LCDPutInst 000E  
             __end_of_sqrtf 3FCE                  __end_of_L1 105D                  __end_of_L2 1059  
                __end_of_L3 1055                  __end_of_L4 1051                  __end_of_L5 104D  
                __end_of_L6 1049                  __end_of_P1 1045                  __end_of_P2 1041  
                __end_of_P3 103D                  __end_of_P4 1039                  __end_of_P5 1035  
                __end_of_bp 1071                  __end_of_cp 1021       _state_set_minute$1029 001B  
          preCalculate@temp 00A9       _state_set_second$1032 001B             __CFG_OSC$INTIO7 000000  
            _Port_BBSPIInit 64E2                     ??_fabsf 000D                     ??_myISR 0009  
 __end_of_SYSTEM_Initialize 652C                     ??_sqrtf 004A   __size_of_state_set_minute 00B8  
 __size_of_state_set_second 00B0                  __pbssBANK0 00AF              ??_preCalculate 004F  
            ?_readButtonRB0 0001              ?_readButtonRA5 0001          __end_of_LCDPutChar 62A6  
                ??_LCDPrint 0017          __end_of_LCDPutInst 62F2             _hr_changed_flag 00C7  
      disp_Clock_Hide@state 001A       __size_of_handleButton 0284                     ?___flge 003A  
          ??_interrupt_init 0009     __size_of_handle_Time_SW 0050                  _disp_Clock 5982  
    __end_of_Port_BBSPIInit 64FC                     _LCDInit 60B8    preCalculate@count_scaled 00AB  
             _SendByteBBSPI 6054                   ?___xxtofl 0009         _min_sw_changed_flag 00C3  
     __size_of_disp_Changed 00FE   __size_of_state_stop_watch 012A                  _countRB0_1 00B5  
                _countRA5_1 00B9                _handleButton 4C54            WritePort_BBSPI@a 000C  
     LCDMoveCursor@position 0013       __end_of_disp_Clock_SW 5D10             _disp_Changed_SW 55F6  
                 ?_pin_init 0001                     __Hparam 0000                   ?_osc_init 0001  
                   __Lparam 0000             __size_of___flge 0104                     ___fladd 3FCE  
                   ___fldiv 48B8                     ___awdiv 58BE                     ___flneg 6430  
                   ___awmod 5DC0                     ___flmul 448E                     ___flsub 62F2  
                   ___fltol 53EA                     ___lwmod 5FF0    __size_of_WritePort_BBSPI 001A  
              __psmallconst 1000                     __pcinit 6338                     __ramtop 1000  
      __size_of_timer0_init 000E             _disp_Clock_Hide 5F00                     __ptext0 5BAE  
                   __ptext1 52C0                     __ptext2 61BA                     __ptext3 5C60  
                   __ptext4 55F6                     __ptext5 5D10                     __ptext6 5A3E  
                   __ptext7 5AF6                     __ptext8 5F00                     __ptext9 637A  
                 _T0CONbits 000FD5          _ms_sw_changed_flag 00C5                _disp_Changed 56F4  
            ?_SendByteBBSPI 0001             ?_Port_BBSPIInit 0001                     _ivln2_h 1071  
                   _ivln2_l 1015                  ??___xxtofl 000D                     _scalbnf 4ED8  
          ___awmod@dividend 0009                     _ms_flag 00CA  __size_of_SYSTEM_Initialize 0016  
                 _LCDPutStr 63B8              __pintcode_body 5E70        end_of_initialization 6370  
           ??_readButtonRB0 0003             ??_readButtonRA5 0003                     int_func 5E70  
         LCDMoveCursor@line 0010                  ??_pin_init 0009                  ??_osc_init 0009  
                   powf@p_h 019C                     powf@p_l 0164                     powf@s_h 016C  
                   powf@t_h 0168                     powf@s_l 0130                     powf@t_l 0134  
                   powf@z_h 0120                     powf@z_l 0124                     postdec1 000FE5  
                   postinc0 000FEE                     sqrtf@ix 0084        handleButton@checkRB0 0007  
      handleButton@checkRA5 0005                   _PORTAbits 000F80                   _PORTBbits 000F81  
      __size_of_state_clock 0074        __end_of_preCalculate 58BE               ??_handle_Time 0009  
               ?_disp_Clock 0001                 ___fladd@grs 0018               ___xxtofl@sign 0011  
                 _TRISAbits 000F92                   _TRISCbits 000F94                   _TRISFbits 000F97  
   __end_of_disp_Changed_SW 56F4                 ___fldiv@grs 0067                 ___fldiv@rem 0060  
          ??_state_set_hour 001B                  ?_LCDPutStr 000F            _state_set_minute 5A3E  
          _state_set_second 5D10         SendByteBBSPI@output 0009                 ___flmul@grs 0026  
         __size_of_LCDPrint 003E       __end_of_LCDMoveCursor 6430     __end_of_disp_Clock_Hide 5F7C  
            _handle_Time_SW 61BA              __end_of___flge 55F6                _firstReadRB0 00D2  
              _firstReadRA5 00D4             ??_SendByteBBSPI 0009               _secondReadRB0 00D1  
             _secondReadRA5 00D3                   _InitBBSPI 652C            _min_changed_flag 00C8  
         ??_WritePort_BBSPI 000D         start_initialization 6338                 __end_of_lg2 1031  
               __end_of_ovt 1025         __end_of_handle_Time 625A            _state_stop_watch 52C0  
         preCalculate@count 00A7                _counter_high 00CF         __size_of_disp_Clock 00BC  
    __end_of_handle_Time_SW 620A                    ??___flge 0042                 __pdataBANK0 00D1  
                ?_InitBBSPI 0001                   ___fladd@a 000D                   ___fladd@b 0009  
                  ?_LCDInit 0001                   ___fldiv@a 003E                   ___fldiv@b 003A  
                 ___flmul@a 001D                   ___flmul@b 0019                 __pbssCOMRAM 004F  
                 ___flsub@a 0036                   ___flsub@b 0032               __pcstackBANK0 0060  
             __pcstackBANK1 0100           __end_ofsqrtf@tiny 1015            ?_disp_Changed_SW 0001  
         __size_of___xxtofl 01B4                 ??_LCDPutStr 0011             ?_handle_Time_SW 0001  
                 __pintcode 0008            ?_disp_Clock_Hide 0001           __size_of_pin_init 0024  
                  ?___fladd 0009                    ?___fldiv 003A                    ?___awdiv 0009  
                  ?___flneg 0009           __size_of_osc_init 0006       __size_of_preCalculate 00CC  
                  ?___awmod 0009                    ?___flmul 0019                    ?___flsub 0032  
                  ?___fltol 0099                    ?___lwmod 0009            ??_Port_BBSPIInit 000C  
                 _hide_flag 00CB                   fabsf@F463 00AF                 __smallconst 1000  
               _handle_Time 620A                    ?_scalbnf 0032                   _buttonRB0 00CD  
                 _buttonRA5 00CE              __size_of_fabsf 0034              __size_of_myISR 5EF8  
            __size_of_sqrtf 04C0                   _powf$1822 01A4                   _powf$1830 013C  
                 _powf$1823 0154                   _powf$1831 0140                   _powf$1824 0148  
                 _powf$1832 0108                   _powf$1825 0198                   _powf$1833 010C  
                 _powf$1826 0138                   _powf$1834 0110                   _powf$1835 0114  
                 _powf$1827 0100                   _powf$1836 0118                   _powf$1828 0104  
                 _powf$1829 0158                    _LCDPrint 637A                    _LATAbits 000F89  
                  _LATCbits 000F8B                    _LATFbits 000F8E                _preCalculate 57F2  
                  i2u510_40 4CE8                    i2u510_41 4CE4                    i2u511_40 4D0A  
                  i2u511_41 4D06                    i2u512_40 4D30                    i2u512_41 4D2C  
                  i2u513_40 4D8E                    i2u513_41 4D8A                    i2u514_40 4DCE  
                  i2u514_41 4DCA                    i2u515_40 4DF6                    i2u515_41 4DF2  
                  i2u516_40 4E18                    i2u508_40 4C80                    i2u524_40 5E80  
                  i2u516_41 4E14                    i2u508_41 4C7C                    i2u524_41 5E7C  
                  i2u517_40 4E3E                    i2u509_40 4CC0                    i2u525_40 5E8E  
                  i2u517_41 4E3A                    i2u509_41 4CBC                    i2u525_41 5E8A  
                  i2u518_40 4E9A                    i2u526_40 5EB8                    i2u518_41 4E96  
                  i2u526_41 5EB4                    i2u519_40 4EAC                    i2u527_40 5ED8  
                  i2u519_41 4EA8                    i2u527_41 5ED4                    i2u480_40 6198  
                  i2u528_40 5EF0                    i2u480_41 6194                    i2u528_41 5EEC  
                  i2u481_40 6136                    i2u481_41 6132                    i2u482_40 6146  
                  i2u482_41 6142                    i2u479_40 6188                    i2u479_41 6184  
             ??_timer0_init 004F                  powf@yisint 0150    __end_of_state_set_minute 5AF6  
  __end_of_state_set_second 5DC0                 ??_InitBBSPI 0009          SendByteBBSPI@input 000B  
              ??_disp_Clock 0011      __size_of_disp_Clock_SW 00B0            __size_of_LCDInit 005E  
   __size_of_interrupt_init 000A                   copy_data0 634C         _sec_sw_changed_flag 00C4  
     __end_of_readButtonRB0 6168       __end_of_readButtonRA5 61BA                 _counter_low 00D0  
                  __Hrparam 0000          __end_of_disp_Clock 5A3E                    __Lrparam 0000  
           _WritePort_BBSPI 64FC    __end_of_state_stop_watch 53EA               ??_state_clock 0014  
          __size_of___fladd 04C0            __size_of___fldiv 039C            __size_of___awdiv 00C4  
          __size_of___flneg 0038            __size_of___awmod 00B0            __size_of___flmul 042A  
          __size_of___flsub 0046            __size_of___fltol 0108            __size_of___lwmod 0064  
       __end_of_timer0_init 654C                    ___xxtofl 510C            __size_of_scalbnf 0234  
                  __ptext10 5F7C                    __ptext11 620A                    __ptext20 653E  
                  __ptext12 5982                    __ptext21 57F2                    __ptext13 63B8  
                  __ptext30 62F2                    __ptext22 10DC                    __ptext14 56F4  
                  __ptext31 3FCE                    __ptext23 3B0E                    __ptext15 5DC0  
                  __ptext40 64E2                    __ptext32 6430                    __ptext24 64C0  
                  __ptext16 625A                    __ptext41 62A6                    __ptext33 48B8  
                  __ptext25 54F2                    __ptext17 63F6                    __ptext42 64FC  
                  __ptext34 53EA                    __ptext26 4ED8                    __ptext18 5FF0  
                  __ptext43 6054                    __ptext35 58BE                    __ptext27 448E  
                  __ptext19 6516                    __ptext44 652C                    __ptext36 649C  
                  __ptext28 6468                    __ptext37 6556                    __ptext29 510C  
                  __ptext46 4C54                    __ptext38 654C                    __ptext47 6116  
                  __ptext39 60B8                    __ptext48 6168                    _ledValue 0055  
                  _countRB0 00B7                    _countRA5 00BB               __size_of_main 00B2  
             __size_of_nanf 0022               _disp_Clock_SW 5C60               __size_of_powf 2A32  
                  _pin_init 649C        powf@__xc8_float_word 01B8                    _osc_init 6556  
        _changed_state_flag 00D5                    _stateRB0 00C1                    int$flags 0057  
                  _stateRA5 00C2                    _state_sw 00C6                  _LCDPutChar 625A  
                _LCDPutInst 62A6       __end_of_SendByteBBSPI 60B8                 _second_flag 00CC  
                _INTCONbits 000FF2         __end_of_state_clock 5FF0      __size_of_LCDMoveCursor 003A  
                  scalbnf@n 0036                    scalbnf@u 003C                    scalbnf@x 0032  
                  scalbnf@y 0040                    intlevel2 0000               ?_handleButton 0001  
                 sqrtf@tiny 1011            ??_handle_Time_SW 0009              ?_disp_Clock_SW 0001  
          ___lwmod@dividend 0009     __end_of_WritePort_BBSPI 6516     __size_of_state_set_hour 00B8  
               _timer0_init 653E               ?_disp_Changed 0001     WritePort_BBSPI@port_add 000D  
              ?_handle_Time 0001             ___lwmod@divisor 000B              _interrupt_init 654C  
           ___lwmod@counter 000D               ___fladd@signs 0015              ??_handleButton 0003  
     sqrtf@__xc8_float_word 006C                ___fladd@aexp 0016                ___fladd@bexp 0017  
  __size_of_disp_Changed_SW 00FE  
